 arclite

 Timestamp is 57c8d1f3 (Fri Sep  2 04:12:19 2016)

 Preferred load address is 0000000064000000

 Start         Length     Name                   Class
 0001:00000000 000001e0H .text                   CODE
 0001:000001e0 000004c0H .text$di                CODE
 0001:000006a0 00093030H .text$mn                CODE
 0001:000936d0 00000020H .text$mn$00             CODE
 0001:000936f0 0000c950H .text$x                 CODE
 0001:000a0040 000008f4H .text$yd                CODE
 0002:00000000 000004b8H .idata$5                DATA
 0002:000004b8 00000010H .00cfg                  DATA
 0002:000004c8 00000008H .CRT$XCA                DATA
 0002:000004d0 00000018H .CRT$XCC                DATA
 0002:000004e8 00000010H .CRT$XCL                DATA
 0002:000004f8 00000078H .CRT$XCU                DATA
 0002:00000570 00000008H .CRT$XCZ                DATA
 0002:00000578 00000008H .CRT$XIA                DATA
 0002:00000580 00000028H .CRT$XIC                DATA
 0002:000005a8 00000008H .CRT$XIZ                DATA
 0002:000005b0 00000008H .CRT$XPA                DATA
 0002:000005b8 00000010H .CRT$XPX                DATA
 0002:000005c8 00000008H .CRT$XPXA               DATA
 0002:000005d0 00000008H .CRT$XPZ                DATA
 0002:000005d8 00000008H .CRT$XTA                DATA
 0002:000005e0 00000010H .CRT$XTZ                DATA
 0002:000005f0 00018780H .rdata                  DATA
 0002:00018d70 00003ec0H .rdata$r                DATA
 0002:0001cc30 00000010H .rdata$zETW0            DATA
 0002:0001cc40 00000077H .rdata$zETW1            DATA
 0002:0001ccb7 0000002cH .rdata$zETW2            DATA
 0002:0001cce3 00000001H .rdata$zETW9            DATA
 0002:0001cce4 000003b4H .rdata$zzzdbg           DATA
 0002:0001d098 00000008H .rtc$IAA                DATA
 0002:0001d0a0 00000008H .rtc$IZZ                DATA
 0002:0001d0a8 00000008H .rtc$TAA                DATA
 0002:0001d0b0 00000010H .rtc$TZZ                DATA
 0002:0001d0c0 00019f00H .xdata                  DATA
 0002:00036fc0 00000550H .xdata$x                DATA
 0002:00037510 000001ecH .edata                  DATA
 0002:000376fc 00000078H .idata$2                DATA
 0002:00037774 00000014H .idata$3                DATA
 0002:00037788 000004b8H .idata$4                DATA
 0002:00037c40 00000acaH .idata$6                DATA
 0003:00000000 00000e80H .data                   DATA
 0003:00000e80 00001540H .data$r                 DATA
 0003:000023c0 0000227cH .bss                    DATA
 0004:00000000 00007b00H .pdata                  DATA
 0005:00000000 000000b4H .gfids$x                DATA
 0005:000000b4 00000198H .gfids$y                DATA
 0006:00000000 00000060H .rsrc$01                DATA
 0006:00000060 000002a0H .rsrc$02                DATA

  Address         Publics by Value              Rva+Base               Lib:Object

 0000:00000000       __guard_iat_count          0000000000000000     <absolute>
 0000:00000000       __dynamic_value_reloc_table 0000000000000000     <absolute>
 0000:00000000       __guard_iat_table          0000000000000000     <absolute>
 0000:00000000       __guard_longjmp_table      0000000000000000     <absolute>
 0000:00000000       __guard_longjmp_count      0000000000000000     <absolute>
 0000:00000000       __guard_fids_count         0000000000000000     <absolute>
 0000:00000000       ___safe_se_handler_table   0000000000000000     <absolute>
 0000:00000000       ___safe_se_handler_count   0000000000000000     <absolute>
 0000:00000000       __guard_fids_table         0000000000000000     <absolute>
 0000:00000100       __guard_flags              0000000000000100     <absolute>
 0000:00000000       __ImageBase                0000000064000000     <linker-defined>
 0001:00000000       ?TraceLoggingRegister@__vcrt_trace_logging_provider@@YAJPEBU_TlgProvider_t@1@PEBU_GUID@@P6AX1KE_K2PEAU_EVENT_FILTER_DESCRIPTOR@@PEAX@Z4@Z 0000000064001000 f i libvcruntime:telemetry.obj
 0001:0000007c       ?_TlgEnableCallback@__vcrt_trace_logging_provider@@YAXPEBU_GUID@@KE_K1PEAU_EVENT_FILTER_DESCRIPTOR@@PEAX@Z 000000006400107c f i libvcruntime:telemetry.obj
 0001:00000140       ?_TlgWrite@__vcrt_trace_logging_provider@@YAJPEBU_TlgProvider_t@1@PEFBXPEBU_GUID@@2IPEAU_EVENT_DATA_DESCRIPTOR@@@Z 0000000064001140 f i libvcruntime:telemetry.obj
 0001:000006a0       ??0Error@@QEAA@JPEBDH@Z    00000000640016a0 f i archive.obj
 0001:00000700       ??0Error@@QEAA@AEBV?$basic_string@_WU?$char_traits@_W@std@@V?$allocator@_W@2@@std@@PEBDH@Z 0000000064001700 f i archive.obj
 0001:00000780       ??1ComBase@@UEAA@XZ        0000000064001780 f i archive.obj
 0001:00000790       ??_EComBase@@UEAAPEAXI@Z   0000000064001790 f i * CIL library *:* CIL module *
 0001:00000790       ??_GComBase@@UEAAPEAXI@Z   0000000064001790 f i archive.obj
 0001:000007c0       ??1PropVariant@@QEAA@XZ    00000000640017c0 f i archive.obj
 0001:00000830       ?ref@PropVariant@@QEAAPEAUtagPROPVARIANT@@XZ 0000000064001830 f i archive.obj
 0001:000008a0       ??4PropVariant@@QEAAAEAV0@_N@Z 00000000640018a0 f i archive.obj
 0001:00000930       ?get_uint@PropVariant@@QEBA_KXZ 0000000064001930 f i archive.obj
 0001:000009c0       ?get_str@PropVariant@@QEBA?AV?$basic_string@_WU?$char_traits@_W@std@@V?$allocator@_W@2@@std@@XZ 00000000640019c0 f i archive.obj
 0001:00000aa0       ??1Error@@QEAA@XZ          0000000064001aa0 f i archive.obj
 0001:00000ac0       ??0Error@@QEAA@AEBU0@@Z    0000000064001ac0 f i archive.obj
 0001:00000b00       ??0ArcFormat@@QEAA@XZ      0000000064001b00 f i archive.obj
 0001:00000bd0       ??1?$map@V?$basic_string@_WU?$char_traits@_W@std@@V?$allocator@_W@2@@std@@V12@U?$less@V?$basic_string@_WU?$char_traits@_W@std@@V?$allocator@_W@2@@std@@@2@V?$allocator@U?$pair@$$CBV?$basic_string@_WU?$char_traits@_W@std@@V?$allocator@_W@2@@std@@V12@@std@@@2@@std@@QEAA@XZ 0000000064001bd0 f i archive.obj
 0001:00000c00       ??0ArcAPI@@AEAA@XZ         0000000064001c00 f i archive.obj
 0001:00000c80       ?formats@ArcAPI@@SAAEBVArcFormats@@XZ 0000000064001c80 f i archive.obj
 0001:00000ce0       ?arc_dir@Archive@@QEBA?AV?$basic_string@_WU?$char_traits@_W@std@@V?$allocator@_W@2@@std@@XZ 0000000064001ce0 f i archive.obj
 0001:00000d10       ?arc_name@Archive@@QEBA?AV?$basic_string@_WU?$char_traits@_W@std@@V?$allocator@_W@2@@std@@XZ 0000000064001d10 f i archive.obj
 0001:00000de0       ?get_bool_prop@ArcLib@@QEBAJIKAEA_N@Z 0000000064001de0 f   archive.obj
 0001:00000f20       ?get_uint_prop@ArcLib@@QEBAJIKAEAI@Z 0000000064001f20 f   archive.obj
 0001:000010e0       ?get_string_prop@ArcLib@@QEBAJIKAEAV?$basic_string@_WU?$char_traits@_W@std@@V?$allocator@_W@2@@std@@@Z 00000000640020e0 f   archive.obj
 0001:00001260       ?get_bytes_prop@ArcLib@@QEBAJIKAEAV?$vector@EV?$allocator@E@std@@@std@@@Z 0000000064002260 f   archive.obj
 0001:000013c0       ?default_extension@ArcFormat@@QEBA?AV?$basic_string@_WU?$char_traits@_W@std@@V?$allocator@_W@2@@std@@XZ 00000000640023c0 f   archive.obj
 0001:00001420       ?get_arc_types@ArcFormats@@QEBA?AV?$list@V?$vector@EV?$allocator@E@std@@@std@@V?$allocator@V?$vector@EV?$allocator@E@std@@@std@@@2@@std@@XZ 0000000064002420 f   archive.obj
 0001:00001540       ?find_by_name@ArcFormats@@QEBA?AV?$list@V?$vector@EV?$allocator@E@std@@@std@@V?$allocator@V?$vector@EV?$allocator@E@std@@@std@@@2@@std@@AEBV?$basic_string@_WU?$char_traits@_W@std@@V?$allocator@_W@2@@3@@Z 0000000064002540 f   archive.obj
 0001:00001840       ?find_by_ext@ArcFormats@@QEBA?AV?$list@V?$vector@EV?$allocator@E@std@@@std@@V?$allocator@V?$vector@EV?$allocator@E@std@@@std@@@2@@std@@AEBV?$basic_string@_WU?$char_traits@_W@std@@V?$allocator@_W@2@@3@@Z 0000000064002840 f   archive.obj
 0001:00001bd0       ?find_by_name@SfxModules@@QEBA_KAEBV?$basic_string@_WU?$char_traits@_W@std@@V?$allocator@_W@2@@std@@@Z 0000000064002bd0 f   archive.obj
 0001:00001ec0       ?to_string@ArcChain@@QEBA?AV?$basic_string@_WU?$char_traits@_W@std@@V?$allocator@_W@2@@std@@XZ 0000000064002ec0 f   archive.obj
 0001:00001f30       ?QueryInterface@MyCompressCodecsInfo@@UEAAJAEBU_GUID@@PEAPEAX@Z 0000000064002f30 f i archive.obj
 0001:00001fc0       ?AddRef@ArchiveFileDeleterStream@@UEAAKXZ 0000000064002fc0 f i delete.obj
 0001:00001fc0       ?AddRef@CachedFileExtractStream@@UEAAKXZ 0000000064002fc0 f i extract.obj
 0001:00001fc0       ?AddRef@ArchiveSubStream@@UEAAKXZ 0000000064002fc0 f i open.obj
 0001:00001fc0       ?AddRef@ArchiveFileDeleter@@UEAAKXZ 0000000064002fc0 f i delete.obj
 0001:00001fc0       ?AddRef@FileReadStream@@UEAAKXZ 0000000064002fc0 f i update.obj
 0001:00001fc0       ?AddRef@ArchiveOpenStream@@UEAAKXZ 0000000064002fc0 f i open.obj
 0001:00001fc0       ?AddRef@MyCompressCodecsInfo@@UEAAKXZ 0000000064002fc0 f i archive.obj
 0001:00001fd0       ?Release@ArchiveOpenStream@@UEAAKXZ 0000000064002fd0 f i open.obj
 0001:00001fd0       ?Release@ArchiveFileDeleter@@UEAAKXZ 0000000064002fd0 f i delete.obj
 0001:00001fd0       ?Release@ArchiveSubStream@@UEAAKXZ 0000000064002fd0 f i open.obj
 0001:00001fd0       ?Release@ArchiveFileDeleterStream@@UEAAKXZ 0000000064002fd0 f i delete.obj
 0001:00001fd0       ?Release@MyCompressCodecsInfo@@UEAAKXZ 0000000064002fd0 f i archive.obj
 0001:00001fd0       ?Release@CachedFileExtractStream@@UEAAKXZ 0000000064002fd0 f i extract.obj
 0001:00001fd0       ?Release@FileReadStream@@UEAAKXZ 0000000064002fd0 f i update.obj
 0001:00002000       ?GetNumMethods@MyCompressCodecsInfo@@UEAAJPEAI@Z 0000000064003000 f i archive.obj
 0001:00002030       ?GetProperty@MyCompressCodecsInfo@@UEAAJIKPEAUtagPROPVARIANT@@@Z 0000000064003030 f i archive.obj
 0001:00002190       ?CreateDecoder@MyCompressCodecsInfo@@UEAAJIPEBU_GUID@@PEAPEAX@Z 0000000064003190 f i archive.obj
 0001:000021e0       ?CreateEncoder@MyCompressCodecsInfo@@UEAAJIPEBU_GUID@@PEAPEAX@Z 00000000640031e0 f i archive.obj
 0001:00002230       ??_EMyCompressCodecsInfo@@UEAAPEAXI@Z 0000000064003230 f i * CIL library *:* CIL module *
 0001:00002230       ??_GMyCompressCodecsInfo@@UEAAPEAXI@Z 0000000064003230 f i archive.obj
 0001:00002270       ??1ArcAPI@@AEAA@XZ         0000000064003270 f   archive.obj
 0001:00002740       ?load_libs@ArcAPI@@AEAAXAEBV?$basic_string@_WU?$char_traits@_W@std@@V?$allocator@_W@2@@std@@@Z 0000000064003740 f   archive.obj
 0001:00002d00       ??1ArcLib@@QEAA@XZ         0000000064003d00 f i archive.obj
 0001:00002d50       ?load_codecs@ArcAPI@@AEAAXAEBV?$basic_string@_WU?$char_traits@_W@std@@V?$allocator@_W@2@@std@@@Z 0000000064003d50 f   archive.obj
 0001:00003300       ??1CDllCodecInfo@@QEAA@XZ  0000000064004300 f i archive.obj
 0001:00003350       ?find@@YAPEBUSfxModuleInfo@@AEBV?$basic_string@_WU?$char_traits@_W@std@@V?$allocator@_W@2@@std@@@Z 0000000064004350 f   archive.obj
 0001:00003720       ?description@SfxModule@@QEBA?AV?$basic_string@_WU?$char_traits@_W@std@@V?$allocator@_W@2@@std@@XZ 0000000064004720 f   archive.obj
 0001:00003960       ?find_sfx_modules@ArcAPI@@AEAAXAEBV?$basic_string@_WU?$char_traits@_W@std@@V?$allocator@_W@2@@std@@@Z 0000000064004960 f   archive.obj
 0001:00003ee0       ??1CacheRecord@FileWriteCache@@QEAA@XZ 0000000064004ee0 f i extract.obj
 0001:00003ee0       ??1IdLang@@QEAA@XZ         0000000064004ee0 f i rsrc.obj
 0001:00003ee0       ??1FileIndexInfo@@QEAA@XZ  0000000064004ee0 f i update.obj
 0001:00003ee0       ??1RsrcId@@QEAA@XZ         0000000064004ee0 f i rsrc.obj
 0001:00003ee0       ??1?$basic_string@_WU?$char_traits@_W@std@@V?$allocator@_W@2@@std@@QEAA@XZ 0000000064004ee0 f i archive.obj
 0001:00003ee0       ??1SfxModule@@QEAA@XZ      0000000064004ee0 f i archive.obj
 0001:00004100       ?load@ArcAPI@@AEAAXXZ      0000000064005100 f   archive.obj
 0001:00004ed0       ??1ArcFormat@@QEAA@XZ      0000000064005ed0 f i archive.obj
 0001:00004fc0       ??4ArcFormat@@QEAAAEAU0@AEBU0@@Z 0000000064005fc0 f i archive.obj
 0001:000050a0       ??1?$set@IU?$less@I@std@@V?$allocator@I@2@@std@@QEAA@XZ 00000000640060a0 f i archive.obj
 0001:000050a0       ??1?$map@_J_KU?$less@_J@std@@V?$allocator@U?$pair@$$CB_J_K@std@@@2@@std@@QEAA@XZ 00000000640060a0 f i ui.obj
 0001:000050a0       ??1?$map@IIU?$less@I@std@@V?$allocator@U?$pair@$$CBII@std@@@2@@std@@QEAA@XZ 00000000640060a0 f i archive.obj
 0001:000050d0       ?create_in_archive@ArcAPI@@SAXAEBV?$vector@EV?$allocator@E@std@@@std@@PEAPEAUIInArchive@@@Z 00000000640060d0 f   archive.obj
 0001:00005210       ?create_out_archive@ArcAPI@@SAXAEBV?$vector@EV?$allocator@E@std@@@std@@PEAPEAUIOutArchive@@@Z 0000000064006210 f   archive.obj
 0001:00005350       ?get_default_name@Archive@@AEBA?AV?$basic_string@_WU?$char_traits@_W@std@@V?$allocator@_W@2@@std@@XZ 0000000064006350 f   archive.obj
 0001:00005750       ?get_temp_file_name@Archive@@AEBA?AV?$basic_string@_WU?$char_traits@_W@std@@V?$allocator@_W@2@@std@@XZ 0000000064006750 f   archive.obj
 0001:00005960       ?make_index@Archive@@QEAAXXZ 0000000064006960 f   archive.obj
 0001:00006350       ??1?$set@UDirInfo@?1??make_index@Archive@@QEAAXXZ@U?$less@UDirInfo@?1??make_index@Archive@@QEAAXXZ@@std@@V?$allocator@UDirInfo@?1??make_index@Archive@@QEAAXXZ@@5@@std@@QEAA@XZ 0000000064007350 f i archive.obj
 0001:000063d0       ??1ArcFileInfo@@QEAA@XZ    00000000640073d0 f i archive.obj
 0001:00006420       ??1?$stack@IV?$deque@IV?$allocator@I@std@@@std@@@std@@QEAA@XZ 0000000064007420 f i archive.obj
 0001:00006450       ?find_dir@Archive@@QEAAIAEBV?$basic_string@_WU?$char_traits@_W@std@@V?$allocator@_W@2@@std@@@Z 0000000064007450 f   archive.obj
 0001:000066b0       ?get_dir_list@Archive@@QEAA?AU?$pair@V?$_Vector_const_iterator@V?$_Vector_val@U?$_Simple_types@I@std@@@std@@@std@@V12@@std@@I@Z 00000000640076b0 f   archive.obj
 0001:00006780       ?get_file_info@Archive@@QEAA?AUFindData@@I@Z 0000000064007780 f   archive.obj
 0001:00006870       ?get_main_file@Archive@@QEBA_NAEAI@Z 0000000064007870 f   archive.obj
 0001:00006990       ?get_attr@Archive@@QEBAKI@Z 0000000064007990 f   archive.obj
 0001:00006b00       ?get_size@Archive@@QEBA_KI@Z 0000000064007b00 f   archive.obj
 0001:00006c60       ?get_psize@Archive@@QEBA_KI@Z 0000000064007c60 f   archive.obj
 0001:00006dc0       ?get_ctime@Archive@@QEBA?AU_FILETIME@@I@Z 0000000064007dc0 f   archive.obj
 0001:00006fa0       ?get_mtime@Archive@@QEBA?AU_FILETIME@@I@Z 0000000064007fa0 f   archive.obj
 0001:00007180       ?get_atime@Archive@@QEBA?AU_FILETIME@@I@Z 0000000064008180 f   archive.obj
 0001:00007360       ?get_crc@Archive@@QEBAII@Z 0000000064008360 f   archive.obj
 0001:000074b0       ?get_anti@Archive@@QEBA_NI@Z 00000000640084b0 f   archive.obj
 0001:000075e0       ?count@?$_Tree@V?$_Tmap_traits@IIU?$less@I@std@@V?$allocator@U?$pair@$$CBII@std@@@2@$0A@@std@@@std@@QEBA_KAEBI@Z 00000000640085e0 f i archive.obj
 0001:000075e0       ?count@?$_Tree@V?$_Tset_traits@IU?$less@I@std@@V?$allocator@I@2@$0A@@std@@@std@@QEBA_KAEBI@Z 00000000640085e0 f i archive.obj
 0001:000076c0       ??A?$map@IIU?$less@I@std@@V?$allocator@U?$pair@$$CBII@std@@@2@@std@@QEAAAEAIAEBI@Z 00000000640086c0 f i archive.obj
 0001:00007760       ??1?$Buffer@UFarListItem@@@@QEAA@XZ 0000000064008760 f i farutils.obj
 0001:00007760       ??1?$Buffer@UFarDialogItem@@@@QEAA@XZ 0000000064008760 f i farutils.obj
 0001:00007760       ??1?$Buffer@UFarList@@@@QEAA@XZ 0000000064008760 f i farutils.obj
 0001:00007760       ??1?$Buffer@D@@QEAA@XZ     0000000064008760 f i archive.obj
 0001:00007760       ??1?$Buffer@E@@QEAA@XZ     0000000064008760 f i plugin.obj
 0001:00007760       ??1?$Buffer@_W@@QEAA@XZ    0000000064008760 f i farutils.obj
 0001:00007770       ?push_back@?$vector@IV?$allocator@I@std@@@std@@QEAAXAEBI@Z 0000000064008770 f i archive.obj
 0001:00007800       ?push_back@?$vector@UArcFileInfo@@V?$allocator@UArcFileInfo@@@std@@@std@@QEAAXAEBUArcFileInfo@@@Z 0000000064008800 f i archive.obj
 0001:00007940       ?reserve@?$vector@UArcFileInfo@@V?$allocator@UArcFileInfo@@@std@@@std@@QEAAX_K@Z 0000000064008940 f i archive.obj
 0001:000079a0       ?push_back@?$vector@USfxModule@@V?$allocator@USfxModule@@@std@@@std@@QEAAXAEBUSfxModule@@@Z 00000000640089a0 f i archive.obj
 0001:000079a0       ?push_back@?$vector@V?$basic_string@_WU?$char_traits@_W@std@@V?$allocator@_W@2@@std@@V?$allocator@V?$basic_string@_WU?$char_traits@_W@std@@V?$allocator@_W@2@@std@@@2@@std@@QEAAXAEBV?$basic_string@_WU?$char_traits@_W@std@@V?$allocator@_W@2@@2@@Z 00000000640089a0 f i plugin.obj
 0001:00007a90       ?at@?$map@V?$vector@EV?$allocator@E@std@@@std@@UArcFormat@@U?$less@V?$vector@EV?$allocator@E@std@@@std@@@2@V?$allocator@U?$pair@$$CBV?$vector@EV?$allocator@E@std@@@std@@UArcFormat@@@std@@@2@@std@@QEBAAEBUArcFormat@@AEBV?$vector@EV?$allocator@E@std@@@2@@Z 0000000064008a90 f i archive.obj
 0001:00007b10       ??1?$vector@UCDllCodecInfo@@V?$allocator@UCDllCodecInfo@@@std@@@std@@QEAA@XZ 0000000064008b10 f i archive.obj
 0001:00007b70       ?push_back@?$vector@UArcLib@@V?$allocator@UArcLib@@@std@@@std@@QEAAXAEBUArcLib@@@Z 0000000064008b70 f i archive.obj
 0001:00007c10       ??1?$vector@UArcLib@@V?$allocator@UArcLib@@@std@@@std@@QEAA@XZ 0000000064008c10 f i archive.obj
 0001:00007c50       ?push_back@?$vector@V?$vector@EV?$allocator@E@std@@@std@@V?$allocator@V?$vector@EV?$allocator@E@std@@@std@@@2@@std@@QEAAXAEBV?$vector@EV?$allocator@E@std@@@2@@Z 0000000064008c50 f i archive.obj
 0001:00007d10       ??4?$vector@V?$vector@EV?$allocator@E@std@@@std@@V?$allocator@V?$vector@EV?$allocator@E@std@@@std@@@2@@std@@QEAAAEAV01@AEBV01@@Z 0000000064008d10 f i archive.obj
 0001:00007ed0       ??1?$vector@V?$vector@EV?$allocator@E@std@@@std@@V?$allocator@V?$vector@EV?$allocator@E@std@@@std@@@2@@std@@QEAA@XZ 0000000064008ed0 f i archive.obj
 0001:00007f30       ??A?$map@V?$basic_string@_WU?$char_traits@_W@std@@V?$allocator@_W@2@@std@@V12@U?$less@V?$basic_string@_WU?$char_traits@_W@std@@V?$allocator@_W@2@@std@@@2@V?$allocator@U?$pair@$$CBV?$basic_string@_WU?$char_traits@_W@std@@V?$allocator@_W@2@@std@@V12@@std@@@2@@std@@QEAAAEAV?$basic_string@_WU?$char_traits@_W@std@@V?$allocator@_W@2@@1@$$QEAV21@@Z 0000000064008f30 f i archive.obj
 0001:00007fe0       ??1?$list@UArcEntry@@V?$allocator@UArcEntry@@@std@@@std@@QEAA@XZ 0000000064008fe0 f i plugin.obj
 0001:00007fe0       ??1?$list@V?$vector@EV?$allocator@E@std@@@std@@V?$allocator@V?$vector@EV?$allocator@E@std@@@std@@@2@@std@@QEAA@XZ 0000000064008fe0 f i archive.obj
 0001:00007fe0       ??1ArcChain@@QEAA@XZ       0000000064008fe0 f i plugin.obj
 0001:00008000       ??4?$vector@EV?$allocator@E@std@@@std@@QEAAAEAV01@AEBV01@@Z 0000000064009000 f i archive.obj
 0001:00008130       ??1?$vector@EV?$allocator@E@std@@@std@@QEAA@XZ 0000000064009130 f i archive.obj
 0001:00008130       ??1VersionEncoder@@QEAA@XZ 0000000064009130 f i rsrc.obj
 0001:00008130       ??1ArcEntry@@QEAA@XZ       0000000064009130 f i plugin.obj
 0001:00008140       ??0?$vector@EV?$allocator@E@std@@@std@@QEAA@AEBV01@@Z 0000000064009140 f i archive.obj
 0001:000081f0       ??1?$list@UIdLang@@V?$allocator@UIdLang@@@std@@@std@@QEAA@XZ 00000000640091f0 f i rsrc.obj
 0001:000081f0       ??1?$list@VRsrcId@@V?$allocator@VRsrcId@@@std@@@std@@QEAA@XZ 00000000640091f0 f i rsrc.obj
 0001:000081f0       ??1?$list@UCacheRecord@FileWriteCache@@V?$allocator@UCacheRecord@FileWriteCache@@@std@@@std@@QEAA@XZ 00000000640091f0 f i extract.obj
 0001:000081f0       ??1?$list@V?$basic_string@_WU?$char_traits@_W@std@@V?$allocator@_W@2@@std@@V?$allocator@V?$basic_string@_WU?$char_traits@_W@std@@V?$allocator@_W@2@@std@@@2@@std@@QEAA@XZ 00000000640091f0 f i archive.obj
 0001:00008210       ??0?$list@V?$basic_string@_WU?$char_traits@_W@std@@V?$allocator@_W@2@@std@@V?$allocator@V?$basic_string@_WU?$char_traits@_W@std@@V?$allocator@_W@2@@std@@@2@@std@@QEAA@AEBV01@@Z 0000000064009210 f i archive.obj
 0001:00008270       ?substr@?$basic_string@_WU?$char_traits@_W@std@@V?$allocator@_W@2@@std@@QEBA?AV12@_K0@Z 0000000064009270 f i archive.obj
 0001:000082b0       ?data@?$basic_string@_WU?$char_traits@_W@std@@V?$allocator@_W@2@@std@@QEBAPEB_WXZ 00000000640092b0 f i archive.obj
 0001:000082b0       ?_Myptr@?$_String_alloc@U?$_String_base_types@_WV?$allocator@_W@std@@@std@@@std@@QEBAPEB_WXZ 00000000640092b0 f i archive.obj
 0001:000082c0       ?insert@?$basic_string@_WU?$char_traits@_W@std@@V?$allocator@_W@2@@std@@QEAAAEAV12@_K0_W@Z 00000000640092c0 f i archive.obj
 0001:00008440       ??4?$basic_string@_WU?$char_traits@_W@std@@V?$allocator@_W@2@@std@@QEAAAEAV01@AEBV01@@Z 0000000064009440 f i archive.obj
 0001:00008470       ??4?$basic_string@_WU?$char_traits@_W@std@@V?$allocator@_W@2@@std@@QEAAAEAV01@$$QEAV01@@Z 0000000064009470 f i archive.obj
 0001:000084e0       ??0?$basic_string@_WU?$char_traits@_W@std@@V?$allocator@_W@2@@std@@QEAA@PEB_W@Z 00000000640094e0 f i archive.obj
 0001:00008530       ??0?$basic_string@_WU?$char_traits@_W@std@@V?$allocator@_W@2@@std@@QEAA@XZ 0000000064009530 f i archive.obj
 0001:00008550       ??1?$_List_buy@V?$basic_string@_WU?$char_traits@_W@std@@V?$allocator@_W@2@@std@@V?$allocator@V?$basic_string@_WU?$char_traits@_W@std@@V?$allocator@_W@2@@std@@@2@@std@@QEAA@XZ 0000000064009550 f i archive.obj
 0001:00008550       ??1?$_Tree_comp_alloc@V?$_Tmap_traits@V?$basic_string@_WU?$char_traits@_W@std@@V?$allocator@_W@2@@std@@V12@U?$less@V?$basic_string@_WU?$char_traits@_W@std@@V?$allocator@_W@2@@std@@@2@V?$allocator@U?$pair@$$CBV?$basic_string@_WU?$char_traits@_W@std@@V?$allocator@_W@2@@std@@V12@@std@@@2@$0A@@std@@@std@@QEAA@XZ 0000000064009550 f i archive.obj
 0001:00008550       ??1?$_List_buy@UIconImageRsrc@@V?$allocator@UIconImageRsrc@@@std@@@std@@QEAA@XZ 0000000064009550 f i rsrc.obj
 0001:00008560       ?_Tidy@?$deque@IV?$allocator@I@std@@@std@@IEAAXXZ 0000000064009560 f i archive.obj
 0001:00008650       ?push_back@?$deque@IV?$allocator@I@std@@@std@@QEAAXAEBI@Z 0000000064009650 f i archive.obj
 0001:00008720       ?back@?$deque@IV?$allocator@I@std@@@std@@QEAAAEAIXZ 0000000064009720 f i archive.obj
 0001:00008770       ?_Reserve@?$vector@IV?$allocator@I@std@@@std@@IEAAX_K@Z 0000000064009770 f i archive.obj
 0001:00008800       ?_Reallocate@?$vector@IV?$allocator@I@std@@@std@@IEAAX_K@Z 0000000064009800 f i archive.obj
 0001:00008880       ?_Reserve@?$vector@UArcFileInfo@@V?$allocator@UArcFileInfo@@@std@@@std@@IEAAX_K@Z 0000000064009880 f i archive.obj
 0001:00008950       ?_Reallocate@?$vector@UArcFileInfo@@V?$allocator@UArcFileInfo@@@std@@@std@@IEAAX_K@Z 0000000064009950 f i archive.obj
 0001:00008a30       ?_Reserve@?$vector@USfxModule@@V?$allocator@USfxModule@@@std@@@std@@IEAAX_K@Z 0000000064009a30 f i archive.obj
 0001:00008a30       ?_Reserve@?$vector@V?$basic_string@_WU?$char_traits@_W@std@@V?$allocator@_W@2@@std@@V?$allocator@V?$basic_string@_WU?$char_traits@_W@std@@V?$allocator@_W@2@@std@@@2@@std@@IEAAX_K@Z 0000000064009a30 f i plugin.obj
 0001:00008ac0       ??R?$less@V?$vector@EV?$allocator@E@std@@@std@@@std@@QEBA_NAEBV?$vector@EV?$allocator@E@std@@@1@0@Z 0000000064009ac0 f i archive.obj
 0001:00008b20       ?_Reserve@?$vector@UCDllCodecInfo@@V?$allocator@UCDllCodecInfo@@@std@@@std@@IEAAX_K@Z 0000000064009b20 f i archive.obj
 0001:00008bf0       ?_Reserve@?$vector@UArcLib@@V?$allocator@UArcLib@@@std@@@std@@IEAAX_K@Z 0000000064009bf0 f i archive.obj
 0001:00008c80       ?_Reserve@?$vector@V?$vector@EV?$allocator@E@std@@@std@@V?$allocator@V?$vector@EV?$allocator@E@std@@@std@@@2@@std@@IEAAX_K@Z 0000000064009c80 f i archive.obj
 0001:00008d50       ?_Buy@?$vector@V?$vector@EV?$allocator@E@std@@@std@@V?$allocator@V?$vector@EV?$allocator@E@std@@@std@@@2@@std@@IEAA_N_K@Z 0000000064009d50 f i archive.obj
 0001:00008dc0       ??R?$less@V?$basic_string@_WU?$char_traits@_W@std@@V?$allocator@_W@2@@std@@@std@@QEBA_NAEBV?$basic_string@_WU?$char_traits@_W@std@@V?$allocator@_W@2@@1@0@Z 0000000064009dc0 f i archive.obj
 0001:00008e00       ?deallocate@?$_Wrap_alloc@V?$allocator@D@std@@@std@@QEAAXPEAD_K@Z 0000000064009e00 f i archive.obj
 0001:00008e00       ?deallocate@?$_Wrap_alloc@V?$allocator@E@std@@@std@@QEAAXPEAE_K@Z 0000000064009e00 f i archive.obj
 0001:00008e60       __except_validate_context_record 0000000064009e60 f i libvcruntime:jbcxrval.obj
 0001:00008e60       ?_Lock@?$basic_streambuf@_WU?$char_traits@_W@std@@@std@@UEAAXXZ 0000000064009e60 f i ui.obj
 0001:00008e60       ?_Orphan_all@?$_Vector_alloc@U?$_Vec_base_types@EV?$allocator@E@std@@@std@@@std@@QEAAXXZ 0000000064009e60 f i archive.obj
 0001:00008e60       ??$destroy@PEA_W@?$_Wrap_alloc@V?$allocator@_W@std@@@std@@QEAAXPEAPEA_W@Z 0000000064009e60 f i archive.obj
 0001:00008e60       _guard_check_icall_nop     0000000064009e60 f i LIBCMT:guard_support.obj
 0001:00008e60       ??$destroy@PEAU?$_List_node@V?$basic_string@_WU?$char_traits@_W@std@@V?$allocator@_W@2@@std@@PEAX@std@@@?$_Wrap_alloc@V?$allocator@U?$_List_node@V?$basic_string@_WU?$char_traits@_W@std@@V?$allocator@_W@2@@std@@PEAX@std@@@std@@@std@@QEAAXPEAPEAU?$_List_node@V?$basic_string@_WU?$char_traits@_W@std@@V?$allocator@_W@2@@std@@PEAX@1@@Z 0000000064009e60 f i archive.obj
 0001:00008e60       ?_Unlock@?$basic_streambuf@_WU?$char_traits@_W@std@@@std@@UEAAXXZ 0000000064009e60 f i ui.obj
 0001:00008e60       ?imbue@?$basic_streambuf@_WU?$char_traits@_W@std@@@std@@MEAAXAEBVlocale@2@@Z 0000000064009e60 f i ui.obj
 0001:00008e60       ?_Destroy@?$vector@EV?$allocator@E@std@@@std@@IEAAXPEAE0@Z 0000000064009e60 f i archive.obj
 0001:00008e60       ??3@YAXPEAX0@Z             0000000064009e60 f i archive.obj
 0001:00008e70       ?deallocate@?$_Wrap_alloc@V?$allocator@VPropVariant@@@std@@@std@@QEAAXPEAVPropVariant@@_K@Z 0000000064009e70 f i update.obj
 0001:00008e70       ?deallocate@?$_Wrap_alloc@V?$allocator@V?$vector@EV?$allocator@E@std@@@std@@@std@@@std@@QEAAXPEAV?$vector@EV?$allocator@E@std@@@2@_K@Z 0000000064009e70 f i archive.obj
 0001:00008e70       ?deallocate@?$_Wrap_alloc@V?$allocator@UInfoPanelLine@@@std@@@std@@QEAAXPEAUInfoPanelLine@@_K@Z 0000000064009e70 f i plugin.obj
 0001:00008ee0       ?_Tidy@?$vector@EV?$allocator@E@std@@@std@@IEAAXXZ 0000000064009ee0 f i archive.obj
 0001:00008f60       ?_Buy@?$vector@EV?$allocator@E@std@@@std@@IEAA_N_K@Z 0000000064009f60 f i archive.obj
 0001:00008fc0       ?clear@?$list@VRsrcId@@V?$allocator@VRsrcId@@@std@@@std@@QEAAXXZ 0000000064009fc0 f i rsrc.obj
 0001:00008fc0       ?clear@?$list@V?$basic_string@_WU?$char_traits@_W@std@@V?$allocator@_W@2@@std@@V?$allocator@V?$basic_string@_WU?$char_traits@_W@std@@V?$allocator@_W@2@@std@@@2@@std@@QEAAXXZ 0000000064009fc0 f i archive.obj
 0001:00008fc0       ?clear@?$list@UCacheRecord@FileWriteCache@@V?$allocator@UCacheRecord@FileWriteCache@@@std@@@std@@QEAAXXZ 0000000064009fc0 f i extract.obj
 0001:00008fc0       ?clear@?$list@UIdLang@@V?$allocator@UIdLang@@@std@@@std@@QEAAXXZ 0000000064009fc0 f i rsrc.obj
 0001:000090c0       ?_Construct_n@?$list@V?$basic_string@_WU?$char_traits@_W@std@@V?$allocator@_W@2@@std@@V?$allocator@V?$basic_string@_WU?$char_traits@_W@std@@V?$allocator@_W@2@@std@@@2@@std@@QEAAX_KAEBV?$basic_string@_WU?$char_traits@_W@std@@V?$allocator@_W@2@@2@@Z 000000006400a0c0 f i archive.obj
 0001:000090f0       ?replace@?$basic_string@_WU?$char_traits@_W@std@@V?$allocator@_W@2@@std@@QEAAAEAV12@_K0AEBV12@00@Z 000000006400a0f0 f i archive.obj
 0001:00009500       ?insert@?$basic_string@_WU?$char_traits@_W@std@@V?$allocator@_W@2@@std@@QEAAAEAV12@_KAEBV12@00@Z 000000006400a500 f i archive.obj
 0001:000096b0       ??G?$_Deque_iterator@V?$_Deque_val@U?$_Deque_simple_types@I@std@@@std@@@std@@QEBA?AV01@_J@Z 000000006400a6b0 f i archive.obj
 0001:00009700       ?_Growmap@?$deque@IV?$allocator@I@std@@@std@@IEAAX_K@Z 000000006400a700 f i archive.obj
 0001:00009960       ?end@?$deque@IV?$allocator@I@std@@@std@@QEAA?AV?$_Deque_iterator@V?$_Deque_val@U?$_Deque_simple_types@I@std@@@std@@@2@XZ 000000006400a960 f i archive.obj
 0001:00009980       ?erase@?$_Tree@V?$_Tmap_traits@IUFileIndexInfo@@U?$less@I@std@@V?$allocator@U?$pair@$$CBIUFileIndexInfo@@@std@@@3@$0A@@std@@@std@@QEAA?AV?$_Tree_iterator@V?$_Tree_val@U?$_Tree_simple_types@U?$pair@$$CBIUFileIndexInfo@@@std@@@std@@@std@@@2@V?$_Tree_const_iterator@V?$_Tree_val@U?$_Tree_simple_types@U?$pair@$$CBIUFileIndexInfo@@@std@@@std@@@std@@@2@0@Z 000000006400a980 f i update.obj
 0001:00009980       ?erase@?$_Tree@V?$_Tset_traits@UDirInfo@?1??make_index@Archive@@QEAAXXZ@U?$less@UDirInfo@?1??make_index@Archive@@QEAAXXZ@@std@@V?$allocator@UDirInfo@?1??make_index@Archive@@QEAAXXZ@@5@$0A@@std@@@std@@QEAA?AV?$_Tree_const_iterator@V?$_Tree_val@U?$_Tree_simple_types@UDirInfo@?1??make_index@Archive@@QEAAXXZ@@std@@@std@@@2@V32@0@Z 000000006400a980 f i archive.obj
 0001:00009a70       ?erase@?$_Tree@V?$_Tmap_traits@IIU?$less@I@std@@V?$allocator@U?$pair@$$CBII@std@@@2@$0A@@std@@@std@@QEAA?AV?$_Tree_iterator@V?$_Tree_val@U?$_Tree_simple_types@U?$pair@$$CBII@std@@@std@@@std@@@2@V?$_Tree_const_iterator@V?$_Tree_val@U?$_Tree_simple_types@U?$pair@$$CBII@std@@@std@@@std@@@2@0@Z 000000006400aa70 f i archive.obj
 0001:00009a70       ?erase@?$_Tree@V?$_Tmap_traits@_J_KU?$less@_J@std@@V?$allocator@U?$pair@$$CB_J_K@std@@@2@$0A@@std@@@std@@QEAA?AV?$_Tree_iterator@V?$_Tree_val@U?$_Tree_simple_types@U?$pair@$$CB_J_K@std@@@std@@@std@@@2@V?$_Tree_const_iterator@V?$_Tree_val@U?$_Tree_simple_types@U?$pair@$$CB_J_K@std@@@std@@@std@@@2@0@Z 000000006400aa70 f i ui.obj
 0001:00009a70       ?erase@?$_Tree@V?$_Tset_traits@IU?$less@I@std@@V?$allocator@I@2@$0A@@std@@@std@@QEAA?AV?$_Tree_const_iterator@V?$_Tree_val@U?$_Tree_simple_types@I@std@@@std@@@2@V32@0@Z 000000006400aa70 f i archive.obj
 0001:00009b50       ?deallocate@?$_Wrap_alloc@V?$allocator@UArcFileInfo@@@std@@@std@@QEAAXPEAUArcFileInfo@@_K@Z 000000006400ab50 f i archive.obj
 0001:00009b50       ?deallocate@?$_Wrap_alloc@V?$allocator@UFarMenuItem@@@std@@@std@@QEAAXPEAUFarMenuItem@@_K@Z 000000006400ab50 f i farutils.obj
 0001:00009bc0       ?deallocate@?$_Wrap_alloc@V?$allocator@I@std@@@std@@QEAAXPEAI_K@Z 000000006400abc0 f i archive.obj
 0001:00009c30       ?deallocate@?$_Wrap_alloc@V?$allocator@UCDllCodecInfo@@@std@@@std@@QEAAXPEAUCDllCodecInfo@@_K@Z 000000006400ac30 f i archive.obj
 0001:00009ca0       ?deallocate@?$_Wrap_alloc@V?$allocator@UArcLib@@@std@@@std@@QEAAXPEAUArcLib@@_K@Z 000000006400aca0 f i archive.obj
 0001:00009d10       ?deallocate@?$_Wrap_alloc@V?$allocator@V?$basic_string@_WU?$char_traits@_W@std@@V?$allocator@_W@2@@std@@@std@@@std@@QEAAXPEAV?$basic_string@_WU?$char_traits@_W@std@@V?$allocator@_W@2@@2@_K@Z 000000006400ad10 f i plugin.obj
 0001:00009d10       ?deallocate@?$_Wrap_alloc@V?$allocator@UFarListItem@@@std@@@std@@QEAAXPEAUFarListItem@@_K@Z 000000006400ad10 f i ui.obj
 0001:00009d10       ?deallocate@?$_Wrap_alloc@V?$allocator@USfxModule@@@std@@@std@@QEAAXPEAUSfxModule@@_K@Z 000000006400ad10 f i archive.obj
 0001:00009d80       ?_Reallocate@?$vector@V?$basic_string@_WU?$char_traits@_W@std@@V?$allocator@_W@2@@std@@V?$allocator@V?$basic_string@_WU?$char_traits@_W@std@@V?$allocator@_W@2@@std@@@2@@std@@IEAAX_K@Z 000000006400ad80 f i plugin.obj
 0001:00009d80       ?_Reallocate@?$vector@USfxModule@@V?$allocator@USfxModule@@@std@@@std@@IEAAX_K@Z 000000006400ad80 f i archive.obj
 0001:00009e10       ?erase@?$_Tree@V?$_Tmap_traits@V?$vector@EV?$allocator@E@std@@@std@@UArcFormat@@U?$less@V?$vector@EV?$allocator@E@std@@@std@@@2@V?$allocator@U?$pair@$$CBV?$vector@EV?$allocator@E@std@@@std@@UArcFormat@@@std@@@2@$0A@@std@@@std@@QEAA?AV?$_Tree_iterator@V?$_Tree_val@U?$_Tree_simple_types@U?$pair@$$CBV?$vector@EV?$allocator@E@std@@@std@@UArcFormat@@@std@@@std@@@std@@@2@V?$_Tree_const_iterator@V?$_Tree_val@U?$_Tree_simple_types@U?$pair@$$CBV?$vector@EV?$allocator@E@std@@@std@@UArcFormat@@@std@@@std@@@std@@@2@0@Z 000000006400ae10 f i archive.obj
 0001:00009f00       ?_Reallocate@?$vector@UCDllCodecInfo@@V?$allocator@UCDllCodecInfo@@@std@@@std@@IEAAX_K@Z 000000006400af00 f i archive.obj
 0001:00009fe0       ?_Reallocate@?$vector@UArcLib@@V?$allocator@UArcLib@@@std@@@std@@IEAAX_K@Z 000000006400afe0 f i archive.obj
 0001:0000a070       ?_Reallocate@?$vector@V?$vector@EV?$allocator@E@std@@@std@@V?$allocator@V?$vector@EV?$allocator@E@std@@@std@@@2@@std@@IEAAX_K@Z 000000006400b070 f i archive.obj
 0001:0000a140       ?clear@?$_Tree@V?$_Tmap_traits@V?$basic_string@_WU?$char_traits@_W@std@@V?$allocator@_W@2@@std@@V12@U?$less@V?$basic_string@_WU?$char_traits@_W@std@@V?$allocator@_W@2@@std@@@2@V?$allocator@U?$pair@$$CBV?$basic_string@_WU?$char_traits@_W@std@@V?$allocator@_W@2@@std@@V12@@std@@@2@$0A@@std@@@std@@QEAAXXZ 000000006400b140 f i archive.obj
 0001:0000a1d0       ?erase@?$_Tree@V?$_Tmap_traits@V?$basic_string@_WU?$char_traits@_W@std@@V?$allocator@_W@2@@std@@V12@U?$less@V?$basic_string@_WU?$char_traits@_W@std@@V?$allocator@_W@2@@std@@@2@V?$allocator@U?$pair@$$CBV?$basic_string@_WU?$char_traits@_W@std@@V?$allocator@_W@2@@std@@V12@@std@@@2@$0A@@std@@@std@@QEAA?AV?$_Tree_iterator@V?$_Tree_val@U?$_Tree_simple_types@U?$pair@$$CBV?$basic_string@_WU?$char_traits@_W@std@@V?$allocator@_W@2@@std@@V12@@std@@@std@@@std@@@2@V?$_Tree_const_iterator@V?$_Tree_val@U?$_Tree_simple_types@U?$pair@$$CBV?$basic_string@_WU?$char_traits@_W@std@@V?$allocator@_W@2@@std@@V12@@std@@@std@@@std@@@2@0@Z 000000006400b1d0 f i archive.obj
 0001:0000a2b0       ?allocate@?$_Wrap_alloc@V?$allocator@D@std@@@std@@QEAAPEAD_K@Z 000000006400b2b0 f i archive.obj
 0001:0000a2b0       ?allocate@?$_Wrap_alloc@V?$allocator@E@std@@@std@@QEAAPEAE_K@Z 000000006400b2b0 f i archive.obj
 0001:0000a320       ?clear@?$list@UArcEntry@@V?$allocator@UArcEntry@@@std@@@std@@QEAAXXZ 000000006400b320 f i plugin.obj
 0001:0000a320       ?clear@?$list@V?$vector@EV?$allocator@E@std@@@std@@V?$allocator@V?$vector@EV?$allocator@E@std@@@std@@@2@@std@@QEAAXXZ 000000006400b320 f i archive.obj
 0001:0000a3f0       ?_Insert_n@?$list@V?$basic_string@_WU?$char_traits@_W@std@@V?$allocator@_W@2@@std@@V?$allocator@V?$basic_string@_WU?$char_traits@_W@std@@V?$allocator@_W@2@@std@@@2@@std@@QEAAXV?$_List_unchecked_const_iterator@V?$_List_val@U?$_List_simple_types@V?$basic_string@_WU?$char_traits@_W@std@@V?$allocator@_W@2@@std@@@std@@@std@@U_Iterator_base0@2@@2@_KAEBV?$basic_string@_WU?$char_traits@_W@std@@V?$allocator@_W@2@@2@@Z 000000006400b3f0 f i archive.obj
 0001:0000a4a0       ?append@?$basic_string@_WU?$char_traits@_W@std@@V?$allocator@_W@2@@std@@QEAAAEAV12@PEB_W_K@Z 000000006400b4a0 f i archive.obj
 0001:0000a610       ?append@?$basic_string@_WU?$char_traits@_W@std@@V?$allocator@_W@2@@std@@QEAAAEAV12@AEBV12@_K1@Z 000000006400b610 f i archive.obj
 0001:0000a740       ?erase@?$_Tree@V?$_Tset_traits@UDirInfo@?1??make_index@Archive@@QEAAXXZ@U?$less@UDirInfo@?1??make_index@Archive@@QEAAXXZ@@std@@V?$allocator@UDirInfo@?1??make_index@Archive@@QEAAXXZ@@5@$0A@@std@@@std@@QEAA?AV?$_Tree_const_iterator@V?$_Tree_val@U?$_Tree_simple_types@UDirInfo@?1??make_index@Archive@@QEAAXXZ@@std@@@std@@@2@V32@@Z 000000006400b740 f i archive.obj
 0001:0000a740       ?erase@?$_Tree@V?$_Tmap_traits@IUFileIndexInfo@@U?$less@I@std@@V?$allocator@U?$pair@$$CBIUFileIndexInfo@@@std@@@3@$0A@@std@@@std@@QEAA?AV?$_Tree_iterator@V?$_Tree_val@U?$_Tree_simple_types@U?$pair@$$CBIUFileIndexInfo@@@std@@@std@@@std@@@2@V?$_Tree_const_iterator@V?$_Tree_val@U?$_Tree_simple_types@U?$pair@$$CBIUFileIndexInfo@@@std@@@std@@@std@@@2@@Z 000000006400b740 f i update.obj
 0001:0000abf0       ?clear@?$_Tree@V?$_Tmap_traits@IIU?$less@I@std@@V?$allocator@U?$pair@$$CBII@std@@@2@$0A@@std@@@std@@QEAAXXZ 000000006400bbf0 f i archive.obj
 0001:0000abf0       ?clear@?$_Tree@V?$_Tmap_traits@_J_KU?$less@_J@std@@V?$allocator@U?$pair@$$CB_J_K@std@@@2@$0A@@std@@@std@@QEAAXXZ 000000006400bbf0 f i ui.obj
 0001:0000abf0       ?clear@?$_Tree@V?$_Tset_traits@IU?$less@I@std@@V?$allocator@I@2@$0A@@std@@@std@@QEAAXXZ 000000006400bbf0 f i archive.obj
 0001:0000ac70       ?erase@?$_Tree@V?$_Tset_traits@IU?$less@I@std@@V?$allocator@I@2@$0A@@std@@@std@@QEAA?AV?$_Tree_const_iterator@V?$_Tree_val@U?$_Tree_simple_types@I@std@@@std@@@2@V32@@Z 000000006400bc70 f i archive.obj
 0001:0000ac70       ?erase@?$_Tree@V?$_Tmap_traits@IIU?$less@I@std@@V?$allocator@U?$pair@$$CBII@std@@@2@$0A@@std@@@std@@QEAA?AV?$_Tree_iterator@V?$_Tree_val@U?$_Tree_simple_types@U?$pair@$$CBII@std@@@std@@@std@@@2@V?$_Tree_const_iterator@V?$_Tree_val@U?$_Tree_simple_types@U?$pair@$$CBII@std@@@std@@@std@@@2@@Z 000000006400bc70 f i archive.obj
 0001:0000ac70       ?erase@?$_Tree@V?$_Tmap_traits@_J_KU?$less@_J@std@@V?$allocator@U?$pair@$$CB_J_K@std@@@2@$0A@@std@@@std@@QEAA?AV?$_Tree_iterator@V?$_Tree_val@U?$_Tree_simple_types@U?$pair@$$CB_J_K@std@@@std@@@std@@@2@V?$_Tree_const_iterator@V?$_Tree_val@U?$_Tree_simple_types@U?$pair@$$CB_J_K@std@@@std@@@std@@@2@@Z 000000006400bc70 f i ui.obj
 0001:0000b080       ?allocate@?$allocator@I@std@@QEAAPEAI_K@Z 000000006400c080 f i archive.obj
 0001:0000b100       ?allocate@?$allocator@UFarMenuItem@@@std@@QEAAPEAUFarMenuItem@@_K@Z 000000006400c100 f i farutils.obj
 0001:0000b100       ?allocate@?$allocator@UArcFileInfo@@@std@@QEAAPEAUArcFileInfo@@_K@Z 000000006400c100 f i archive.obj
 0001:0000b180       ?erase@?$_Tree@V?$_Tmap_traits@V?$vector@EV?$allocator@E@std@@@std@@UArcFormat@@U?$less@V?$vector@EV?$allocator@E@std@@@std@@@2@V?$allocator@U?$pair@$$CBV?$vector@EV?$allocator@E@std@@@std@@UArcFormat@@@std@@@2@$0A@@std@@@std@@QEAA?AV?$_Tree_iterator@V?$_Tree_val@U?$_Tree_simple_types@U?$pair@$$CBV?$vector@EV?$allocator@E@std@@@std@@UArcFormat@@@std@@@std@@@std@@@2@V?$_Tree_const_iterator@V?$_Tree_val@U?$_Tree_simple_types@U?$pair@$$CBV?$vector@EV?$allocator@E@std@@@std@@UArcFormat@@@std@@@std@@@std@@@2@@Z 000000006400c180 f i archive.obj
 0001:0000b610       ?_Erase@?$_Tree@V?$_Tmap_traits@V?$basic_string@_WU?$char_traits@_W@std@@V?$allocator@_W@2@@std@@V12@U?$less@V?$basic_string@_WU?$char_traits@_W@std@@V?$allocator@_W@2@@std@@@2@V?$allocator@U?$pair@$$CBV?$basic_string@_WU?$char_traits@_W@std@@V?$allocator@_W@2@@std@@V12@@std@@@2@$0A@@std@@@std@@IEAAXPEAU?$_Tree_node@U?$pair@$$CBV?$basic_string@_WU?$char_traits@_W@std@@V?$allocator@_W@2@@std@@V12@@std@@PEAX@2@@Z 000000006400c610 f i archive.obj
 0001:0000b670       ?erase@?$_Tree@V?$_Tmap_traits@V?$basic_string@_WU?$char_traits@_W@std@@V?$allocator@_W@2@@std@@V12@U?$less@V?$basic_string@_WU?$char_traits@_W@std@@V?$allocator@_W@2@@std@@@2@V?$allocator@U?$pair@$$CBV?$basic_string@_WU?$char_traits@_W@std@@V?$allocator@_W@2@@std@@V12@@std@@@2@$0A@@std@@@std@@QEAA?AV?$_Tree_iterator@V?$_Tree_val@U?$_Tree_simple_types@U?$pair@$$CBV?$basic_string@_WU?$char_traits@_W@std@@V?$allocator@_W@2@@std@@V12@@std@@@std@@@std@@@2@V?$_Tree_const_iterator@V?$_Tree_val@U?$_Tree_simple_types@U?$pair@$$CBV?$basic_string@_WU?$char_traits@_W@std@@V?$allocator@_W@2@@std@@V12@@std@@@std@@@std@@@2@@Z 000000006400c670 f i archive.obj
 0001:0000ba90       ?allocate@?$allocator@V?$vector@EV?$allocator@E@std@@@std@@@std@@QEAAPEAV?$vector@EV?$allocator@E@std@@@2@_K@Z 000000006400ca90 f i archive.obj
 0001:0000ba90       ?allocate@?$allocator@VPropVariant@@@std@@QEAAPEAVPropVariant@@_K@Z 000000006400ca90 f i update.obj
 0001:0000ba90       ?allocate@?$allocator@UInfoPanelLine@@@std@@QEAAPEAUInfoPanelLine@@_K@Z 000000006400ca90 f i plugin.obj
 0001:0000bb10       ?_Unchecked_erase@?$list@UCacheRecord@FileWriteCache@@V?$allocator@UCacheRecord@FileWriteCache@@@std@@@std@@QEAAXV?$_List_unchecked_const_iterator@V?$_List_val@U?$_List_simple_types@UCacheRecord@FileWriteCache@@@std@@@std@@U_Iterator_base0@2@@2@@Z 000000006400cb10 f i extract.obj
 0001:0000bb10       ?_Unchecked_erase@?$list@V?$basic_string@_WU?$char_traits@_W@std@@V?$allocator@_W@2@@std@@V?$allocator@V?$basic_string@_WU?$char_traits@_W@std@@V?$allocator@_W@2@@std@@@2@@std@@QEAAXV?$_List_unchecked_const_iterator@V?$_List_val@U?$_List_simple_types@V?$basic_string@_WU?$char_traits@_W@std@@V?$allocator@_W@2@@std@@@std@@@std@@U_Iterator_base0@2@@2@@Z 000000006400cb10 f i archive.obj
 0001:0000bb90       ?_Buyheadnode@?$_Tree_comp_alloc@V?$_Tset_traits@UDirInfo@?1??make_index@Archive@@QEAAXXZ@U?$less@UDirInfo@?1??make_index@Archive@@QEAAXXZ@@std@@V?$allocator@UDirInfo@?1??make_index@Archive@@QEAAXXZ@@5@$0A@@std@@@std@@QEAAPEAU?$_Tree_node@UDirInfo@?1??make_index@Archive@@QEAAXXZ@PEAX@2@XZ 000000006400cb90 f i archive.obj
 0001:0000bbd0       ?_Rrotate@?$_Tree@V?$_Tmap_traits@IUFileIndexInfo@@U?$less@I@std@@V?$allocator@U?$pair@$$CBIUFileIndexInfo@@@std@@@3@$0A@@std@@@std@@IEAAXPEAU?$_Tree_node@U?$pair@$$CBIUFileIndexInfo@@@std@@PEAX@2@@Z 000000006400cbd0 f i update.obj
 0001:0000bbd0       ?_Rrotate@?$_Tree@V?$_Tmap_traits@IIU?$less@I@std@@V?$allocator@U?$pair@$$CBII@std@@@2@$0A@@std@@@std@@IEAAXPEAU?$_Tree_node@U?$pair@$$CBII@std@@PEAX@2@@Z 000000006400cbd0 f i archive.obj
 0001:0000bbd0       ?_Rrotate@?$_Tree@V?$_Tmap_traits@_J_KU?$less@_J@std@@V?$allocator@U?$pair@$$CB_J_K@std@@@2@$0A@@std@@@std@@IEAAXPEAU?$_Tree_node@U?$pair@$$CB_J_K@std@@PEAX@2@@Z 000000006400cbd0 f i ui.obj
 0001:0000bbd0       ?_Rrotate@?$_Tree@V?$_Tset_traits@UDirInfo@?1??make_index@Archive@@QEAAXXZ@U?$less@UDirInfo@?1??make_index@Archive@@QEAAXXZ@@std@@V?$allocator@UDirInfo@?1??make_index@Archive@@QEAAXXZ@@5@$0A@@std@@@std@@IEAAXPEAU?$_Tree_node@UDirInfo@?1??make_index@Archive@@QEAAXXZ@PEAX@2@@Z 000000006400cbd0 f i archive.obj
 0001:0000bbd0       ?_Rrotate@?$_Tree@V?$_Tset_traits@V?$basic_string@_WU?$char_traits@_W@std@@V?$allocator@_W@2@@std@@U?$less@V?$basic_string@_WU?$char_traits@_W@std@@V?$allocator@_W@2@@std@@@2@V?$allocator@V?$basic_string@_WU?$char_traits@_W@std@@V?$allocator@_W@2@@std@@@2@$0A@@std@@@std@@IEAAXPEAU?$_Tree_node@V?$basic_string@_WU?$char_traits@_W@std@@V?$allocator@_W@2@@std@@PEAX@2@@Z 000000006400cbd0 f i plugin.obj
 0001:0000bbd0       ?_Rrotate@?$_Tree@V?$_Tset_traits@V?$vector@EV?$allocator@E@std@@@std@@U?$less@V?$vector@EV?$allocator@E@std@@@std@@@2@V?$allocator@V?$vector@EV?$allocator@E@std@@@std@@@2@$0A@@std@@@std@@IEAAXPEAU?$_Tree_node@V?$vector@EV?$allocator@E@std@@@std@@PEAX@2@@Z 000000006400cbd0 f i open.obj
 0001:0000bbd0       ?_Rrotate@?$_Tree@V?$_Tmap_traits@V?$basic_string@_WU?$char_traits@_W@std@@V?$allocator@_W@2@@std@@V12@U?$less@V?$basic_string@_WU?$char_traits@_W@std@@V?$allocator@_W@2@@std@@@2@V?$allocator@U?$pair@$$CBV?$basic_string@_WU?$char_traits@_W@std@@V?$allocator@_W@2@@std@@V12@@std@@@2@$0A@@std@@@std@@IEAAXPEAU?$_Tree_node@U?$pair@$$CBV?$basic_string@_WU?$char_traits@_W@std@@V?$allocator@_W@2@@std@@V12@@std@@PEAX@2@@Z 000000006400cbd0 f i archive.obj
 0001:0000bbd0       ?_Rrotate@?$_Tree@V?$_Tset_traits@IU?$less@I@std@@V?$allocator@I@2@$0A@@std@@@std@@IEAAXPEAU?$_Tree_node@IPEAX@2@@Z 000000006400cbd0 f i archive.obj
 0001:0000bbd0       ?_Rrotate@?$_Tree@V?$_Tset_traits@V?$basic_string@_WU?$char_traits@_W@std@@V?$allocator@_W@2@@std@@UItemCompare@?1??show@MultiSelectDialog@@QEAA_NXZ@V?$allocator@V?$basic_string@_WU?$char_traits@_W@std@@V?$allocator@_W@2@@std@@@2@$0A@@std@@@std@@IEAAXPEAU?$_Tree_node@V?$basic_string@_WU?$char_traits@_W@std@@V?$allocator@_W@2@@std@@PEAX@2@@Z 000000006400cbd0 f i ui.obj
 0001:0000bbd0       ?_Rrotate@?$_Tree@V?$_Tmap_traits@V?$vector@EV?$allocator@E@std@@@std@@UArcFormat@@U?$less@V?$vector@EV?$allocator@E@std@@@std@@@2@V?$allocator@U?$pair@$$CBV?$vector@EV?$allocator@E@std@@@std@@UArcFormat@@@std@@@2@$0A@@std@@@std@@IEAAXPEAU?$_Tree_node@U?$pair@$$CBV?$vector@EV?$allocator@E@std@@@std@@UArcFormat@@@std@@PEAX@2@@Z 000000006400cbd0 f i archive.obj
 0001:0000bc30       ?_Lrotate@?$_Tree@V?$_Tset_traits@V?$basic_string@_WU?$char_traits@_W@std@@V?$allocator@_W@2@@std@@UItemCompare@?1??show@MultiSelectDialog@@QEAA_NXZ@V?$allocator@V?$basic_string@_WU?$char_traits@_W@std@@V?$allocator@_W@2@@std@@@2@$0A@@std@@@std@@IEAAXPEAU?$_Tree_node@V?$basic_string@_WU?$char_traits@_W@std@@V?$allocator@_W@2@@std@@PEAX@2@@Z 000000006400cc30 f i ui.obj
 0001:0000bc30       ?_Lrotate@?$_Tree@V?$_Tmap_traits@V?$basic_string@_WU?$char_traits@_W@std@@V?$allocator@_W@2@@std@@V12@U?$less@V?$basic_string@_WU?$char_traits@_W@std@@V?$allocator@_W@2@@std@@@2@V?$allocator@U?$pair@$$CBV?$basic_string@_WU?$char_traits@_W@std@@V?$allocator@_W@2@@std@@V12@@std@@@2@$0A@@std@@@std@@IEAAXPEAU?$_Tree_node@U?$pair@$$CBV?$basic_string@_WU?$char_traits@_W@std@@V?$allocator@_W@2@@std@@V12@@std@@PEAX@2@@Z 000000006400cc30 f i archive.obj
 0001:0000bc30       ?_Lrotate@?$_Tree@V?$_Tmap_traits@IUFileIndexInfo@@U?$less@I@std@@V?$allocator@U?$pair@$$CBIUFileIndexInfo@@@std@@@3@$0A@@std@@@std@@IEAAXPEAU?$_Tree_node@U?$pair@$$CBIUFileIndexInfo@@@std@@PEAX@2@@Z 000000006400cc30 f i update.obj
 0001:0000bc30       ?_Lrotate@?$_Tree@V?$_Tset_traits@V?$vector@EV?$allocator@E@std@@@std@@U?$less@V?$vector@EV?$allocator@E@std@@@std@@@2@V?$allocator@V?$vector@EV?$allocator@E@std@@@std@@@2@$0A@@std@@@std@@IEAAXPEAU?$_Tree_node@V?$vector@EV?$allocator@E@std@@@std@@PEAX@2@@Z 000000006400cc30 f i open.obj
 0001:0000bc30       ?_Lrotate@?$_Tree@V?$_Tmap_traits@_J_KU?$less@_J@std@@V?$allocator@U?$pair@$$CB_J_K@std@@@2@$0A@@std@@@std@@IEAAXPEAU?$_Tree_node@U?$pair@$$CB_J_K@std@@PEAX@2@@Z 000000006400cc30 f i ui.obj
 0001:0000bc30       ?_Lrotate@?$_Tree@V?$_Tset_traits@IU?$less@I@std@@V?$allocator@I@2@$0A@@std@@@std@@IEAAXPEAU?$_Tree_node@IPEAX@2@@Z 000000006400cc30 f i archive.obj
 0001:0000bc30       ?_Lrotate@?$_Tree@V?$_Tmap_traits@V?$vector@EV?$allocator@E@std@@@std@@UArcFormat@@U?$less@V?$vector@EV?$allocator@E@std@@@std@@@2@V?$allocator@U?$pair@$$CBV?$vector@EV?$allocator@E@std@@@std@@UArcFormat@@@std@@@2@$0A@@std@@@std@@IEAAXPEAU?$_Tree_node@U?$pair@$$CBV?$vector@EV?$allocator@E@std@@@std@@UArcFormat@@@std@@PEAX@2@@Z 000000006400cc30 f i archive.obj
 0001:0000bc30       ?_Lrotate@?$_Tree@V?$_Tset_traits@V?$basic_string@_WU?$char_traits@_W@std@@V?$allocator@_W@2@@std@@U?$less@V?$basic_string@_WU?$char_traits@_W@std@@V?$allocator@_W@2@@std@@@2@V?$allocator@V?$basic_string@_WU?$char_traits@_W@std@@V?$allocator@_W@2@@std@@@2@$0A@@std@@@std@@IEAAXPEAU?$_Tree_node@V?$basic_string@_WU?$char_traits@_W@std@@V?$allocator@_W@2@@std@@PEAX@2@@Z 000000006400cc30 f i plugin.obj
 0001:0000bc30       ?_Lrotate@?$_Tree@V?$_Tmap_traits@IIU?$less@I@std@@V?$allocator@U?$pair@$$CBII@std@@@2@$0A@@std@@@std@@IEAAXPEAU?$_Tree_node@U?$pair@$$CBII@std@@PEAX@2@@Z 000000006400cc30 f i archive.obj
 0001:0000bc30       ?_Lrotate@?$_Tree@V?$_Tset_traits@UDirInfo@?1??make_index@Archive@@QEAAXXZ@U?$less@UDirInfo@?1??make_index@Archive@@QEAAXXZ@@std@@V?$allocator@UDirInfo@?1??make_index@Archive@@QEAAXXZ@@5@$0A@@std@@@std@@IEAAXPEAU?$_Tree_node@UDirInfo@?1??make_index@Archive@@QEAAXXZ@PEAX@2@@Z 000000006400cc30 f i archive.obj
 0001:0000bc90       ?_Erase@?$_Tree@V?$_Tset_traits@UDirInfo@?1??make_index@Archive@@QEAAXXZ@U?$less@UDirInfo@?1??make_index@Archive@@QEAAXXZ@@std@@V?$allocator@UDirInfo@?1??make_index@Archive@@QEAAXXZ@@5@$0A@@std@@@std@@IEAAXPEAU?$_Tree_node@UDirInfo@?1??make_index@Archive@@QEAAXXZ@PEAX@2@@Z 000000006400cc90 f i archive.obj
 0001:0000bc90       ?_Erase@?$_Tree@V?$_Tmap_traits@IUFileIndexInfo@@U?$less@I@std@@V?$allocator@U?$pair@$$CBIUFileIndexInfo@@@std@@@3@$0A@@std@@@std@@IEAAXPEAU?$_Tree_node@U?$pair@$$CBIUFileIndexInfo@@@std@@PEAX@2@@Z 000000006400cc90 f i update.obj
 0001:0000bd90       ?_Buyheadnode@?$_Tree_comp_alloc@V?$_Tmap_traits@IIU?$less@I@std@@V?$allocator@U?$pair@$$CBII@std@@@2@$0A@@std@@@std@@QEAAPEAU?$_Tree_node@U?$pair@$$CBII@std@@PEAX@2@XZ 000000006400cd90 f i archive.obj
 0001:0000bdd0       ?_Erase@?$_Tree@V?$_Tmap_traits@_J_KU?$less@_J@std@@V?$allocator@U?$pair@$$CB_J_K@std@@@2@$0A@@std@@@std@@IEAAXPEAU?$_Tree_node@U?$pair@$$CB_J_K@std@@PEAX@2@@Z 000000006400cdd0 f i ui.obj
 0001:0000bdd0       ?_Erase@?$_Tree@V?$_Tmap_traits@IIU?$less@I@std@@V?$allocator@U?$pair@$$CBII@std@@@2@$0A@@std@@@std@@IEAAXPEAU?$_Tree_node@U?$pair@$$CBII@std@@PEAX@2@@Z 000000006400cdd0 f i archive.obj
 0001:0000bdd0       ?_Erase@?$_Tree@V?$_Tset_traits@IU?$less@I@std@@V?$allocator@I@2@$0A@@std@@@std@@IEAAXPEAU?$_Tree_node@IPEAX@2@@Z 000000006400cdd0 f i archive.obj
 0001:0000be20       ?_Buyheadnode@?$_Tree_comp_alloc@V?$_Tset_traits@IU?$less@I@std@@V?$allocator@I@2@$0A@@std@@@std@@QEAAPEAU?$_Tree_node@IPEAX@2@XZ 000000006400ce20 f i archive.obj
 0001:0000be60       ?allocate@?$allocator@UFarListItem@@@std@@QEAAPEAUFarListItem@@_K@Z 000000006400ce60 f i ui.obj
 0001:0000be60       ?allocate@?$allocator@USfxModule@@@std@@QEAAPEAUSfxModule@@_K@Z 000000006400ce60 f i archive.obj
 0001:0000be60       ?allocate@?$allocator@V?$basic_string@_WU?$char_traits@_W@std@@V?$allocator@_W@2@@std@@@std@@QEAAPEAV?$basic_string@_WU?$char_traits@_W@std@@V?$allocator@_W@2@@2@_K@Z 000000006400ce60 f i plugin.obj
 0001:0000bee0       ?_Buyheadnode@?$_Tree_comp_alloc@V?$_Tmap_traits@V?$vector@EV?$allocator@E@std@@@std@@UArcFormat@@U?$less@V?$vector@EV?$allocator@E@std@@@std@@@2@V?$allocator@U?$pair@$$CBV?$vector@EV?$allocator@E@std@@@std@@UArcFormat@@@std@@@2@$0A@@std@@@std@@QEAAPEAU?$_Tree_node@U?$pair@$$CBV?$vector@EV?$allocator@E@std@@@std@@UArcFormat@@@std@@PEAX@2@XZ 000000006400cee0 f i archive.obj
 0001:0000bf20       ?_Erase@?$_Tree@V?$_Tmap_traits@V?$vector@EV?$allocator@E@std@@@std@@UArcFormat@@U?$less@V?$vector@EV?$allocator@E@std@@@std@@@2@V?$allocator@U?$pair@$$CBV?$vector@EV?$allocator@E@std@@@std@@UArcFormat@@@std@@@2@$0A@@std@@@std@@IEAAXPEAU?$_Tree_node@U?$pair@$$CBV?$vector@EV?$allocator@E@std@@@std@@UArcFormat@@@std@@PEAX@2@@Z 000000006400cf20 f i archive.obj
 0001:0000c000       ?allocate@?$allocator@UCDllCodecInfo@@@std@@QEAAPEAUCDllCodecInfo@@_K@Z 000000006400d000 f i archive.obj
 0001:0000c080       ?allocate@?$allocator@UArcLib@@@std@@QEAAPEAUArcLib@@_K@Z 000000006400d080 f i archive.obj
 0001:0000c100       ?_Buyheadnode@?$_Tree_comp_alloc@V?$_Tmap_traits@V?$basic_string@_WU?$char_traits@_W@std@@V?$allocator@_W@2@@std@@V12@U?$less@V?$basic_string@_WU?$char_traits@_W@std@@V?$allocator@_W@2@@std@@@2@V?$allocator@U?$pair@$$CBV?$basic_string@_WU?$char_traits@_W@std@@V?$allocator@_W@2@@std@@V12@@std@@@2@$0A@@std@@@std@@QEAAPEAU?$_Tree_node@U?$pair@$$CBV?$basic_string@_WU?$char_traits@_W@std@@V?$allocator@_W@2@@std@@V12@@std@@PEAX@2@XZ 000000006400d100 f i archive.obj
 0001:0000c140       ?_Buynode0@?$_List_alloc@U?$_List_base_types@V?$vector@EV?$allocator@E@std@@@std@@V?$allocator@V?$vector@EV?$allocator@E@std@@@std@@@2@@std@@@std@@QEAAPEAU?$_List_node@V?$vector@EV?$allocator@E@std@@@std@@PEAX@2@PEAU32@0@Z 000000006400d140 f i archive.obj
 0001:0000c190       ?_Buynode0@?$_List_alloc@U?$_List_base_types@UIconImage@@V?$allocator@UIconImage@@@std@@@std@@@std@@QEAAPEAU?$_List_node@UIconImage@@PEAX@2@PEAU32@0@Z 000000006400d190 f i rsrc.obj
 0001:0000c190       ?_Buynode0@?$_List_alloc@U?$_List_base_types@UArcEntry@@V?$allocator@UArcEntry@@@std@@@std@@@std@@QEAAPEAU?$_List_node@UArcEntry@@PEAX@2@PEAU32@0@Z 000000006400d190 f i plugin.obj
 0001:0000c190       ?_Buynode0@?$_List_alloc@U?$_List_base_types@V?$basic_string@_WU?$char_traits@_W@std@@V?$allocator@_W@2@@std@@V?$allocator@V?$basic_string@_WU?$char_traits@_W@std@@V?$allocator@_W@2@@std@@@2@@std@@@std@@QEAAPEAU?$_List_node@V?$basic_string@_WU?$char_traits@_W@std@@V?$allocator@_W@2@@std@@PEAX@2@PEAU32@0@Z 000000006400d190 f i archive.obj
 0001:0000c1e0       ??$?8_WU?$char_traits@_W@std@@V?$allocator@_W@1@@std@@YA_NAEBV?$basic_string@_WU?$char_traits@_W@std@@V?$allocator@_W@2@@0@0@Z 000000006400d1e0 f i archive.obj
 0001:0000c220       ??$?H_WU?$char_traits@_W@std@@V?$allocator@_W@1@@std@@YA?AV?$basic_string@_WU?$char_traits@_W@std@@V?$allocator@_W@2@@0@$$QEAV10@PEB_W@Z 000000006400d220 f i archive.obj
 0001:0000c290       ??$?H_WU?$char_traits@_W@std@@V?$allocator@_W@1@@std@@YA?AV?$basic_string@_WU?$char_traits@_W@std@@V?$allocator@_W@2@@0@AEBV10@PEB_W@Z 000000006400d290 f i archive.obj
 0001:0000c370       ??$?9_WU?$char_traits@_W@std@@V?$allocator@_W@1@@std@@YA_NAEBV?$basic_string@_WU?$char_traits@_W@std@@V?$allocator@_W@2@@0@0@Z 000000006400d370 f i archive.obj
 0001:0000c3b0       ??$?H_WU?$char_traits@_W@std@@V?$allocator@_W@1@@std@@YA?AV?$basic_string@_WU?$char_traits@_W@std@@V?$allocator@_W@2@@0@$$QEAV10@0@Z 000000006400d3b0 f i archive.obj
 0001:0000c440       ??$?8_WU?$char_traits@_W@std@@V?$allocator@_W@1@@std@@YA_NAEBV?$basic_string@_WU?$char_traits@_W@std@@V?$allocator@_W@2@@0@PEB_W@Z 000000006400d440 f i archive.obj
 0001:0000c490       ??$for_each@V?$_Vector_iterator@V?$_Vector_val@U?$_Simple_types@UArcFileInfo@@@std@@@std@@@std@@V<lambda_eab59125f452541579e114a311ea59ee>@@@std@@YA?AV<lambda_eab59125f452541579e114a311ea59ee>@@V?$_Vector_iterator@V?$_Vector_val@U?$_Simple_types@UArcFileInfo@@@std@@@std@@@0@0V1@@Z 000000006400d490 f i archive.obj
 0001:0000c500       ??$construct@UCDllCodecInfo@@AEBU1@@?$_Wrap_alloc@V?$allocator@UCDllCodecInfo@@@std@@@std@@QEAAXPEAUCDllCodecInfo@@AEBU2@@Z 000000006400d500 f i archive.obj
 0001:0000c500       ??$construct@UCDllCodecInfo@@AEAU1@@?$_Wrap_alloc@V?$allocator@UCDllCodecInfo@@@std@@@std@@QEAAXPEAUCDllCodecInfo@@AEAU2@@Z 000000006400d500 f i archive.obj
 0001:0000c590       ??$_Copy_unchecked@PEAV?$vector@EV?$allocator@E@std@@@std@@PEAV12@@std@@YAPEAV?$vector@EV?$allocator@E@std@@@0@PEAV10@00@Z 000000006400d590 f i archive.obj
 0001:0000c5e0       ??$assign@V?$_List_const_iterator@V?$_List_val@U?$_List_simple_types@V?$basic_string@_WU?$char_traits@_W@std@@V?$allocator@_W@2@@std@@@std@@@std@@@std@@@?$list@V?$basic_string@_WU?$char_traits@_W@std@@V?$allocator@_W@2@@std@@V?$allocator@V?$basic_string@_WU?$char_traits@_W@std@@V?$allocator@_W@2@@std@@@2@@std@@QEAAXV?$_List_const_iterator@V?$_List_val@U?$_List_simple_types@V?$basic_string@_WU?$char_traits@_W@std@@V?$allocator@_W@2@@std@@@std@@@std@@@1@0@Z 000000006400d5e0 f i archive.obj
 0001:0000c6d0       ??$_Destroy_range@U?$_Wrap_alloc@V?$allocator@UArcFileInfo@@@std@@@std@@@std@@YAXPEAUArcFileInfo@@0AEAU?$_Wrap_alloc@V?$allocator@UArcFileInfo@@@std@@@0@@Z 000000006400d6d0 f i archive.obj
 0001:0000c7b0       ??$_Lbound@V?$vector@EV?$allocator@E@std@@@std@@@?$_Tree@V?$_Tmap_traits@V?$vector@EV?$allocator@E@std@@@std@@UArcFormat@@U?$less@V?$vector@EV?$allocator@E@std@@@std@@@2@V?$allocator@U?$pair@$$CBV?$vector@EV?$allocator@E@std@@@std@@UArcFormat@@@std@@@2@$0A@@std@@@std@@IEBAPEAU?$_Tree_node@U?$pair@$$CBV?$vector@EV?$allocator@E@std@@@std@@UArcFormat@@@std@@PEAX@1@AEBV?$vector@EV?$allocator@E@std@@@1@@Z 000000006400d7b0 f i archive.obj
 0001:0000c840       ??$_Destroy_range@U?$_Wrap_alloc@V?$allocator@V?$vector@EV?$allocator@E@std@@@std@@@std@@@std@@@std@@YAXPEAV?$vector@EV?$allocator@E@std@@@0@0AEAU?$_Wrap_alloc@V?$allocator@V?$vector@EV?$allocator@E@std@@@std@@@std@@@0@@Z 000000006400d840 f i archive.obj
 0001:0000c8f0       ??$_Lbound@V?$basic_string@_WU?$char_traits@_W@std@@V?$allocator@_W@2@@std@@@?$_Tree@V?$_Tmap_traits@V?$basic_string@_WU?$char_traits@_W@std@@V?$allocator@_W@2@@std@@V12@U?$less@V?$basic_string@_WU?$char_traits@_W@std@@V?$allocator@_W@2@@std@@@2@V?$allocator@U?$pair@$$CBV?$basic_string@_WU?$char_traits@_W@std@@V?$allocator@_W@2@@std@@V12@@std@@@2@$0A@@std@@@std@@IEBAPEAU?$_Tree_node@U?$pair@$$CBV?$basic_string@_WU?$char_traits@_W@std@@V?$allocator@_W@2@@std@@V12@@std@@PEAX@1@AEBV?$basic_string@_WU?$char_traits@_W@std@@V?$allocator@_W@2@@1@@Z 000000006400d8f0 f i archive.obj
 0001:0000c9b0       ??$_Copy@U_Copy_tag@?$_Tree@V?$_Tmap_traits@V?$basic_string@_WU?$char_traits@_W@std@@V?$allocator@_W@2@@std@@V12@U?$less@V?$basic_string@_WU?$char_traits@_W@std@@V?$allocator@_W@2@@std@@@2@V?$allocator@U?$pair@$$CBV?$basic_string@_WU?$char_traits@_W@std@@V?$allocator@_W@2@@std@@V12@@std@@@2@$0A@@std@@@std@@@?$_Tree@V?$_Tmap_traits@V?$basic_string@_WU?$char_traits@_W@std@@V?$allocator@_W@2@@std@@V12@U?$less@V?$basic_string@_WU?$char_traits@_W@std@@V?$allocator@_W@2@@std@@@2@V?$allocator@U?$pair@$$CBV?$basic_string@_WU?$char_traits@_W@std@@V?$allocator@_W@2@@std@@V12@@std@@@2@$0A@@std@@@std@@IEAAXAEBV01@U_Copy_tag@01@@Z 000000006400d9b0 f i archive.obj
 0001:0000ca60       ??$_Destroy_range@U?$_Wrap_alloc@V?$allocator@USfxModule@@@std@@@std@@@std@@YAXPEAUSfxModule@@0AEAU?$_Wrap_alloc@V?$allocator@USfxModule@@@std@@@0@@Z 000000006400da60 f i archive.obj
 0001:0000ca60       ??$_Destroy_range@U?$_Wrap_alloc@V?$allocator@V?$basic_string@_WU?$char_traits@_W@std@@V?$allocator@_W@2@@std@@@std@@@std@@@std@@YAXPEAV?$basic_string@_WU?$char_traits@_W@std@@V?$allocator@_W@2@@0@0AEAU?$_Wrap_alloc@V?$allocator@V?$basic_string@_WU?$char_traits@_W@std@@V?$allocator@_W@2@@std@@@std@@@0@@Z 000000006400da60 f i plugin.obj
 0001:0000cb40       ??$_Destroy_range@U?$_Wrap_alloc@V?$allocator@UCDllCodecInfo@@@std@@@std@@@std@@YAXPEAUCDllCodecInfo@@0AEAU?$_Wrap_alloc@V?$allocator@UCDllCodecInfo@@@std@@@0@@Z 000000006400db40 f i archive.obj
 0001:0000cc20       ??$_Destroy_range@U?$_Wrap_alloc@V?$allocator@UArcLib@@@std@@@std@@@std@@YAXPEAUArcLib@@0AEAU?$_Wrap_alloc@V?$allocator@UArcLib@@@std@@@0@@Z 000000006400dc20 f i archive.obj
 0001:0000cd00       ??0?$_Wrap_alloc@V?$allocator@U?$_List_node@V?$basic_string@_WU?$char_traits@_W@std@@V?$allocator@_W@2@@std@@PEAX@std@@@std@@@std@@QEAA@XZ 000000006400dd00 f i archive.obj
 0001:0000cd00       ??0?$_Wrap_alloc@V?$allocator@_W@std@@@std@@QEAA@XZ 000000006400dd00 f i archive.obj
 0001:0000cd00       ?setbuf@?$basic_streambuf@_WU?$char_traits@_W@std@@@std@@MEAAPEAV12@PEA_W_J@Z 000000006400dd00 f i ui.obj
 0001:0000cd00       ??0?$_Wrap_alloc@V?$allocator@E@std@@@std@@QEAA@XZ 000000006400dd00 f i archive.obj
 0001:0000cd10       ?erase@?$list@V?$basic_string@_WU?$char_traits@_W@std@@V?$allocator@_W@2@@std@@V?$allocator@V?$basic_string@_WU?$char_traits@_W@std@@V?$allocator@_W@2@@std@@@2@@std@@QEAA?AV?$_List_iterator@V?$_List_val@U?$_List_simple_types@V?$basic_string@_WU?$char_traits@_W@std@@V?$allocator@_W@2@@std@@@std@@@std@@@2@V?$_List_const_iterator@V?$_List_val@U?$_List_simple_types@V?$basic_string@_WU?$char_traits@_W@std@@V?$allocator@_W@2@@std@@@std@@@std@@@2@0@Z 000000006400dd10 f i archive.obj
 0001:0000ce70       ?reserve@?$basic_string@_WU?$char_traits@_W@std@@V?$allocator@_W@2@@std@@QEAAX_K@Z 000000006400de70 f i archive.obj
 0001:0000cf30       ?_Traits_compare@?$basic_string@_WU?$char_traits@_W@std@@V?$allocator@_W@2@@std@@SAHQEB_W_K01@Z 000000006400df30 f i archive.obj
 0001:0000cfc0       ?replace@?$basic_string@_WU?$char_traits@_W@std@@V?$allocator@_W@2@@std@@QEAAAEAV12@_K0PEB_W0@Z 000000006400dfc0 f i archive.obj
 0001:0000d210       ??$_Assign@PEBE@?$vector@EV?$allocator@E@std@@@std@@QEAAXPEBE0Uforward_iterator_tag@1@@Z 000000006400e210 f i farutils.obj
 0001:0000d210       ??$_Assign@PEAE@?$vector@EV?$allocator@E@std@@@std@@QEAAXPEAE0Uforward_iterator_tag@1@@Z 000000006400e210 f i archive.obj
 0001:0000d2e0       ??$_For_each@V?$_List_unchecked_const_iterator@V?$_List_val@U?$_List_simple_types@UArcEntry@@@std@@@std@@U_Iterator_base0@2@@std@@V<lambda_dd05f9f504e92e24de40f013dea2e14c>@@@std@@YAXV?$_List_unchecked_const_iterator@V?$_List_val@U?$_List_simple_types@UArcEntry@@@std@@@std@@U_Iterator_base0@2@@0@0AEAV<lambda_dd05f9f504e92e24de40f013dea2e14c>@@@Z 000000006400e2e0 f i archive.obj
 0001:0000d4c0       ??$?8DU?$char_traits@D@std@@V?$allocator@D@1@@std@@YA_NAEBV?$basic_string@DU?$char_traits@D@std@@V?$allocator@D@2@@0@PEBD@Z 000000006400e4c0 f i archive.obj
 0001:0000d540       ??$_Insert_nohint@AEBIU_Nil@std@@@?$_Tree@V?$_Tset_traits@IU?$less@I@std@@V?$allocator@I@2@$0A@@std@@@std@@IEAA?AU?$pair@V?$_Tree_const_iterator@V?$_Tree_val@U?$_Tree_simple_types@I@std@@@std@@@std@@_N@1@_NAEBIU_Nil@1@@Z 000000006400e540 f i archive.obj
 0001:0000d690       ??$_For_each@V?$_Tree_unchecked_iterator@V?$_Tree_val@U?$_Tree_simple_types@U?$pair@$$CBV?$vector@EV?$allocator@E@std@@@std@@UArcFormat@@@std@@@std@@@std@@@std@@V<lambda_c4ecf0fbcda54f23bfadf38f78e3812d>@@@std@@YAXV?$_Tree_unchecked_iterator@V?$_Tree_val@U?$_Tree_simple_types@U?$pair@$$CBV?$vector@EV?$allocator@E@std@@@std@@UArcFormat@@@std@@@std@@@std@@@0@0AEAV<lambda_c4ecf0fbcda54f23bfadf38f78e3812d>@@@Z 000000006400e690 f i archive.obj
 0001:0000d830       ??$_Insert_nohint@AEBUDirInfo@?1??make_index@Archive@@QEAAXXZ@U_Nil@std@@@?$_Tree@V?$_Tset_traits@UDirInfo@?1??make_index@Archive@@QEAAXXZ@U?$less@UDirInfo@?1??make_index@Archive@@QEAAXXZ@@std@@V?$allocator@UDirInfo@?1??make_index@Archive@@QEAAXXZ@@5@$0A@@std@@@std@@IEAA?AU?$pair@V?$_Tree_const_iterator@V?$_Tree_val@U?$_Tree_simple_types@UDirInfo@?1??make_index@Archive@@QEAAXXZ@@std@@@std@@@std@@_N@1@_NAEBUDirInfo@?1??make_index@Archive@@QEAAXXZ@U_Nil@1@@Z 000000006400e830 f i archive.obj
 0001:0000da00       ??$_For_each@V?$_Tree_unchecked_const_iterator@V?$_Tree_val@U?$_Tree_simple_types@UDirInfo@?1??make_index@Archive@@QEAAXXZ@@std@@@std@@U_Iterator_base0@2@@std@@V<lambda_68795b540f80605abd8c3a7a8beb9c82>@@@std@@YAXV?$_Tree_unchecked_const_iterator@V?$_Tree_val@U?$_Tree_simple_types@UDirInfo@?1??make_index@Archive@@QEAAXXZ@@std@@@std@@U_Iterator_base0@2@@0@0AEAV<lambda_68795b540f80605abd8c3a7a8beb9c82>@@@Z 000000006400ea00 f i archive.obj
 0001:0000db30       ??$_Sort@PEAI_JV<lambda_3d5a501f4b2f2c9cd202314b8201ca3b>@@@std@@YAXPEAI0_JV<lambda_3d5a501f4b2f2c9cd202314b8201ca3b>@@@Z 000000006400eb30 f i archive.obj
 0001:0000dc60       ??$_Equal_range@PEAIH_JV<lambda_cafdc757b416b8bba68e20792e92369f>@@@std@@YA?AU?$pair@PEAIPEAI@0@PEAI0AEBHV<lambda_cafdc757b416b8bba68e20792e92369f>@@PEA_J@Z 000000006400ec60 f i archive.obj
 0001:0000ddf0       ??$_Equal_range@PEAIH_JV<lambda_3305c378e2773064420fe971b54cb5d7>@@@std@@YA?AU?$pair@PEAIPEAI@0@PEAI0AEBHV<lambda_3305c378e2773064420fe971b54cb5d7>@@PEA_J@Z 000000006400edf0 f i archive.obj
 0001:0000e040       ??$_Try_emplace@AEBV?$vector@EV?$allocator@E@std@@@std@@$$V@?$map@V?$vector@EV?$allocator@E@std@@@std@@UArcFormat@@U?$less@V?$vector@EV?$allocator@E@std@@@std@@@2@V?$allocator@U?$pair@$$CBV?$vector@EV?$allocator@E@std@@@std@@UArcFormat@@@std@@@2@@std@@QEAA?AU?$pair@V?$_Tree_iterator@V?$_Tree_val@U?$_Tree_simple_types@U?$pair@$$CBV?$vector@EV?$allocator@E@std@@@std@@UArcFormat@@@std@@@std@@@std@@@std@@_N@1@AEBV?$vector@EV?$allocator@E@std@@@1@@Z 000000006400f040 f i archive.obj
 0001:0000e100       ??$_Buynode@AEBV?$vector@EV?$allocator@E@std@@@std@@@?$_List_buy@V?$vector@EV?$allocator@E@std@@@std@@V?$allocator@V?$vector@EV?$allocator@E@std@@@std@@@2@@std@@QEAAPEAU?$_List_node@V?$vector@EV?$allocator@E@std@@@std@@PEAX@1@PEAU21@0AEBV?$vector@EV?$allocator@E@std@@@1@@Z 000000006400f100 f i archive.obj
 0001:0000e160       ??$_Buynode@AEBV?$basic_string@_WU?$char_traits@_W@std@@V?$allocator@_W@2@@std@@@?$_List_buy@V?$basic_string@_WU?$char_traits@_W@std@@V?$allocator@_W@2@@std@@V?$allocator@V?$basic_string@_WU?$char_traits@_W@std@@V?$allocator@_W@2@@std@@@2@@std@@QEAAPEAU?$_List_node@V?$basic_string@_WU?$char_traits@_W@std@@V?$allocator@_W@2@@std@@PEAX@1@PEAU21@0AEBV?$basic_string@_WU?$char_traits@_W@std@@V?$allocator@_W@2@@1@@Z 000000006400f160 f i archive.obj
 0001:0000e1e0       ??$_Reusenode@AEBV?$basic_string@_WU?$char_traits@_W@std@@V?$allocator@_W@2@@std@@@?$list@V?$basic_string@_WU?$char_traits@_W@std@@V?$allocator@_W@2@@std@@V?$allocator@V?$basic_string@_WU?$char_traits@_W@std@@V?$allocator@_W@2@@std@@@2@@std@@QEAAXV?$_List_iterator@V?$_List_val@U?$_List_simple_types@V?$basic_string@_WU?$char_traits@_W@std@@V?$allocator@_W@2@@std@@@std@@@std@@@1@AEBV?$basic_string@_WU?$char_traits@_W@std@@V?$allocator@_W@2@@1@@Z 000000006400f1e0 f i archive.obj
 0001:0000e280       ??$_Insert_range@V?$_List_const_iterator@V?$_List_val@U?$_List_simple_types@V?$basic_string@_WU?$char_traits@_W@std@@V?$allocator@_W@2@@std@@@std@@@std@@@std@@@?$list@V?$basic_string@_WU?$char_traits@_W@std@@V?$allocator@_W@2@@std@@V?$allocator@V?$basic_string@_WU?$char_traits@_W@std@@V?$allocator@_W@2@@std@@@2@@std@@QEAAXV?$_List_unchecked_const_iterator@V?$_List_val@U?$_List_simple_types@V?$basic_string@_WU?$char_traits@_W@std@@V?$allocator@_W@2@@std@@@std@@@std@@U_Iterator_base0@2@@1@V?$_List_const_iterator@V?$_List_val@U?$_List_simple_types@V?$basic_string@_WU?$char_traits@_W@std@@V?$allocator@_W@2@@std@@@std@@@std@@@1@1Uforward_iterator_tag@1@@Z 000000006400f280 f i archive.obj
 0001:0000e330       ??$lexicographical_compare@V?$_Vector_const_iterator@V?$_Vector_val@U?$_Simple_types@E@std@@@std@@@std@@V12@@std@@YA_NV?$_Vector_const_iterator@V?$_Vector_val@U?$_Simple_types@E@std@@@std@@@0@000@Z 000000006400f330 f i archive.obj
 0001:0000e380       ??$_Copy_nodes@U_Copy_tag@?$_Tree@V?$_Tmap_traits@V?$basic_string@_WU?$char_traits@_W@std@@V?$allocator@_W@2@@std@@V12@U?$less@V?$basic_string@_WU?$char_traits@_W@std@@V?$allocator@_W@2@@std@@@2@V?$allocator@U?$pair@$$CBV?$basic_string@_WU?$char_traits@_W@std@@V?$allocator@_W@2@@std@@V12@@std@@@2@$0A@@std@@@std@@@?$_Tree@V?$_Tmap_traits@V?$basic_string@_WU?$char_traits@_W@std@@V?$allocator@_W@2@@std@@V12@U?$less@V?$basic_string@_WU?$char_traits@_W@std@@V?$allocator@_W@2@@std@@@2@V?$allocator@U?$pair@$$CBV?$basic_string@_WU?$char_traits@_W@std@@V?$allocator@_W@2@@std@@V12@@std@@@2@$0A@@std@@@std@@IEAAPEAU?$_Tree_node@U?$pair@$$CBV?$basic_string@_WU?$char_traits@_W@std@@V?$allocator@_W@2@@std@@V12@@std@@PEAX@1@PEAU21@0U_Copy_tag@01@@Z 000000006400f380 f i archive.obj
 0001:0000e420       ??1?$pair@V?$vector@EV?$allocator@E@std@@@std@@UArcFormat@@@std@@QEAA@XZ 000000006400f420 f i archive.obj
 0001:0000e440       ??$_Construct@PEBE@?$vector@EV?$allocator@E@std@@@std@@QEAAXPEBE0Uforward_iterator_tag@1@@Z 000000006400f440 f i archive.obj
 0001:0000e4d0       ??$_Insert_at@AEBIU_Nil@std@@@?$_Tree@V?$_Tset_traits@IU?$less@I@std@@V?$allocator@I@2@$0A@@std@@@std@@IEAA?AV?$_Tree_const_iterator@V?$_Tree_val@U?$_Tree_simple_types@I@std@@@std@@@1@_NPEAU?$_Tree_node@IPEAX@1@AEBIU_Nil@1@@Z 000000006400f4d0 f i archive.obj
 0001:0000e7a0       ??$_Insert_at@AEBUDirInfo@?1??make_index@Archive@@QEAAXXZ@U_Nil@std@@@?$_Tree@V?$_Tset_traits@UDirInfo@?1??make_index@Archive@@QEAAXXZ@U?$less@UDirInfo@?1??make_index@Archive@@QEAAXXZ@@std@@V?$allocator@UDirInfo@?1??make_index@Archive@@QEAAXXZ@@5@$0A@@std@@@std@@IEAA?AV?$_Tree_const_iterator@V?$_Tree_val@U?$_Tree_simple_types@UDirInfo@?1??make_index@Archive@@QEAAXXZ@@std@@@std@@@1@_NPEAU?$_Tree_node@UDirInfo@?1??make_index@Archive@@QEAAXXZ@PEAX@1@AEBUDirInfo@?1??make_index@Archive@@QEAAXXZ@U_Nil@1@@Z 000000006400f7a0 f i archive.obj
 0001:0000ea70       ??$_Unguarded_partition@PEAIV<lambda_3d5a501f4b2f2c9cd202314b8201ca3b>@@@std@@YA?AU?$pair@PEAIPEAI@0@PEAI0V<lambda_3d5a501f4b2f2c9cd202314b8201ca3b>@@@Z 000000006400fa70 f i archive.obj
 0001:0000ef60       ??0ArcFormat@@QEAA@AEBU0@@Z 000000006400ff60 f i archive.obj
 0001:0000f030       ??0ArcLib@@QEAA@AEBU0@@Z   0000000064010030 f i archive.obj
 0001:0000f0e0       ??1Attr@@QEAA@XZ           00000000640100e0 f i plugin.obj
 0001:0000f0e0       ??1?$pair@V?$basic_string@_WU?$char_traits@_W@std@@V?$allocator@_W@2@@std@@V12@@std@@QEAA@XZ 00000000640100e0 f i rsrc.obj
 0001:0000f0e0       ??1Param@@QEAA@XZ          00000000640100e0 f i cmdline.obj
 0001:0000f0e0       ??1?$pair@$$CBV?$basic_string@_WU?$char_traits@_W@std@@V?$allocator@_W@2@@std@@V12@@std@@QEAA@XZ 00000000640100e0 f i archive.obj
 0001:0000f180       ??0?$vector@V?$vector@EV?$allocator@E@std@@@std@@V?$allocator@V?$vector@EV?$allocator@E@std@@@std@@@2@@std@@QEAA@AEBV01@@Z 0000000064010180 f i archive.obj
 0001:0000f250       ??0?$_Tree@V?$_Tmap_traits@V?$basic_string@_WU?$char_traits@_W@std@@V?$allocator@_W@2@@std@@V12@U?$less@V?$basic_string@_WU?$char_traits@_W@std@@V?$allocator@_W@2@@std@@@2@V?$allocator@U?$pair@$$CBV?$basic_string@_WU?$char_traits@_W@std@@V?$allocator@_W@2@@std@@V12@@std@@@2@$0A@@std@@@std@@QEAA@AEBV01@AEBV?$allocator@U?$pair@$$CBV?$basic_string@_WU?$char_traits@_W@std@@V?$allocator@_W@2@@std@@V12@@std@@@1@@Z 0000000064010250 f i archive.obj
 0001:0000f320       ??$_Median@PEAIV<lambda_3d5a501f4b2f2c9cd202314b8201ca3b>@@@std@@YAXPEAI00V<lambda_3d5a501f4b2f2c9cd202314b8201ca3b>@@@Z 0000000064010320 f i archive.obj
 0001:0000f400       ??$_Make_heap@PEAI_JIV<lambda_3d5a501f4b2f2c9cd202314b8201ca3b>@@@std@@YAXPEAI0V<lambda_3d5a501f4b2f2c9cd202314b8201ca3b>@@PEA_J0@Z 0000000064010400 f i archive.obj
 0001:0000f540       ??$_Sort_heap@PEAIV<lambda_3d5a501f4b2f2c9cd202314b8201ca3b>@@@std@@YAXPEAI0V<lambda_3d5a501f4b2f2c9cd202314b8201ca3b>@@@Z 0000000064010540 f i archive.obj
 0001:0000f5e0       ??$_Insertion_sort1@PEAIV<lambda_3d5a501f4b2f2c9cd202314b8201ca3b>@@I@std@@YAXPEAI0V<lambda_3d5a501f4b2f2c9cd202314b8201ca3b>@@0@Z 00000000640105e0 f i archive.obj
 0001:0000f770       ??$_Lower_bound@PEAIH_JV<lambda_cafdc757b416b8bba68e20792e92369f>@@@std@@YAPEAIPEAI0AEBHV<lambda_cafdc757b416b8bba68e20792e92369f>@@PEA_J@Z 0000000064010770 f i archive.obj
 0001:0000f890       ??$_Upper_bound@PEAIH_JV<lambda_cafdc757b416b8bba68e20792e92369f>@@@std@@YAPEAIPEAI0AEBHV<lambda_cafdc757b416b8bba68e20792e92369f>@@PEA_J@Z 0000000064010890 f i archive.obj
 0001:0000f9b0       ??$_Buynode@AEBUpiecewise_construct_t@std@@V?$tuple@AEBI@2@V?$tuple@$$V@2@@?$_Tree_comp_alloc@V?$_Tmap_traits@IIU?$less@I@std@@V?$allocator@U?$pair@$$CBII@std@@@2@$0A@@std@@@std@@QEAAPEAU?$_Tree_node@U?$pair@$$CBII@std@@PEAX@1@AEBUpiecewise_construct_t@1@$$QEAV?$tuple@AEBI@1@$$QEAV?$tuple@$$V@1@@Z 00000000640109b0 f i archive.obj
 0001:0000f9f0       ??$_Insert_hint@AEAU?$pair@$$CBII@std@@PEAU?$_Tree_node@U?$pair@$$CBII@std@@PEAX@2@@?$_Tree@V?$_Tmap_traits@IIU?$less@I@std@@V?$allocator@U?$pair@$$CBII@std@@@2@$0A@@std@@@std@@IEAA?AV?$_Tree_iterator@V?$_Tree_val@U?$_Tree_simple_types@U?$pair@$$CBII@std@@@std@@@std@@@1@V?$_Tree_const_iterator@V?$_Tree_val@U?$_Tree_simple_types@U?$pair@$$CBII@std@@@std@@@std@@@1@AEAU?$pair@$$CBII@1@PEAU?$_Tree_node@U?$pair@$$CBII@std@@PEAX@1@@Z 00000000640109f0 f i archive.obj
 0001:0000fc40       ??$_Buynode@AEBUpiecewise_construct_t@std@@V?$tuple@AEBV?$vector@EV?$allocator@E@std@@@std@@@2@V?$tuple@$$V@2@@?$_Tree_comp_alloc@V?$_Tmap_traits@V?$vector@EV?$allocator@E@std@@@std@@UArcFormat@@U?$less@V?$vector@EV?$allocator@E@std@@@std@@@2@V?$allocator@U?$pair@$$CBV?$vector@EV?$allocator@E@std@@@std@@UArcFormat@@@std@@@2@$0A@@std@@@std@@QEAAPEAU?$_Tree_node@U?$pair@$$CBV?$vector@EV?$allocator@E@std@@@std@@UArcFormat@@@std@@PEAX@1@AEBUpiecewise_construct_t@1@$$QEAV?$tuple@AEBV?$vector@EV?$allocator@E@std@@@std@@@1@$$QEAV?$tuple@$$V@1@@Z 0000000064010c40 f i archive.obj
 0001:0000fcb0       ??$_Insert_hint@AEAU?$pair@$$CBV?$vector@EV?$allocator@E@std@@@std@@UArcFormat@@@std@@PEAU?$_Tree_node@U?$pair@$$CBV?$vector@EV?$allocator@E@std@@@std@@UArcFormat@@@std@@PEAX@2@@?$_Tree@V?$_Tmap_traits@V?$vector@EV?$allocator@E@std@@@std@@UArcFormat@@U?$less@V?$vector@EV?$allocator@E@std@@@std@@@2@V?$allocator@U?$pair@$$CBV?$vector@EV?$allocator@E@std@@@std@@UArcFormat@@@std@@@2@$0A@@std@@@std@@IEAA?AV?$_Tree_iterator@V?$_Tree_val@U?$_Tree_simple_types@U?$pair@$$CBV?$vector@EV?$allocator@E@std@@@std@@UArcFormat@@@std@@@std@@@std@@@1@V?$_Tree_const_iterator@V?$_Tree_val@U?$_Tree_simple_types@U?$pair@$$CBV?$vector@EV?$allocator@E@std@@@std@@UArcFormat@@@std@@@std@@@std@@@1@AEAU?$pair@$$CBV?$vector@EV?$allocator@E@std@@@std@@UArcFormat@@@1@PEAU?$_Tree_node@U?$pair@$$CBV?$vector@EV?$allocator@E@std@@@std@@UArcFormat@@@std@@PEAX@1@@Z 0000000064010cb0 f i archive.obj
 0001:0000ff50       ??$_Uninitialized_copy_al_unchecked1@PEAV?$vector@EV?$allocator@E@std@@@std@@PEAV12@V?$allocator@V?$vector@EV?$allocator@E@std@@@std@@@2@@std@@YAPEAV?$vector@EV?$allocator@E@std@@@0@PEAV10@00AEAU?$_Wrap_alloc@V?$allocator@V?$vector@EV?$allocator@E@std@@@std@@@std@@@0@U_General_ptr_iterator_tag@0@@Z 0000000064010f50 f i archive.obj
 0001:0000ff50       ??$_Uninitialized_copy_al_unchecked1@PEBV?$vector@EV?$allocator@E@std@@@std@@PEAV12@V?$allocator@V?$vector@EV?$allocator@E@std@@@std@@@2@@std@@YAPEAV?$vector@EV?$allocator@E@std@@@0@PEBV10@0PEAV10@AEAU?$_Wrap_alloc@V?$allocator@V?$vector@EV?$allocator@E@std@@@std@@@std@@@0@U_General_ptr_iterator_tag@0@@Z 0000000064010f50 f i archive.obj
 0001:0000ffb0       ??$_Buynode@AEBUpiecewise_construct_t@std@@V?$tuple@$$QEAV?$basic_string@_WU?$char_traits@_W@std@@V?$allocator@_W@2@@std@@@2@V?$tuple@$$V@2@@?$_Tree_comp_alloc@V?$_Tmap_traits@V?$basic_string@_WU?$char_traits@_W@std@@V?$allocator@_W@2@@std@@V12@U?$less@V?$basic_string@_WU?$char_traits@_W@std@@V?$allocator@_W@2@@std@@@2@V?$allocator@U?$pair@$$CBV?$basic_string@_WU?$char_traits@_W@std@@V?$allocator@_W@2@@std@@V12@@std@@@2@$0A@@std@@@std@@QEAAPEAU?$_Tree_node@U?$pair@$$CBV?$basic_string@_WU?$char_traits@_W@std@@V?$allocator@_W@2@@std@@V12@@std@@PEAX@1@AEBUpiecewise_construct_t@1@$$QEAV?$tuple@$$QEAV?$basic_string@_WU?$char_traits@_W@std@@V?$allocator@_W@2@@std@@@1@$$QEAV?$tuple@$$V@1@@Z 0000000064010fb0 f i archive.obj
 0001:00010020       ??$_Insert_hint@AEAU?$pair@$$CBV?$basic_string@_WU?$char_traits@_W@std@@V?$allocator@_W@2@@std@@V12@@std@@PEAU?$_Tree_node@U?$pair@$$CBV?$basic_string@_WU?$char_traits@_W@std@@V?$allocator@_W@2@@std@@V12@@std@@PEAX@2@@?$_Tree@V?$_Tmap_traits@V?$basic_string@_WU?$char_traits@_W@std@@V?$allocator@_W@2@@std@@V12@U?$less@V?$basic_string@_WU?$char_traits@_W@std@@V?$allocator@_W@2@@std@@@2@V?$allocator@U?$pair@$$CBV?$basic_string@_WU?$char_traits@_W@std@@V?$allocator@_W@2@@std@@V12@@std@@@2@$0A@@std@@@std@@IEAA?AV?$_Tree_iterator@V?$_Tree_val@U?$_Tree_simple_types@U?$pair@$$CBV?$basic_string@_WU?$char_traits@_W@std@@V?$allocator@_W@2@@std@@V12@@std@@@std@@@std@@@1@V?$_Tree_const_iterator@V?$_Tree_val@U?$_Tree_simple_types@U?$pair@$$CBV?$basic_string@_WU?$char_traits@_W@std@@V?$allocator@_W@2@@std@@V12@@std@@@std@@@std@@@1@AEAU?$pair@$$CBV?$basic_string@_WU?$char_traits@_W@std@@V?$allocator@_W@2@@std@@V12@@1@PEAU?$_Tree_node@U?$pair@$$CBV?$basic_string@_WU?$char_traits@_W@std@@V?$allocator@_W@2@@std@@V12@@std@@PEAX@1@@Z 0000000064011020 f i archive.obj
 0001:000102f0       ??$_Uninitialized_move_al_unchecked1@PEAUArcFileInfo@@PEAU1@V?$allocator@UArcFileInfo@@@std@@@std@@YAPEAUArcFileInfo@@PEAU1@00AEAU?$_Wrap_alloc@V?$allocator@UArcFileInfo@@@std@@@0@U_General_ptr_iterator_tag@0@@Z 00000000640112f0 f i archive.obj
 0001:000103e0       ??$_Buynode@AEAU?$pair@$$CBV?$basic_string@_WU?$char_traits@_W@std@@V?$allocator@_W@2@@std@@V12@@std@@@?$_Tree_comp_alloc@V?$_Tmap_traits@V?$basic_string@_WU?$char_traits@_W@std@@V?$allocator@_W@2@@std@@V12@U?$less@V?$basic_string@_WU?$char_traits@_W@std@@V?$allocator@_W@2@@std@@@2@V?$allocator@U?$pair@$$CBV?$basic_string@_WU?$char_traits@_W@std@@V?$allocator@_W@2@@std@@V12@@std@@@2@$0A@@std@@@std@@QEAAPEAU?$_Tree_node@U?$pair@$$CBV?$basic_string@_WU?$char_traits@_W@std@@V?$allocator@_W@2@@std@@V12@@std@@PEAX@1@AEAU?$pair@$$CBV?$basic_string@_WU?$char_traits@_W@std@@V?$allocator@_W@2@@std@@V12@@1@@Z 00000000640113e0 f i archive.obj
 0001:00010440       ??$_Uninitialized_move_al_unchecked1@PEAUSfxModule@@PEAU1@V?$allocator@USfxModule@@@std@@@std@@YAPEAUSfxModule@@PEAU1@00AEAU?$_Wrap_alloc@V?$allocator@USfxModule@@@std@@@0@U_General_ptr_iterator_tag@0@@Z 0000000064011440 f i archive.obj
 0001:00010440       ??$_Uninitialized_move_al_unchecked1@PEAV?$basic_string@_WU?$char_traits@_W@std@@V?$allocator@_W@2@@std@@PEAV12@V?$allocator@V?$basic_string@_WU?$char_traits@_W@std@@V?$allocator@_W@2@@std@@@2@@std@@YAPEAV?$basic_string@_WU?$char_traits@_W@std@@V?$allocator@_W@2@@0@PEAV10@00AEAU?$_Wrap_alloc@V?$allocator@V?$basic_string@_WU?$char_traits@_W@std@@V?$allocator@_W@2@@std@@@std@@@0@U_General_ptr_iterator_tag@0@@Z 0000000064011440 f i plugin.obj
 0001:00010510       ??$_Uninitialized_move_al_unchecked1@PEAUCDllCodecInfo@@PEAU1@V?$allocator@UCDllCodecInfo@@@std@@@std@@YAPEAUCDllCodecInfo@@PEAU1@00AEAU?$_Wrap_alloc@V?$allocator@UCDllCodecInfo@@@std@@@0@U_General_ptr_iterator_tag@0@@Z 0000000064011510 f i archive.obj
 0001:00010620       ??$_Uninitialized_move_al_unchecked1@PEAUArcLib@@PEAU1@V?$allocator@UArcLib@@@std@@@std@@YAPEAUArcLib@@PEAU1@00AEAU?$_Wrap_alloc@V?$allocator@UArcLib@@@std@@@0@U_General_ptr_iterator_tag@0@@Z 0000000064011620 f i archive.obj
 0001:00010670       ??$_Uninitialized_move_al_unchecked1@PEAV?$vector@EV?$allocator@E@std@@@std@@PEAV12@V?$allocator@V?$vector@EV?$allocator@E@std@@@std@@@2@@std@@YAPEAV?$vector@EV?$allocator@E@std@@@0@PEAV10@00AEAU?$_Wrap_alloc@V?$allocator@V?$vector@EV?$allocator@E@std@@@std@@@std@@@0@U_General_ptr_iterator_tag@0@@Z 0000000064011670 f i archive.obj
 0001:000106d0       ?_Buynode0@?$_Tree_comp_alloc@V?$_Tmap_traits@IIU?$less@I@std@@V?$allocator@U?$pair@$$CBII@std@@@2@$0A@@std@@@std@@QEAAPEAU?$_Tree_node@U?$pair@$$CBII@std@@PEAX@2@XZ 00000000640116d0 f i archive.obj
 0001:00010720       ?_Buynode0@?$_Tree_comp_alloc@V?$_Tmap_traits@V?$vector@EV?$allocator@E@std@@@std@@UArcFormat@@U?$less@V?$vector@EV?$allocator@E@std@@@std@@@2@V?$allocator@U?$pair@$$CBV?$vector@EV?$allocator@E@std@@@std@@UArcFormat@@@std@@@2@$0A@@std@@@std@@QEAAPEAU?$_Tree_node@U?$pair@$$CBV?$vector@EV?$allocator@E@std@@@std@@UArcFormat@@@std@@PEAX@2@XZ 0000000064011720 f i archive.obj
 0001:00010770       ?_Buynode0@?$_Tree_comp_alloc@V?$_Tmap_traits@V?$basic_string@_WU?$char_traits@_W@std@@V?$allocator@_W@2@@std@@V12@U?$less@V?$basic_string@_WU?$char_traits@_W@std@@V?$allocator@_W@2@@std@@@2@V?$allocator@U?$pair@$$CBV?$basic_string@_WU?$char_traits@_W@std@@V?$allocator@_W@2@@std@@V12@@std@@@2@$0A@@std@@@std@@QEAAPEAU?$_Tree_node@U?$pair@$$CBV?$basic_string@_WU?$char_traits@_W@std@@V?$allocator@_W@2@@std@@V12@@std@@PEAX@2@XZ 0000000064011770 f i archive.obj
 0001:000107c0       ??$_Buynode@AEBI@?$_Tree_comp_alloc@V?$_Tset_traits@IU?$less@I@std@@V?$allocator@I@2@$0A@@std@@@std@@QEAAPEAU?$_Tree_node@IPEAX@1@AEBI@Z 00000000640117c0 f i archive.obj
 0001:000107f0       ??$_Buynode@AEBUDirInfo@?1??make_index@Archive@@QEAAXXZ@@?$_Tree_comp_alloc@V?$_Tset_traits@UDirInfo@?1??make_index@Archive@@QEAAXXZ@U?$less@UDirInfo@?1??make_index@Archive@@QEAAXXZ@@std@@V?$allocator@UDirInfo@?1??make_index@Archive@@QEAAXXZ@@5@$0A@@std@@@std@@QEAAPEAU?$_Tree_node@UDirInfo@?1??make_index@Archive@@QEAAXXZ@PEAX@1@AEBUDirInfo@?1??make_index@Archive@@QEAAXXZ@@Z 00000000640117f0 f i archive.obj
 0001:00010880       ??$_Med3@PEAIV<lambda_3d5a501f4b2f2c9cd202314b8201ca3b>@@@std@@YAXPEAI00V<lambda_3d5a501f4b2f2c9cd202314b8201ca3b>@@@Z 0000000064011880 f i archive.obj
 0001:00010a00       ??$_Adjust_heap@PEAI_JIV<lambda_3d5a501f4b2f2c9cd202314b8201ca3b>@@@std@@YAXPEAI_J1$$QEAIV<lambda_3d5a501f4b2f2c9cd202314b8201ca3b>@@@Z 0000000064011a00 f i archive.obj
 0001:00010b10       ??$_Insert_at@AEAU?$pair@$$CBII@std@@PEAU?$_Tree_node@U?$pair@$$CBII@std@@PEAX@2@@?$_Tree@V?$_Tmap_traits@IIU?$less@I@std@@V?$allocator@U?$pair@$$CBII@std@@@2@$0A@@std@@@std@@IEAA?AV?$_Tree_iterator@V?$_Tree_val@U?$_Tree_simple_types@U?$pair@$$CBII@std@@@std@@@std@@@1@_NPEAU?$_Tree_node@U?$pair@$$CBII@std@@PEAX@1@AEAU?$pair@$$CBII@1@1@Z 0000000064011b10 f i archive.obj
 0001:00010db0       ??$_Insert_nohint@AEAU?$pair@$$CBII@std@@PEAU?$_Tree_node@U?$pair@$$CBII@std@@PEAX@2@@?$_Tree@V?$_Tmap_traits@IIU?$less@I@std@@V?$allocator@U?$pair@$$CBII@std@@@2@$0A@@std@@@std@@IEAA?AU?$pair@V?$_Tree_iterator@V?$_Tree_val@U?$_Tree_simple_types@U?$pair@$$CBII@std@@@std@@@std@@@std@@_N@1@_NAEAU?$pair@$$CBII@1@PEAU?$_Tree_node@U?$pair@$$CBII@std@@PEAX@1@@Z 0000000064011db0 f i archive.obj
 0001:00010ef0       ??$_Insert_at@AEAU?$pair@$$CBV?$vector@EV?$allocator@E@std@@@std@@UArcFormat@@@std@@PEAU?$_Tree_node@U?$pair@$$CBV?$vector@EV?$allocator@E@std@@@std@@UArcFormat@@@std@@PEAX@2@@?$_Tree@V?$_Tmap_traits@V?$vector@EV?$allocator@E@std@@@std@@UArcFormat@@U?$less@V?$vector@EV?$allocator@E@std@@@std@@@2@V?$allocator@U?$pair@$$CBV?$vector@EV?$allocator@E@std@@@std@@UArcFormat@@@std@@@2@$0A@@std@@@std@@IEAA?AV?$_Tree_iterator@V?$_Tree_val@U?$_Tree_simple_types@U?$pair@$$CBV?$vector@EV?$allocator@E@std@@@std@@UArcFormat@@@std@@@std@@@std@@@1@_NPEAU?$_Tree_node@U?$pair@$$CBV?$vector@EV?$allocator@E@std@@@std@@UArcFormat@@@std@@PEAX@1@AEAU?$pair@$$CBV?$vector@EV?$allocator@E@std@@@std@@UArcFormat@@@1@1@Z 0000000064011ef0 f i archive.obj
 0001:000111b0       ??$_Insert_nohint@AEAU?$pair@$$CBV?$vector@EV?$allocator@E@std@@@std@@UArcFormat@@@std@@PEAU?$_Tree_node@U?$pair@$$CBV?$vector@EV?$allocator@E@std@@@std@@UArcFormat@@@std@@PEAX@2@@?$_Tree@V?$_Tmap_traits@V?$vector@EV?$allocator@E@std@@@std@@UArcFormat@@U?$less@V?$vector@EV?$allocator@E@std@@@std@@@2@V?$allocator@U?$pair@$$CBV?$vector@EV?$allocator@E@std@@@std@@UArcFormat@@@std@@@2@$0A@@std@@@std@@IEAA?AU?$pair@V?$_Tree_iterator@V?$_Tree_val@U?$_Tree_simple_types@U?$pair@$$CBV?$vector@EV?$allocator@E@std@@@std@@UArcFormat@@@std@@@std@@@std@@@std@@_N@1@_NAEAU?$pair@$$CBV?$vector@EV?$allocator@E@std@@@std@@UArcFormat@@@1@PEAU?$_Tree_node@U?$pair@$$CBV?$vector@EV?$allocator@E@std@@@std@@UArcFormat@@@std@@PEAX@1@@Z 00000000640121b0 f i archive.obj
 0001:000113b0       ??$_Insert_at@AEAU?$pair@$$CBV?$basic_string@_WU?$char_traits@_W@std@@V?$allocator@_W@2@@std@@V12@@std@@PEAU?$_Tree_node@U?$pair@$$CBV?$basic_string@_WU?$char_traits@_W@std@@V?$allocator@_W@2@@std@@V12@@std@@PEAX@2@@?$_Tree@V?$_Tmap_traits@V?$basic_string@_WU?$char_traits@_W@std@@V?$allocator@_W@2@@std@@V12@U?$less@V?$basic_string@_WU?$char_traits@_W@std@@V?$allocator@_W@2@@std@@@2@V?$allocator@U?$pair@$$CBV?$basic_string@_WU?$char_traits@_W@std@@V?$allocator@_W@2@@std@@V12@@std@@@2@$0A@@std@@@std@@IEAA?AV?$_Tree_iterator@V?$_Tree_val@U?$_Tree_simple_types@U?$pair@$$CBV?$basic_string@_WU?$char_traits@_W@std@@V?$allocator@_W@2@@std@@V12@@std@@@std@@@std@@@1@_NPEAU?$_Tree_node@U?$pair@$$CBV?$basic_string@_WU?$char_traits@_W@std@@V?$allocator@_W@2@@std@@V12@@std@@PEAX@1@AEAU?$pair@$$CBV?$basic_string@_WU?$char_traits@_W@std@@V?$allocator@_W@2@@std@@V12@@1@1@Z 00000000640123b0 f i archive.obj
 0001:00011660       ??$_Insert_nohint@AEAU?$pair@$$CBV?$basic_string@_WU?$char_traits@_W@std@@V?$allocator@_W@2@@std@@V12@@std@@PEAU?$_Tree_node@U?$pair@$$CBV?$basic_string@_WU?$char_traits@_W@std@@V?$allocator@_W@2@@std@@V12@@std@@PEAX@2@@?$_Tree@V?$_Tmap_traits@V?$basic_string@_WU?$char_traits@_W@std@@V?$allocator@_W@2@@std@@V12@U?$less@V?$basic_string@_WU?$char_traits@_W@std@@V?$allocator@_W@2@@std@@@2@V?$allocator@U?$pair@$$CBV?$basic_string@_WU?$char_traits@_W@std@@V?$allocator@_W@2@@std@@V12@@std@@@2@$0A@@std@@@std@@IEAA?AU?$pair@V?$_Tree_iterator@V?$_Tree_val@U?$_Tree_simple_types@U?$pair@$$CBV?$basic_string@_WU?$char_traits@_W@std@@V?$allocator@_W@2@@std@@V12@@std@@@std@@@std@@@std@@_N@1@_NAEAU?$pair@$$CBV?$basic_string@_WU?$char_traits@_W@std@@V?$allocator@_W@2@@std@@V12@@1@PEAU?$_Tree_node@U?$pair@$$CBV?$basic_string@_WU?$char_traits@_W@std@@V?$allocator@_W@2@@std@@V12@@std@@PEAX@1@@Z 0000000064012660 f i archive.obj
 0001:00011890       ?_Buynode0@?$_Tree_comp_alloc@V?$_Tset_traits@UDirInfo@?1??make_index@Archive@@QEAAXXZ@U?$less@UDirInfo@?1??make_index@Archive@@QEAAXXZ@@std@@V?$allocator@UDirInfo@?1??make_index@Archive@@QEAAXXZ@@5@$0A@@std@@@std@@QEAAPEAU?$_Tree_node@UDirInfo@?1??make_index@Archive@@QEAAXXZ@PEAX@2@XZ 0000000064012890 f i archive.obj
 0001:000118e0       ?_Buynode0@?$_Tree_comp_alloc@V?$_Tset_traits@IU?$less@I@std@@V?$allocator@I@2@$0A@@std@@@std@@QEAAPEAU?$_Tree_node@IPEAX@2@XZ 00000000640128e0 f i archive.obj
 0001:00011930       ??$_Push_heap@PEAI_JIV<lambda_3d5a501f4b2f2c9cd202314b8201ca3b>@@@std@@YAXPEAI_J1$$QEAIV<lambda_3d5a501f4b2f2c9cd202314b8201ca3b>@@@Z 0000000064012930 f i archive.obj
 0001:00011a30       ??0?$pair@$$CBV?$basic_string@_WU?$char_traits@_W@std@@V?$allocator@_W@2@@std@@V12@@std@@QEAA@AEBU01@@Z 0000000064012a30 f i archive.obj
 0001:00011a30       ??0Attr@@QEAA@AEBU0@@Z     0000000064012a30 f i plugin.obj
 0001:00011ad0       ??0ArcLib@@QEAA@$$QEAU0@@Z 0000000064012ad0 f i archive.obj
 0001:00011b6c       ??_EMyCompressCodecsInfo@@W7EAAPEAXI@Z 0000000064012b6c f i archive.obj
 0001:00011b78       ?Release@ArchiveSubStream@@W7EAAKXZ 0000000064012b78 f i open.obj
 0001:00011b78       ?Release@CachedFileExtractStream@@W7EAAKXZ 0000000064012b78 f i extract.obj
 0001:00011b78       ?Release@ArchiveFileDeleter@@W7EAAKXZ 0000000064012b78 f i delete.obj
 0001:00011b78       ?Release@ArchiveOpenStream@@W7EAAKXZ 0000000064012b78 f i open.obj
 0001:00011b78       ?Release@FileReadStream@@W7EAAKXZ 0000000064012b78 f i update.obj
 0001:00011b78       ?Release@MyCompressCodecsInfo@@W7EAAKXZ 0000000064012b78 f i archive.obj
 0001:00011b78       ?Release@ArchiveFileDeleterStream@@W7EAAKXZ 0000000064012b78 f i delete.obj
 0001:00011b84       ?QueryInterface@MyCompressCodecsInfo@@W7EAAJAEBU_GUID@@PEAPEAX@Z 0000000064012b84 f i archive.obj
 0001:00011b90       ?AddRef@ArchiveOpenStream@@W7EAAKXZ 0000000064012b90 f i open.obj
 0001:00011b90       ?AddRef@FileReadStream@@W7EAAKXZ 0000000064012b90 f i update.obj
 0001:00011b90       ?AddRef@ArchiveFileDeleterStream@@W7EAAKXZ 0000000064012b90 f i delete.obj
 0001:00011b90       ?AddRef@CachedFileExtractStream@@W7EAAKXZ 0000000064012b90 f i extract.obj
 0001:00011b90       ?AddRef@ArchiveSubStream@@W7EAAKXZ 0000000064012b90 f i open.obj
 0001:00011b90       ?AddRef@ArchiveFileDeleter@@W7EAAKXZ 0000000064012b90 f i delete.obj
 0001:00011b90       ?AddRef@MyCompressCodecsInfo@@W7EAAKXZ 0000000064012b90 f i archive.obj
 0001:00011ba0       ?_Assign_rv@?$basic_string@_WU?$char_traits@_W@std@@V?$allocator@_W@2@@std@@QEAAX$$QEAV12@@Z 0000000064012ba0 f i archive.obj
 0001:00011c30       ?erase@?$basic_string@_WU?$char_traits@_W@std@@V?$allocator@_W@2@@std@@QEAAAEAV12@_K0@Z 0000000064012c30 f i archive.obj
 0001:00011ce0       ?assign@?$basic_string@_WU?$char_traits@_W@std@@V?$allocator@_W@2@@std@@QEAAAEAV12@AEBV12@_K1@Z 0000000064012ce0 f i archive.obj
 0001:00011e20       ?allocate@?$allocator@_W@std@@QEAAPEA_W_K@Z 0000000064012e20 f i archive.obj
 0001:00011ea0       ?_Copy@?$basic_string@_WU?$char_traits@_W@std@@V?$allocator@_W@2@@std@@QEAAX_K0@Z 0000000064012ea0 f i archive.obj
 0001:00011fc0       ?assign@?$basic_string@_WU?$char_traits@_W@std@@V?$allocator@_W@2@@std@@QEAAAEAV12@PEB_W_K@Z 0000000064012fc0 f i archive.obj
 0001:00012110       ?deallocate@?$_Wrap_alloc@V?$allocator@_W@std@@@std@@QEAAXPEA_W_K@Z 0000000064013110 f i archive.obj
 0001:00012110       ?deallocate@?$allocator@_W@std@@QEAAXPEA_W_K@Z 0000000064013110 f i archive.obj
 0001:00012180       ?_Tidy@?$basic_string@_WU?$char_traits@_W@std@@V?$allocator@_W@2@@std@@QEAAX_N_K@Z 0000000064013180 f i archive.obj
 0001:00012200       ??1?$basic_string@DU?$char_traits@D@std@@V?$allocator@D@2@@std@@QEAA@XZ 0000000064013200 f i archive.obj
 0001:00012250       ?erase@?$basic_string@DU?$char_traits@D@std@@V?$allocator@D@2@@std@@QEAAAEAV12@_K0@Z 0000000064013250 f i archive.obj
 0001:00012320       ?assign@?$basic_string@DU?$char_traits@D@std@@V?$allocator@D@2@@std@@QEAAAEAV12@AEBV12@_K1@Z 0000000064013320 f i archive.obj
 0001:00012450       ?_Copy@?$basic_string@DU?$char_traits@D@std@@V?$allocator@D@2@@std@@QEAAX_K0@Z 0000000064013450 f i archive.obj
 0001:000125c0       ?_Deallocate@std@@YAXPEAX_K1@Z 00000000640135c0 f i archive.obj
 0001:00012630       ?assign@?$basic_string@DU?$char_traits@D@std@@V?$allocator@D@2@@std@@QEAAAEAV12@PEBD_K@Z 0000000064013630 f i archive.obj
 0001:00012760       ??0Error@@QEAA@AEBV?$basic_string@_WU?$char_traits@_W@std@@V?$allocator@_W@2@@std@@0PEBDH@Z 0000000064013760 f i plugin.obj
 0001:00012830       ??0Error@@QEAA@AEBVexception@std@@@Z 0000000064013830 f i plugin.obj
 0001:00012a70       ?updatable@Archive@@QEBA_NXZ 0000000064013a70 f i plugin.obj
 0001:00012b00       ??0Archive@@QEAA@XZ        0000000064013b00 f i plugin.obj
 0001:00012c30       ??1?$set@V?$basic_string@_WU?$char_traits@_W@std@@V?$allocator@_W@2@@std@@U?$less@V?$basic_string@_WU?$char_traits@_W@std@@V?$allocator@_W@2@@std@@@2@V?$allocator@V?$basic_string@_WU?$char_traits@_W@std@@V?$allocator@_W@2@@std@@@2@@std@@QEAA@XZ 0000000064013c30 f i plugin.obj
 0001:00012c30       ??1?$set@V?$basic_string@_WU?$char_traits@_W@std@@V?$allocator@_W@2@@std@@UItemCompare@?1??show@MultiSelectDialog@@QEAA_NXZ@V?$allocator@V?$basic_string@_WU?$char_traits@_W@std@@V?$allocator@_W@2@@std@@@2@@std@@QEAA@XZ 0000000064013c30 f i ui.obj
 0001:00012c60       ??0Plugin@@QEAA@XZ         0000000064013c60 f i plugin.obj
 0001:00012d30       ?open@Plugin@@SAPEAV1@AEBV?$vector@V?$shared_ptr@VArchive@@@std@@V?$allocator@V?$shared_ptr@VArchive@@@std@@@2@@std@@@Z 0000000064013d30 f i plugin.obj
 0001:00012f50       ?info@Plugin@@QEAAXPEAUOpenPanelInfo@@@Z 0000000064013f50 f i plugin.obj
 0001:00013340       ?set_dir@Plugin@@QEAAXAEBV?$basic_string@_WU?$char_traits@_W@std@@V?$allocator@_W@2@@std@@@Z 0000000064014340 f i plugin.obj
 0001:000136a0       ?list@Plugin@@QEAAXPEAPEAUPluginPanelItem@@PEA_K@Z 00000000640146a0 f i plugin.obj
 0001:000137d0       ?get_separate_dir_path@Plugin@@SA?AV?$basic_string@_WU?$char_traits@_W@std@@V?$allocator@_W@2@@std@@AEBV23@0@Z 00000000640147d0 f i plugin.obj
 0001:00013930       ?extract@Plugin@@QEAAXAEBVPluginPanelItemAccessor@1@AEAV?$basic_string@_WU?$char_traits@_W@std@@V?$allocator@_W@2@@std@@_N_K@Z 0000000064014930 f i plugin.obj
 0001:00014230       ?get_files@Plugin@@QEAAXPEBUPluginPanelItem@@_JHPEAPEB_W_K@Z 0000000064015230 f i plugin.obj
 0001:00014350       ?extract@Plugin@@QEAAXXZ   0000000064015350 f i plugin.obj
 0001:00014590       ?extract@Plugin@@SAXAEBV?$vector@V?$basic_string@_WU?$char_traits@_W@std@@V?$allocator@_W@2@@std@@V?$allocator@V?$basic_string@_WU?$char_traits@_W@std@@V?$allocator@_W@2@@std@@@2@@std@@UExtractOptions@@@Z 0000000064015590 f i plugin.obj
 0001:00014f60       ?bulk_extract@Plugin@@SAXAEBV?$vector@V?$basic_string@_WU?$char_traits@_W@std@@V?$allocator@_W@2@@std@@V?$allocator@V?$basic_string@_WU?$char_traits@_W@std@@V?$allocator@_W@2@@std@@@2@@std@@@Z 0000000064015f60 f i plugin.obj
 0001:00015240       ?cmdline_extract@Plugin@@SAXAEBUExtractCommand@@@Z 0000000064016240 f i plugin.obj
 0001:00015410       ?test_files@Plugin@@QEAAXPEAUPluginPanelItem@@_J_K@Z 0000000064016410 f i plugin.obj
 0001:00015820       ?bulk_test@Plugin@@SAXAEBV?$vector@V?$basic_string@_WU?$char_traits@_W@std@@V?$allocator@_W@2@@std@@V?$allocator@V?$basic_string@_WU?$char_traits@_W@std@@V?$allocator@_W@2@@std@@@2@@std@@@Z 0000000064016820 f i plugin.obj
 0001:00015eb0       ?cmdline_test@Plugin@@SAXAEBUTestCommand@@@Z 0000000064016eb0 f i plugin.obj
 0001:00015f60       ?put_files@Plugin@@QEAAXPEBUPluginPanelItem@@_JHPEB_W_K@Z 0000000064016f60 f i plugin.obj
 0001:00017190       ?create_archive@Plugin@@SAXXZ 0000000064018190 f i plugin.obj
 0001:00017d30       ?cmdline_update@Plugin@@SAXAEBUUpdateCommand@@@Z 0000000064018d30 f i plugin.obj
 0001:00018c60       ?delete_files@Plugin@@QEAAXPEBUPluginPanelItem@@_J_K@Z 0000000064019c60 f i plugin.obj
 0001:00019120       ?create_dir@Plugin@@QEAAXPEAPEB_W_K@Z 000000006401a120 f i plugin.obj
 0001:00019340       ?show_attr@Plugin@@QEAAXXZ 000000006401a340 f i plugin.obj
 0001:00019840       ?close@Plugin@@QEAAXXZ     000000006401a840 f i plugin.obj
 0001:000198e0       ?convert_to_sfx@Plugin@@SAXAEBV?$vector@V?$basic_string@_WU?$char_traits@_W@std@@V?$allocator@_W@2@@std@@V?$allocator@V?$basic_string@_WU?$char_traits@_W@std@@V?$allocator@_W@2@@std@@@2@@std@@@Z 000000006401a8e0 f i plugin.obj
 0001:00019b10       ??1TestCommand@@QEAA@XZ    000000006401ab10 f i plugin.obj
 0001:00019b10       ??1MenuItems@Far@@QEAA@XZ  000000006401ab10 f i plugin.obj
 0001:00019b10       ??1?$vector@V?$basic_string@_WU?$char_traits@_W@std@@V?$allocator@_W@2@@std@@V?$allocator@V?$basic_string@_WU?$char_traits@_W@std@@V?$allocator@_W@2@@std@@@2@@std@@QEAA@XZ 000000006401ab10 f i plugin.obj
 0001:00019b50       ??1ExtractOptions@@QEAA@XZ 000000006401ab50 f i plugin.obj
 0001:00019bf0       ??4ExtractOptions@@QEAAAEAU0@AEBU0@@Z 000000006401abf0 f i plugin.obj
 0001:00019c70       ??1OpenOptions@@QEAA@XZ    000000006401ac70 f i plugin.obj
 0001:00019d20       ??0ExtractOptions@@QEAA@AEBU0@@Z 000000006401ad20 f i plugin.obj
 0001:00019de0       ??1UpdateOptions@@QEAA@XZ  000000006401ade0 f i plugin.obj
 0001:00019e80       ??4SfxOptions@@QEAAAEAU0@AEBU0@@Z 000000006401ae80 f i plugin.obj
 0001:00019f10       ??1PanelItem@Far@@QEAA@XZ  000000006401af10 f i plugin.obj
 0001:00019fc0       ??0UpdateOptions@@QEAA@AEBU0@@Z 000000006401afc0 f i plugin.obj
 0001:0001a0a0       ??0SfxOptions@@QEAA@AEBU0@@Z 000000006401b0a0 f i plugin.obj
 0001:0001a180       ??1SfxOptions@@QEAA@XZ     000000006401b180 f i plugin.obj
 0001:0001a240       ??1ProfileOptions@@QEAA@XZ 000000006401b240 f i plugin.obj
 0001:0001a350       ??4SfxVersionInfo@@QEAAAEAU0@AEBU0@@Z 000000006401b350 f i plugin.obj
 0001:0001a410       ??4SfxInstallConfig@@QEAAAEAU0@AEBU0@@Z 000000006401b410 f i plugin.obj
 0001:0001a4f0       ??0ProfileOptions@@QEAA@AEBU0@@Z 000000006401b4f0 f i plugin.obj
 0001:0001a660       ??0SfxVersionInfo@@QEAA@AEBU0@@Z 000000006401b660 f i plugin.obj
 0001:0001a7d0       ??1SfxVersionInfo@@QEAA@XZ 000000006401b7d0 f i plugin.obj
 0001:0001a950       ??0SfxInstallConfig@@QEAA@AEBU0@@Z 000000006401b950 f i plugin.obj
 0001:0001ab00       ??1SfxInstallConfig@@QEAA@XZ 000000006401bb00 f i plugin.obj
 0001:0001acb0       GetGlobalInfoW             000000006401bcb0 f   plugin.obj
 0001:0001ad30       SetStartupInfoW            000000006401bd30 f   plugin.obj
 0001:0001adb0       GetPluginInfoW             000000006401bdb0 f   plugin.obj
 0001:0001ae90       AnalyseW                   000000006401be90 f   plugin.obj
 0001:0001b8d0       CloseAnalyseW              000000006401c8d0 f   plugin.obj
 0001:0001b930       ??_G?$vector@V?$shared_ptr@VArchive@@@std@@V?$allocator@V?$shared_ptr@VArchive@@@std@@@2@@std@@QEAAPEAXI@Z 000000006401c930 f i plugin.obj
 0001:0001b980       OpenW                      000000006401c980 f   plugin.obj
 0001:0001c530       ??1CommandArgs@@QEAA@XZ    000000006401d530 f i plugin.obj
 0001:0001c580       ??1OpenCommand@@QEAA@XZ    000000006401d580 f i plugin.obj
 0001:0001c590       ??0OpenOptions@@QEAA@$$QEAU0@@Z 000000006401d590 f i plugin.obj
 0001:0001c660       ??1UpdateCommand@@QEAA@XZ  000000006401d660 f i plugin.obj
 0001:0001c710       ??1ExtractCommand@@QEAA@XZ 000000006401d710 f i plugin.obj
 0001:0001c760       ClosePanelW                000000006401d760 f   plugin.obj
 0001:0001c7b0       ??1Plugin@@QEAA@XZ         000000006401d7b0 f i plugin.obj
 0001:0001c970       GetOpenPanelInfoW          000000006401d970 f   plugin.obj
 0001:0001c9c0       SetDirectoryW              000000006401d9c0 f   plugin.obj
 0001:0001ca90       GetFindDataW               000000006401da90 f   plugin.obj
 0001:0001cb00       FreeFindDataW              000000006401db00 f   plugin.obj
 0001:0001cb20       GetFilesW                  000000006401db20 f   plugin.obj
 0001:0001cba0       PutFilesW                  000000006401dba0 f   plugin.obj
 0001:0001cc20       DeleteFilesW               000000006401dc20 f   plugin.obj
 0001:0001cc90       MakeDirectoryW             000000006401dc90 f   plugin.obj
 0001:0001cd00       ProcessHostFileW           000000006401dd00 f   plugin.obj
 0001:0001cea0       ProcessPanelInputW         000000006401dea0 f   plugin.obj
 0001:0001cf30       ConfigureW                 000000006401df30 f   plugin.obj
 0001:0001d410       ??1PluginSettings@@QEAA@XZ 000000006401e410 f i plugin.obj
 0001:0001d520       ?ExitFARW@@YAXPEAUExitInfo@@@Z 000000006401e520 f   plugin.obj
 0001:0001d560       ??1?$shared_ptr@VArchiveFileDeleterProgress@@@std@@QEAA@XZ 000000006401e560 f i delete.obj
 0001:0001d560       ??1?$shared_ptr@V?$set@IU?$less@I@std@@V?$allocator@I@2@@std@@@std@@QEAA@XZ 000000006401e560 f i extract.obj
 0001:0001d560       ??1?$shared_ptr@VFileWriteCache@@@std@@QEAA@XZ 000000006401e560 f i extract.obj
 0001:0001d560       ??1?$shared_ptr@V?$list@UError@@V?$allocator@UError@@@std@@@std@@@std@@QEAA@XZ 000000006401e560 f i plugin.obj
 0001:0001d560       ??1?$shared_ptr@V?$map@IUFileIndexInfo@@U?$less@I@std@@V?$allocator@U?$pair@$$CBIUFileIndexInfo@@@std@@@3@@std@@@std@@QEAA@XZ 000000006401e560 f i update.obj
 0001:0001d560       ??1?$shared_ptr@X@std@@QEAA@XZ 000000006401e560 f i plugin.obj
 0001:0001d560       ??1?$shared_ptr@VArchive@@@std@@QEAA@XZ 000000006401e560 f i plugin.obj
 0001:0001d560       ??1?$shared_ptr@VArchiveUpdateProgress@@@std@@QEAA@XZ 000000006401e560 f i update.obj
 0001:0001d560       ??1?$shared_ptr@W4OverwriteAction@@@std@@QEAA@XZ 000000006401e560 f i extract.obj
 0001:0001d560       ??1?$shared_ptr@_N@std@@QEAA@XZ 000000006401e560 f i extract.obj
 0001:0001d560       ??1?$shared_ptr@VProgressMonitor@@@std@@QEAA@XZ 000000006401e560 f i delete.obj
 0001:0001d560       ??1?$shared_ptr@VExtractProgress@@@std@@QEAA@XZ 000000006401e560 f i extract.obj
 0001:0001d5b0       ??1?$unique_ptr@$$BY0A@EU?$default_delete@$$BY0A@E@std@@@std@@QEAA@XZ 000000006401e5b0 f i farutils.obj
 0001:0001d5b0       ??1?$unique_ptr@$$BY0A@UPluginPanelItem@@U?$default_delete@$$BY0A@UPluginPanelItem@@@std@@@std@@QEAA@XZ 000000006401e5b0 f i plugin.obj
 0001:0001d5c0       ?push_back@?$vector@UInfoPanelLine@@V?$allocator@UInfoPanelLine@@@std@@@std@@QEAAXAEBUInfoPanelLine@@@Z 000000006401e5c0 f i plugin.obj
 0001:0001d680       ??1?$unique_ptr@V?$vector@V?$shared_ptr@VArchive@@@std@@V?$allocator@V?$shared_ptr@VArchive@@@std@@@2@@std@@U?$default_delete@V?$vector@V?$shared_ptr@VArchive@@@std@@V?$allocator@V?$shared_ptr@VArchive@@@std@@@2@@std@@@2@@std@@QEAA@XZ 000000006401e680 f i plugin.obj
 0001:0001d6e0       ??4?$unique_ptr@V?$vector@V?$shared_ptr@VArchive@@@std@@V?$allocator@V?$shared_ptr@VArchive@@@std@@@2@@std@@U?$default_delete@V?$vector@V?$shared_ptr@VArchive@@@std@@V?$allocator@V?$shared_ptr@VArchive@@@std@@@2@@std@@@2@@std@@QEAAAEAV01@$$QEAV01@@Z 000000006401e6e0 f i plugin.obj
 0001:0001d770       ?count@?$_Tree@V?$_Tset_traits@V?$basic_string@_WU?$char_traits@_W@std@@V?$allocator@_W@2@@std@@U?$less@V?$basic_string@_WU?$char_traits@_W@std@@V?$allocator@_W@2@@std@@@2@V?$allocator@V?$basic_string@_WU?$char_traits@_W@std@@V?$allocator@_W@2@@std@@@2@$0A@@std@@@std@@QEBA_KAEBV?$basic_string@_WU?$char_traits@_W@std@@V?$allocator@_W@2@@2@@Z 000000006401e770 f i plugin.obj
 0001:0001d800       ??1?$ComObject@UIArchiveUpdateCallback@@@@QEAA@XZ 000000006401e800 f i update.obj
 0001:0001d800       ??1?$ComObject@UIInStream@@@@QEAA@XZ 000000006401e800 f i open.obj
 0001:0001d800       ??1?$ComObject@UIInArchive@@@@QEAA@XZ 000000006401e800 f i plugin.obj
 0001:0001d800       ??1?$ComObject@UISequentialInStream@@@@QEAA@XZ 000000006401e800 f i open.obj
 0001:0001d800       ??1?$ComObject@UIInArchiveGetStream@@@@QEAA@XZ 000000006401e800 f i open.obj
 0001:0001d800       ??1?$ComObject@UIArchiveExtractCallback@@@@QEAA@XZ 000000006401e800 f i extract.obj
 0001:0001d800       ??1?$ComObject@UIOutArchive@@@@QEAA@XZ 000000006401e800 f i update.obj
 0001:0001d800       ??1?$ComObject@UIArchiveAllowTail@@@@QEAA@XZ 000000006401e800 f i open.obj
 0001:0001d800       ??1?$ComObject@UIOutStream@@@@QEAA@XZ 000000006401e800 f i update.obj
 0001:0001d800       ??1?$ComObject@UISetProperties@@@@QEAA@XZ 000000006401e800 f i update.obj
 0001:0001d830       ??1?$enable_shared_from_this@VArchive@@@std@@IEAA@XZ 000000006401e830 f i plugin.obj
 0001:0001d850       ??4?$shared_ptr@VArchive@@@std@@QEAAAEAV01@AEBV01@@Z 000000006401e850 f i plugin.obj
 0001:0001d8e0       ??1?$vector@IV?$allocator@I@std@@@std@@QEAA@XZ 000000006401e8e0 f i plugin.obj
 0001:0001d8e0       ??1?$_Vb_val@V?$allocator@_N@std@@@std@@QEAA@XZ 000000006401e8e0 f i msearch.obj
 0001:0001d8e0       ??1?$vector@_NV?$allocator@_N@std@@@std@@QEAA@XZ 000000006401e8e0 f i msearch.obj
 0001:0001d920       ??1?$vector@UArcFileInfo@@V?$allocator@UArcFileInfo@@@std@@@std@@QEAA@XZ 000000006401e920 f i plugin.obj
 0001:0001d980       ?count@?$_Tree@V?$_Tmap_traits@V?$vector@EV?$allocator@E@std@@@std@@UArcFormat@@U?$less@V?$vector@EV?$allocator@E@std@@@std@@@2@V?$allocator@U?$pair@$$CBV?$vector@EV?$allocator@E@std@@@std@@UArcFormat@@@std@@@2@$0A@@std@@@std@@QEBA_KAEBV?$vector@EV?$allocator@E@std@@@2@@Z 000000006401e980 f i plugin.obj
 0001:0001da10       ??1?$list@UAttr@@V?$allocator@UAttr@@@std@@@std@@QEAA@XZ 000000006401ea10 f i plugin.obj
 0001:0001da80       ?push_back@?$list@UError@@V?$allocator@UError@@@std@@@std@@QEAAXAEBUError@@@Z 000000006401ea80 f i plugin.obj
 0001:0001daf0       ??0?$list@UError@@V?$allocator@UError@@@std@@@std@@QEAA@XZ 000000006401eaf0 f i plugin.obj
 0001:0001db20       ??4?$list@V?$vector@EV?$allocator@E@std@@@std@@V?$allocator@V?$vector@EV?$allocator@E@std@@@std@@@2@@std@@QEAAAEAV01@$$QEAV01@@Z 000000006401eb20 f i plugin.obj
 0001:0001db70       ?push_back@?$vector@V?$basic_string@_WU?$char_traits@_W@std@@V?$allocator@_W@2@@std@@V?$allocator@V?$basic_string@_WU?$char_traits@_W@std@@V?$allocator@_W@2@@std@@@2@@std@@QEAAX$$QEAV?$basic_string@_WU?$char_traits@_W@std@@V?$allocator@_W@2@@2@@Z 000000006401eb70 f i plugin.obj
 0001:0001dc00       ?_Reserve@?$vector@UInfoPanelLine@@V?$allocator@UInfoPanelLine@@@std@@@std@@IEAAX_K@Z 000000006401ec00 f i plugin.obj
 0001:0001dcd0       ?_Reallocate@?$vector@UInfoPanelLine@@V?$allocator@UInfoPanelLine@@@std@@@std@@IEAAX_K@Z 000000006401ecd0 f i plugin.obj
 0001:0001dd90       ??R?$default_delete@V?$vector@V?$shared_ptr@VArchive@@@std@@V?$allocator@V?$shared_ptr@VArchive@@@std@@@2@@std@@@std@@QEBAXPEAV?$vector@V?$shared_ptr@VArchive@@@std@@V?$allocator@V?$shared_ptr@VArchive@@@std@@@2@@1@@Z 000000006401ed90 f i plugin.obj
 0001:0001ddf0       ?deallocate@?$_Wrap_alloc@V?$allocator@V?$shared_ptr@VArchive@@@std@@@std@@@std@@QEAAXPEAV?$shared_ptr@VArchive@@@2@_K@Z 000000006401edf0 f i plugin.obj
 0001:0001ddf0       ?deallocate@?$_Wrap_alloc@V?$allocator@UStrPos@@@std@@@std@@QEAAXPEAUStrPos@@_K@Z 000000006401edf0 f i open.obj
 0001:0001ddf0       ?deallocate@?$_Wrap_alloc@V?$allocator@USigData@@@std@@@std@@QEAAXPEAUSigData@@_K@Z 000000006401edf0 f i open.obj
 0001:0001de60       ?erase@?$_Tree@V?$_Tset_traits@V?$basic_string@_WU?$char_traits@_W@std@@V?$allocator@_W@2@@std@@U?$less@V?$basic_string@_WU?$char_traits@_W@std@@V?$allocator@_W@2@@std@@@2@V?$allocator@V?$basic_string@_WU?$char_traits@_W@std@@V?$allocator@_W@2@@std@@@2@$0A@@std@@@std@@QEAA?AV?$_Tree_const_iterator@V?$_Tree_val@U?$_Tree_simple_types@V?$basic_string@_WU?$char_traits@_W@std@@V?$allocator@_W@2@@std@@@std@@@std@@@2@V32@0@Z 000000006401ee60 f i plugin.obj
 0001:0001de60       ?erase@?$_Tree@V?$_Tset_traits@V?$basic_string@_WU?$char_traits@_W@std@@V?$allocator@_W@2@@std@@UItemCompare@?1??show@MultiSelectDialog@@QEAA_NXZ@V?$allocator@V?$basic_string@_WU?$char_traits@_W@std@@V?$allocator@_W@2@@std@@@2@$0A@@std@@@std@@QEAA?AV?$_Tree_const_iterator@V?$_Tree_val@U?$_Tree_simple_types@V?$basic_string@_WU?$char_traits@_W@std@@V?$allocator@_W@2@@std@@@std@@@std@@@2@V32@0@Z 000000006401ee60 f i ui.obj
 0001:0001df50       ?_Destroy@?$vector@V?$shared_ptr@VArchive@@@std@@V?$allocator@V?$shared_ptr@VArchive@@@std@@@2@@std@@IEAAXPEAV?$shared_ptr@VArchive@@@2@0@Z 000000006401ef50 f i plugin.obj
 0001:0001dfc0       ?erase@?$_Tree@V?$_Tset_traits@V?$basic_string@_WU?$char_traits@_W@std@@V?$allocator@_W@2@@std@@U?$less@V?$basic_string@_WU?$char_traits@_W@std@@V?$allocator@_W@2@@std@@@2@V?$allocator@V?$basic_string@_WU?$char_traits@_W@std@@V?$allocator@_W@2@@std@@@2@$0A@@std@@@std@@QEAA?AV?$_Tree_const_iterator@V?$_Tree_val@U?$_Tree_simple_types@V?$basic_string@_WU?$char_traits@_W@std@@V?$allocator@_W@2@@std@@@std@@@std@@@2@V32@@Z 000000006401efc0 f i plugin.obj
 0001:0001dfc0       ?erase@?$_Tree@V?$_Tset_traits@V?$basic_string@_WU?$char_traits@_W@std@@V?$allocator@_W@2@@std@@UItemCompare@?1??show@MultiSelectDialog@@QEAA_NXZ@V?$allocator@V?$basic_string@_WU?$char_traits@_W@std@@V?$allocator@_W@2@@std@@@2@$0A@@std@@@std@@QEAA?AV?$_Tree_const_iterator@V?$_Tree_val@U?$_Tree_simple_types@V?$basic_string@_WU?$char_traits@_W@std@@V?$allocator@_W@2@@std@@@std@@@std@@@2@V32@@Z 000000006401efc0 f i ui.obj
 0001:0001e470       ?_Buynode0@?$_List_alloc@U?$_List_base_types@VRsrcId@@V?$allocator@VRsrcId@@@std@@@std@@@std@@QEAAPEAU?$_List_node@VRsrcId@@PEAX@2@PEAU32@0@Z 000000006401f470 f i rsrc.obj
 0001:0001e470       ?_Buynode0@?$_List_alloc@U?$_List_base_types@UIconImageRsrc@@V?$allocator@UIconImageRsrc@@@std@@@std@@@std@@QEAAPEAU?$_List_node@UIconImageRsrc@@PEAX@2@PEAU32@0@Z 000000006401f470 f i rsrc.obj
 0001:0001e470       ?_Buynode0@?$_List_alloc@U?$_List_base_types@UError@@V?$allocator@UError@@@std@@@std@@@std@@QEAAPEAU?$_List_node@UError@@PEAX@2@PEAU32@0@Z 000000006401f470 f i plugin.obj
 0001:0001e4c0       ?_Buynode0@?$_List_alloc@U?$_List_base_types@UAttr@@V?$allocator@UAttr@@@std@@@std@@@std@@QEAAPEAU?$_List_node@UAttr@@PEAX@2@PEAU32@0@Z 000000006401f4c0 f i plugin.obj
 0001:0001e4c0       ?_Buynode0@?$_List_alloc@U?$_List_base_types@UIconRsrc@@V?$allocator@UIconRsrc@@@std@@@std@@@std@@QEAAPEAU?$_List_node@UIconRsrc@@PEAX@2@PEAU32@0@Z 000000006401f4c0 f i rsrc.obj
 0001:0001e510       ?_Buyheadnode@?$_Tree_comp_alloc@V?$_Tset_traits@V?$basic_string@_WU?$char_traits@_W@std@@V?$allocator@_W@2@@std@@U?$less@V?$basic_string@_WU?$char_traits@_W@std@@V?$allocator@_W@2@@std@@@2@V?$allocator@V?$basic_string@_WU?$char_traits@_W@std@@V?$allocator@_W@2@@std@@@2@$0A@@std@@@std@@QEAAPEAU?$_Tree_node@V?$basic_string@_WU?$char_traits@_W@std@@V?$allocator@_W@2@@std@@PEAX@2@XZ 000000006401f510 f i plugin.obj
 0001:0001e510       ?_Buyheadnode@?$_Tree_comp_alloc@V?$_Tset_traits@V?$basic_string@_WU?$char_traits@_W@std@@V?$allocator@_W@2@@std@@UItemCompare@?1??show@MultiSelectDialog@@QEAA_NXZ@V?$allocator@V?$basic_string@_WU?$char_traits@_W@std@@V?$allocator@_W@2@@std@@@2@$0A@@std@@@std@@QEAAPEAU?$_Tree_node@V?$basic_string@_WU?$char_traits@_W@std@@V?$allocator@_W@2@@std@@PEAX@2@XZ 000000006401f510 f i ui.obj
 0001:0001e550       ?_Erase@?$_Tree@V?$_Tset_traits@V?$basic_string@_WU?$char_traits@_W@std@@V?$allocator@_W@2@@std@@U?$less@V?$basic_string@_WU?$char_traits@_W@std@@V?$allocator@_W@2@@std@@@2@V?$allocator@V?$basic_string@_WU?$char_traits@_W@std@@V?$allocator@_W@2@@std@@@2@$0A@@std@@@std@@IEAAXPEAU?$_Tree_node@V?$basic_string@_WU?$char_traits@_W@std@@V?$allocator@_W@2@@std@@PEAX@2@@Z 000000006401f550 f i plugin.obj
 0001:0001e550       ?_Erase@?$_Tree@V?$_Tset_traits@V?$basic_string@_WU?$char_traits@_W@std@@V?$allocator@_W@2@@std@@UItemCompare@?1??show@MultiSelectDialog@@QEAA_NXZ@V?$allocator@V?$basic_string@_WU?$char_traits@_W@std@@V?$allocator@_W@2@@std@@@2@$0A@@std@@@std@@IEAAXPEAU?$_Tree_node@V?$basic_string@_WU?$char_traits@_W@std@@V?$allocator@_W@2@@std@@PEAX@2@@Z 000000006401f550 f i ui.obj
 0001:0001e650       ??$?HDU?$char_traits@D@std@@V?$allocator@D@1@@std@@YA?AV?$basic_string@DU?$char_traits@D@std@@V?$allocator@D@2@@0@$$QEAV10@PEBD@Z 000000006401f650 f i plugin.obj
 0001:0001e6c0       ??$?H_WU?$char_traits@_W@std@@V?$allocator@_W@1@@std@@YA?AV?$basic_string@_WU?$char_traits@_W@std@@V?$allocator@_W@2@@0@PEB_W$$QEAV10@@Z 000000006401f6c0 f i plugin.obj
 0001:0001e730       ??$?H_WU?$char_traits@_W@std@@V?$allocator@_W@1@@std@@YA?AV?$basic_string@_WU?$char_traits@_W@std@@V?$allocator@_W@2@@0@PEB_WAEBV10@@Z 000000006401f730 f i plugin.obj
 0001:0001e810       ??$?H_WU?$char_traits@_W@std@@V?$allocator@_W@1@@std@@YA?AV?$basic_string@_WU?$char_traits@_W@std@@V?$allocator@_W@2@@0@$$QEAV10@AEBV10@@Z 000000006401f810 f i plugin.obj
 0001:0001e870       ??$assign@V?$_List_const_iterator@V?$_List_val@U?$_List_simple_types@UAttr@@@std@@@std@@@std@@@?$list@UAttr@@V?$allocator@UAttr@@@std@@@std@@QEAAXV?$_List_const_iterator@V?$_List_val@U?$_List_simple_types@UAttr@@@std@@@std@@@1@0@Z 000000006401f870 f i plugin.obj
 0001:0001eb20       ??$_Eqrange@V?$basic_string@_WU?$char_traits@_W@std@@V?$allocator@_W@2@@std@@@?$_Tree@V?$_Tset_traits@V?$basic_string@_WU?$char_traits@_W@std@@V?$allocator@_W@2@@std@@U?$less@V?$basic_string@_WU?$char_traits@_W@std@@V?$allocator@_W@2@@std@@@2@V?$allocator@V?$basic_string@_WU?$char_traits@_W@std@@V?$allocator@_W@2@@std@@@2@$0A@@std@@@std@@IEBA?AU?$pair@V?$_Tree_const_iterator@V?$_Tree_val@U?$_Tree_simple_types@V?$basic_string@_WU?$char_traits@_W@std@@V?$allocator@_W@2@@std@@@std@@@std@@@std@@V12@@1@AEBV?$basic_string@_WU?$char_traits@_W@std@@V?$allocator@_W@2@@1@@Z 000000006401fb20 f i plugin.obj
 0001:0001ed20       ??$_Eqrange@V?$vector@EV?$allocator@E@std@@@std@@@?$_Tree@V?$_Tset_traits@V?$vector@EV?$allocator@E@std@@@std@@U?$less@V?$vector@EV?$allocator@E@std@@@std@@@2@V?$allocator@V?$vector@EV?$allocator@E@std@@@std@@@2@$0A@@std@@@std@@IEBA?AU?$pair@V?$_Tree_const_iterator@V?$_Tree_val@U?$_Tree_simple_types@V?$vector@EV?$allocator@E@std@@@std@@@std@@@std@@@std@@V12@@1@AEBV?$vector@EV?$allocator@E@std@@@1@@Z 000000006401fd20 f i open.obj
 0001:0001ed20       ??$_Eqrange@V?$vector@EV?$allocator@E@std@@@std@@@?$_Tree@V?$_Tmap_traits@V?$vector@EV?$allocator@E@std@@@std@@UArcFormat@@U?$less@V?$vector@EV?$allocator@E@std@@@std@@@2@V?$allocator@U?$pair@$$CBV?$vector@EV?$allocator@E@std@@@std@@UArcFormat@@@std@@@2@$0A@@std@@@std@@IEBA?AU?$pair@V?$_Tree_const_iterator@V?$_Tree_val@U?$_Tree_simple_types@U?$pair@$$CBV?$vector@EV?$allocator@E@std@@@std@@UArcFormat@@@std@@@std@@@std@@@std@@V12@@1@AEBV?$vector@EV?$allocator@E@std@@@1@@Z 000000006401fd20 f i plugin.obj
 0001:0001ee70       ?_Reset0@?$_Ptr_base@VArchiveFileDeleterProgress@@@std@@QEAAXPEAVArchiveFileDeleterProgress@@PEAV_Ref_count_base@2@@Z 000000006401fe70 f i delete.obj
 0001:0001ee70       ?_Reset0@?$_Ptr_base@VExtractProgress@@@std@@QEAAXPEAVExtractProgress@@PEAV_Ref_count_base@2@@Z 000000006401fe70 f i extract.obj
 0001:0001ee70       ?_Reset0@?$_Ptr_base@VFileFilter@Far@@@std@@QEAAXPEAVFileFilter@Far@@PEAV_Ref_count_base@2@@Z 000000006401fe70 f i plugin.obj
 0001:0001ee70       ?_Reset0@?$_Ptr_base@V?$list@UError@@V?$allocator@UError@@@std@@@std@@@std@@QEAAXPEAV?$list@UError@@V?$allocator@UError@@@std@@@2@PEAV_Ref_count_base@2@@Z 000000006401fe70 f i plugin.obj
 0001:0001ee70       ?_Reset0@?$_Ptr_base@_N@std@@QEAAXPEA_NPEAV_Ref_count_base@2@@Z 000000006401fe70 f i extract.obj
 0001:0001ee70       ?_Reset0@?$_Ptr_base@VFileWriteCache@@@std@@QEAAXPEAVFileWriteCache@@PEAV_Ref_count_base@2@@Z 000000006401fe70 f i extract.obj
 0001:0001ee70       ?_Reset0@?$_Ptr_base@VArchive@@@std@@QEAAXPEAVArchive@@PEAV_Ref_count_base@2@@Z 000000006401fe70 f i plugin.obj
 0001:0001ee70       ?_Reset0@?$_Ptr_base@VProgressMonitor@@@std@@QEAAXPEAVProgressMonitor@@PEAV_Ref_count_base@2@@Z 000000006401fe70 f i delete.obj
 0001:0001ee70       ?_Reset0@?$_Ptr_base@W4OverwriteAction@@@std@@QEAAXPEAW4OverwriteAction@@PEAV_Ref_count_base@2@@Z 000000006401fe70 f i extract.obj
 0001:0001ee70       ?_Reset0@?$_Ptr_base@VArchiveUpdateProgress@@@std@@QEAAXPEAVArchiveUpdateProgress@@PEAV_Ref_count_base@2@@Z 000000006401fe70 f i update.obj
 0001:0001ee70       ?_Reset0@?$_Ptr_base@V?$map@IUFileIndexInfo@@U?$less@I@std@@V?$allocator@U?$pair@$$CBIUFileIndexInfo@@@std@@@3@@std@@@std@@QEAAXPEAV?$map@IUFileIndexInfo@@U?$less@I@std@@V?$allocator@U?$pair@$$CBIUFileIndexInfo@@@std@@@3@@2@PEAV_Ref_count_base@2@@Z 000000006401fe70 f i update.obj
 0001:0001ee70       ?_Reset0@?$_Ptr_base@V?$set@IU?$less@I@std@@V?$allocator@I@2@@std@@@std@@QEAAXPEAV?$set@IU?$less@I@std@@V?$allocator@I@2@@2@PEAV_Ref_count_base@2@@Z 000000006401fe70 f i extract.obj
 0001:0001ef00       ?insert@?$basic_string@_WU?$char_traits@_W@std@@V?$allocator@_W@2@@std@@QEAAAEAV12@_KPEB_W0@Z 000000006401ff00 f i plugin.obj
 0001:0001f0a0       ??$_Resetp@VArchive@@@?$shared_ptr@VArchive@@@std@@AEAAXPEAVArchive@@@Z 00000000640200a0 f i plugin.obj
 0001:0001f140       ??$_For_each@V?$_List_unchecked_iterator@V?$_List_val@U?$_List_simple_types@UAttr@@@std@@@std@@@std@@V<lambda_86a8d33ac311b4a2cfc33b84ece32f2b>@@@std@@YAXV?$_List_unchecked_iterator@V?$_List_val@U?$_List_simple_types@UAttr@@@std@@@std@@@0@0AEAV<lambda_86a8d33ac311b4a2cfc33b84ece32f2b>@@@Z 0000000064020140 f i plugin.obj
 0001:0001f1d0       ??$_For_each@PEBIV<lambda_851b7cc0be58d17a6ee828b0449e5e44>@@@std@@YAXPEBI0AEAV<lambda_851b7cc0be58d17a6ee828b0449e5e44>@@@Z 00000000640201d0 f i plugin.obj
 0001:0001f3f0       ??$_Resetp@V?$list@UError@@V?$allocator@UError@@@std@@@std@@@?$shared_ptr@V?$list@UError@@V?$allocator@UError@@@std@@@std@@@std@@AEAAXPEAV?$list@UError@@V?$allocator@UError@@@std@@@1@@Z 00000000640203f0 f i plugin.obj
 0001:0001f450       ??$_For_each@PEBIV<lambda_a873ee8a42dfd2f21ebd8ddeb9eb96d1>@@@std@@YAXPEBI0AEAV<lambda_a873ee8a42dfd2f21ebd8ddeb9eb96d1>@@@Z 0000000064020450 f i plugin.obj
 0001:0001f450       ??$_For_each@PEBIV<lambda_fb767953056780317846ffdb3090b9c5>@@@std@@YAXPEBI0AEAV<lambda_fb767953056780317846ffdb3090b9c5>@@@Z 0000000064020450 f i plugin.obj
 0001:0001f530       ??$_For_each@PEBV?$basic_string@_WU?$char_traits@_W@std@@V?$allocator@_W@2@@std@@V<lambda_239cc167ebee522227f2c6fbd5e33295>@@@std@@YAXPEBV?$basic_string@_WU?$char_traits@_W@std@@V?$allocator@_W@2@@0@0AEAV<lambda_239cc167ebee522227f2c6fbd5e33295>@@@Z 0000000064020530 f i plugin.obj
 0001:0001f530       ??$_For_each@PEBV?$basic_string@_WU?$char_traits@_W@std@@V?$allocator@_W@2@@std@@V<lambda_494d2271762fc3d8db53d7b9b930a552>@@@std@@YAXPEBV?$basic_string@_WU?$char_traits@_W@std@@V?$allocator@_W@2@@0@0AEAV<lambda_494d2271762fc3d8db53d7b9b930a552>@@@Z 0000000064020530 f i plugin.obj
 0001:0001f530       ??$_For_each@PEBV?$basic_string@_WU?$char_traits@_W@std@@V?$allocator@_W@2@@std@@V<lambda_4737f99632566dcef10d5c8113b0a0cb>@@@std@@YAXPEBV?$basic_string@_WU?$char_traits@_W@std@@V?$allocator@_W@2@@0@0AEAV<lambda_4737f99632566dcef10d5c8113b0a0cb>@@@Z 0000000064020530 f i plugin.obj
 0001:0001f6a0       ??$_For_each@V?$_List_unchecked_iterator@V?$_List_val@U?$_List_simple_types@V?$basic_string@_WU?$char_traits@_W@std@@V?$allocator@_W@2@@std@@@std@@@std@@@std@@V<lambda_75e0ec245598fe230a872a919082e3a5>@@@std@@YAXV?$_List_unchecked_iterator@V?$_List_val@U?$_List_simple_types@V?$basic_string@_WU?$char_traits@_W@std@@V?$allocator@_W@2@@std@@@std@@@std@@@0@0AEAV<lambda_75e0ec245598fe230a872a919082e3a5>@@@Z 00000000640206a0 f i plugin.obj
 0001:0001f820       ??$_For_each@PEBV?$basic_string@_WU?$char_traits@_W@std@@V?$allocator@_W@2@@std@@V<lambda_5e1b8461969f68c8ba36dded93f27d0d>@@@std@@YAXPEBV?$basic_string@_WU?$char_traits@_W@std@@V?$allocator@_W@2@@0@0AEAV<lambda_5e1b8461969f68c8ba36dded93f27d0d>@@@Z 0000000064020820 f i plugin.obj
 0001:0001fa50       ??$_Resetp@XV<lambda_7e956bde6796eaf49aaf32ba9791a16f>@@@?$shared_ptr@X@std@@AEAAXPEAXV<lambda_7e956bde6796eaf49aaf32ba9791a16f>@@@Z 0000000064020a50 f i plugin.obj
 0001:0001faa0       ??$_Reusenode@AEBUAttr@@@?$list@UAttr@@V?$allocator@UAttr@@@std@@@std@@QEAAXV?$_List_iterator@V?$_List_val@U?$_List_simple_types@UAttr@@@std@@@std@@@1@AEBUAttr@@@Z 0000000064020aa0 f i plugin.obj
 0001:0001faf0       ??$_Buynode@AEBUError@@@?$_List_buy@UError@@V?$allocator@UError@@@std@@@std@@QEAAPEAU?$_List_node@UError@@PEAX@1@PEAU21@0AEBUError@@@Z 0000000064020af0 f i plugin.obj
 0001:0001fb70       ??$_Buynode@V?$basic_string@_WU?$char_traits@_W@std@@V?$allocator@_W@2@@std@@@?$_List_buy@V?$basic_string@_WU?$char_traits@_W@std@@V?$allocator@_W@2@@std@@V?$allocator@V?$basic_string@_WU?$char_traits@_W@std@@V?$allocator@_W@2@@std@@@2@@std@@QEAAPEAU?$_List_node@V?$basic_string@_WU?$char_traits@_W@std@@V?$allocator@_W@2@@std@@PEAX@1@PEAU21@0$$QEAV?$basic_string@_WU?$char_traits@_W@std@@V?$allocator@_W@2@@1@@Z 0000000064020b70 f i plugin.obj
 0001:0001fbd0       ??$destroy@V?$basic_string@_WU?$char_traits@_W@std@@V?$allocator@_W@2@@std@@@?$_Wrap_alloc@V?$allocator@V?$basic_string@_WU?$char_traits@_W@std@@V?$allocator@_W@2@@std@@@std@@@std@@QEAAXPEAV?$basic_string@_WU?$char_traits@_W@std@@V?$allocator@_W@2@@1@@Z 0000000064020bd0 f i plugin.obj
 0001:0001fc20       ??1Archive@@QEAA@XZ        0000000064020c20 f i plugin.obj
 0001:0001fe60       ?_Delete_this@?$_Ref_count@V?$map@IUFileIndexInfo@@U?$less@I@std@@V?$allocator@U?$pair@$$CBIUFileIndexInfo@@@std@@@3@@std@@@std@@EEAAXXZ 0000000064020e60 f i update.obj
 0001:0001fe60       ?_Delete_this@?$_Ref_count@VFileFilter@Far@@@std@@EEAAXXZ 0000000064020e60 f i ui.obj
 0001:0001fe60       ?_Delete_this@?$_Ref_count@_N@std@@EEAAXXZ 0000000064020e60 f i extract.obj
 0001:0001fe60       ?_Delete_this@?$_Ref_count@VArchiveFileDeleterProgress@@@std@@EEAAXXZ 0000000064020e60 f i delete.obj
 0001:0001fe60       ?_Delete_this@?$_Ref_count@V?$set@IU?$less@I@std@@V?$allocator@I@2@@std@@@std@@EEAAXXZ 0000000064020e60 f i extract.obj
 0001:0001fe60       ?_Delete_this@?$_Ref_count@VFileWriteCache@@@std@@EEAAXXZ 0000000064020e60 f i extract.obj
 0001:0001fe60       ?_Delete_this@?$_Ref_count@W4OverwriteAction@@@std@@EEAAXXZ 0000000064020e60 f i extract.obj
 0001:0001fe60       ?_Delete_this@?$_Ref_count@VArchive@@@std@@EEAAXXZ 0000000064020e60 f i plugin.obj
 0001:0001fe60       ?_Delete_this@?$_Ref_count@VExtractProgress@@@std@@EEAAXXZ 0000000064020e60 f i extract.obj
 0001:0001fe60       ?_Delete_this@?$_Ref_count_del@XV<lambda_7e956bde6796eaf49aaf32ba9791a16f>@@@std@@EEAAXXZ 0000000064020e60 f i plugin.obj
 0001:0001fe60       ?_Delete_this@?$_Ref_count@VArchiveUpdateProgress@@@std@@EEAAXXZ 0000000064020e60 f i update.obj
 0001:0001fe60       ?_Delete_this@?$_Ref_count@V?$list@UError@@V?$allocator@UError@@@std@@@std@@@std@@EEAAXXZ 0000000064020e60 f i plugin.obj
 0001:0001fe80       ?_Destroy@?$_Ref_count_del@XV<lambda_7e956bde6796eaf49aaf32ba9791a16f>@@@std@@EEAAXXZ 0000000064020e80 f i plugin.obj
 0001:0001fe90       ?_Get_deleter@?$_Ref_count_del@XV<lambda_7e956bde6796eaf49aaf32ba9791a16f>@@@std@@UEBAPEAXAEBVtype_info@@@Z 0000000064020e90 f i plugin.obj
 0001:0001fec0       ?_Destroy@?$_Ref_count@V?$list@UError@@V?$allocator@UError@@@std@@@std@@@std@@EEAAXXZ 0000000064020ec0 f i plugin.obj
 0001:0001ff00       ?_Destroy@?$_Ref_count@VArchive@@@std@@EEAAXXZ 0000000064020f00 f i plugin.obj
 0001:0001ff30       ??1?$list@UError@@V?$allocator@UError@@@std@@@std@@QEAA@XZ 0000000064020f30 f i plugin.obj
 0001:0001ff50       ??_E?$_Ref_count_del@XV<lambda_7e956bde6796eaf49aaf32ba9791a16f>@@@std@@UEAAPEAXI@Z 0000000064020f50 f i * CIL library *:* CIL module *
 0001:0001ff50       ??_G?$_Ref_count@VArchiveUpdateProgress@@@std@@UEAAPEAXI@Z 0000000064020f50 f i update.obj
 0001:0001ff50       ??_E?$_Ref_count@VArchiveFileDeleterProgress@@@std@@UEAAPEAXI@Z 0000000064020f50 f i * CIL library *:* CIL module *
 0001:0001ff50       ??_G?$_Ref_count@V?$list@UError@@V?$allocator@UError@@@std@@@std@@@std@@UEAAPEAXI@Z 0000000064020f50 f i plugin.obj
 0001:0001ff50       ??_G?$_Ref_count@VFileWriteCache@@@std@@UEAAPEAXI@Z 0000000064020f50 f i extract.obj
 0001:0001ff50       ??_E?$_Ref_count@VArchiveUpdateProgress@@@std@@UEAAPEAXI@Z 0000000064020f50 f i * CIL library *:* CIL module *
 0001:0001ff50       ??_E?$_Ref_count@VFileWriteCache@@@std@@UEAAPEAXI@Z 0000000064020f50 f i * CIL library *:* CIL module *
 0001:0001ff50       ??_G?$_Ref_count@V?$map@IUFileIndexInfo@@U?$less@I@std@@V?$allocator@U?$pair@$$CBIUFileIndexInfo@@@std@@@3@@std@@@std@@UEAAPEAXI@Z 0000000064020f50 f i update.obj
 0001:0001ff50       ??_G?$_Ref_count@VExtractProgress@@@std@@UEAAPEAXI@Z 0000000064020f50 f i extract.obj
 0001:0001ff50       ??_E?$_Ref_count@VExtractProgress@@@std@@UEAAPEAXI@Z 0000000064020f50 f i * CIL library *:* CIL module *
 0001:0001ff50       ??_G?$_Ref_count@V?$set@IU?$less@I@std@@V?$allocator@I@2@@std@@@std@@UEAAPEAXI@Z 0000000064020f50 f i extract.obj
 0001:0001ff50       ??_E?$_Ref_count@V?$set@IU?$less@I@std@@V?$allocator@I@2@@std@@@std@@UEAAPEAXI@Z 0000000064020f50 f i * CIL library *:* CIL module *
 0001:0001ff50       ??_E?$_Ref_count@_N@std@@UEAAPEAXI@Z 0000000064020f50 f i * CIL library *:* CIL module *
 0001:0001ff50       ??_G?$_Ref_count@W4OverwriteAction@@@std@@UEAAPEAXI@Z 0000000064020f50 f i extract.obj
 0001:0001ff50       ??_E?$_Ref_count@V?$list@UError@@V?$allocator@UError@@@std@@@std@@@std@@UEAAPEAXI@Z 0000000064020f50 f i * CIL library *:* CIL module *
 0001:0001ff50       ??_E?$_Ref_count@VArchive@@@std@@UEAAPEAXI@Z 0000000064020f50 f i * CIL library *:* CIL module *
 0001:0001ff50       ??_E?$_Ref_count@VFileFilter@Far@@@std@@UEAAPEAXI@Z 0000000064020f50 f i * CIL library *:* CIL module *
 0001:0001ff50       ??_G?$_Ref_count@VFileFilter@Far@@@std@@UEAAPEAXI@Z 0000000064020f50 f i ui.obj
 0001:0001ff50       ??_G?$_Ref_count@VArchiveFileDeleterProgress@@@std@@UEAAPEAXI@Z 0000000064020f50 f i delete.obj
 0001:0001ff50       ??_E?$_Ref_count@W4OverwriteAction@@@std@@UEAAPEAXI@Z 0000000064020f50 f i * CIL library *:* CIL module *
 0001:0001ff50       ??_G?$_Ref_count@_N@std@@UEAAPEAXI@Z 0000000064020f50 f i extract.obj
 0001:0001ff50       ??_E?$_Ref_count@V?$map@IUFileIndexInfo@@U?$less@I@std@@V?$allocator@U?$pair@$$CBIUFileIndexInfo@@@std@@@3@@std@@@std@@UEAAPEAXI@Z 0000000064020f50 f i * CIL library *:* CIL module *
 0001:0001ff50       ??_G?$_Ref_count@VArchive@@@std@@UEAAPEAXI@Z 0000000064020f50 f i plugin.obj
 0001:0001ff50       ??_G?$_Ref_count_del@XV<lambda_7e956bde6796eaf49aaf32ba9791a16f>@@@std@@UEAAPEAXI@Z 0000000064020f50 f i plugin.obj
 0001:0001ff80       ?clear@?$list@UError@@V?$allocator@UError@@@std@@@std@@QEAAXXZ 0000000064020f80 f i plugin.obj
 0001:00020000       ??$_Construct@PEAD@?$basic_string@_WU?$char_traits@_W@std@@V?$allocator@_W@2@@std@@QEAAXPEAD0Uinput_iterator_tag@1@@Z 0000000064021000 f i plugin.obj
 0001:00020000       ??$_Construct@PEBD@?$basic_string@_WU?$char_traits@_W@std@@V?$allocator@_W@2@@std@@QEAAXPEBD0Uinput_iterator_tag@1@@Z 0000000064021000 f i strutils.obj
 0001:00020110       ??$_Copy_no_deprecate1@V?$_List_unchecked_const_iterator@V?$_List_val@U?$_List_simple_types@V?$basic_string@_WU?$char_traits@_W@std@@V?$allocator@_W@2@@std@@@std@@@std@@U_Iterator_base0@2@@std@@V?$insert_iterator@V?$set@V?$basic_string@_WU?$char_traits@_W@std@@V?$allocator@_W@2@@std@@U?$less@V?$basic_string@_WU?$char_traits@_W@std@@V?$allocator@_W@2@@std@@@2@V?$allocator@V?$basic_string@_WU?$char_traits@_W@std@@V?$allocator@_W@2@@std@@@2@@std@@@2@@std@@YA?AV?$insert_iterator@V?$set@V?$basic_string@_WU?$char_traits@_W@std@@V?$allocator@_W@2@@std@@U?$less@V?$basic_string@_WU?$char_traits@_W@std@@V?$allocator@_W@2@@std@@@2@V?$allocator@V?$basic_string@_WU?$char_traits@_W@std@@V?$allocator@_W@2@@std@@@2@@std@@@0@V?$_List_unchecked_const_iterator@V?$_List_val@U?$_List_simple_types@V?$basic_string@_WU?$char_traits@_W@std@@V?$allocator@_W@2@@std@@@std@@@std@@U_Iterator_base0@2@@0@0V10@Uinput_iterator_tag@0@U_Mutable_iterator_tag@0@@Z 0000000064021110 f i plugin.obj
 0001:00020210       ??$_Buynode@AEBUAttr@@@?$_List_buy@UAttr@@V?$allocator@UAttr@@@std@@@std@@QEAAPEAU?$_List_node@UAttr@@PEAX@1@PEAU21@0AEBUAttr@@@Z 0000000064021210 f i plugin.obj
 0001:00020270       ?_Reset0@?$_Ptr_base@X@std@@QEAAXPEAXPEAV_Ref_count_base@2@@Z 0000000064021270 f i plugin.obj
 0001:00020310       ??$_Insert_hint@AEBV?$basic_string@_WU?$char_traits@_W@std@@V?$allocator@_W@2@@std@@U_Nil@2@@?$_Tree@V?$_Tset_traits@V?$basic_string@_WU?$char_traits@_W@std@@V?$allocator@_W@2@@std@@U?$less@V?$basic_string@_WU?$char_traits@_W@std@@V?$allocator@_W@2@@std@@@2@V?$allocator@V?$basic_string@_WU?$char_traits@_W@std@@V?$allocator@_W@2@@std@@@2@$0A@@std@@@std@@IEAA?AV?$_Tree_const_iterator@V?$_Tree_val@U?$_Tree_simple_types@V?$basic_string@_WU?$char_traits@_W@std@@V?$allocator@_W@2@@std@@@std@@@std@@@1@V21@AEBV?$basic_string@_WU?$char_traits@_W@std@@V?$allocator@_W@2@@1@U_Nil@1@@Z 0000000064021310 f i plugin.obj
 0001:000205f0       ??$_Insert_at@AEBV?$basic_string@_WU?$char_traits@_W@std@@V?$allocator@_W@2@@std@@U_Nil@2@@?$_Tree@V?$_Tset_traits@V?$basic_string@_WU?$char_traits@_W@std@@V?$allocator@_W@2@@std@@U?$less@V?$basic_string@_WU?$char_traits@_W@std@@V?$allocator@_W@2@@std@@@2@V?$allocator@V?$basic_string@_WU?$char_traits@_W@std@@V?$allocator@_W@2@@std@@@2@$0A@@std@@@std@@IEAA?AV?$_Tree_const_iterator@V?$_Tree_val@U?$_Tree_simple_types@V?$basic_string@_WU?$char_traits@_W@std@@V?$allocator@_W@2@@std@@@std@@@std@@@1@_NPEAU?$_Tree_node@V?$basic_string@_WU?$char_traits@_W@std@@V?$allocator@_W@2@@std@@PEAX@1@AEBV?$basic_string@_WU?$char_traits@_W@std@@V?$allocator@_W@2@@1@U_Nil@1@@Z 00000000640215f0 f i plugin.obj
 0001:000208c0       ??$_Insert_nohint@AEBV?$basic_string@_WU?$char_traits@_W@std@@V?$allocator@_W@2@@std@@U_Nil@2@@?$_Tree@V?$_Tset_traits@V?$basic_string@_WU?$char_traits@_W@std@@V?$allocator@_W@2@@std@@U?$less@V?$basic_string@_WU?$char_traits@_W@std@@V?$allocator@_W@2@@std@@@2@V?$allocator@V?$basic_string@_WU?$char_traits@_W@std@@V?$allocator@_W@2@@std@@@2@$0A@@std@@@std@@IEAA?AU?$pair@V?$_Tree_const_iterator@V?$_Tree_val@U?$_Tree_simple_types@V?$basic_string@_WU?$char_traits@_W@std@@V?$allocator@_W@2@@std@@@std@@@std@@@std@@_N@1@_NAEBV?$basic_string@_WU?$char_traits@_W@std@@V?$allocator@_W@2@@1@U_Nil@1@@Z 00000000640218c0 f i plugin.obj
 0001:00020af0       ??$_Buynode@AEAV?$basic_string@_WU?$char_traits@_W@std@@V?$allocator@_W@2@@std@@@?$_Tree_comp_alloc@V?$_Tset_traits@V?$basic_string@_WU?$char_traits@_W@std@@V?$allocator@_W@2@@std@@U?$less@V?$basic_string@_WU?$char_traits@_W@std@@V?$allocator@_W@2@@std@@@2@V?$allocator@V?$basic_string@_WU?$char_traits@_W@std@@V?$allocator@_W@2@@std@@@2@$0A@@std@@@std@@QEAAPEAU?$_Tree_node@V?$basic_string@_WU?$char_traits@_W@std@@V?$allocator@_W@2@@std@@PEAX@1@AEAV?$basic_string@_WU?$char_traits@_W@std@@V?$allocator@_W@2@@1@@Z 0000000064021af0 f i open.obj
 0001:00020af0       ??$_Buynode@AEBV?$basic_string@_WU?$char_traits@_W@std@@V?$allocator@_W@2@@std@@@?$_Tree_comp_alloc@V?$_Tset_traits@V?$basic_string@_WU?$char_traits@_W@std@@V?$allocator@_W@2@@std@@U?$less@V?$basic_string@_WU?$char_traits@_W@std@@V?$allocator@_W@2@@std@@@2@V?$allocator@V?$basic_string@_WU?$char_traits@_W@std@@V?$allocator@_W@2@@std@@@2@$0A@@std@@@std@@QEAAPEAU?$_Tree_node@V?$basic_string@_WU?$char_traits@_W@std@@V?$allocator@_W@2@@std@@PEAX@1@AEBV?$basic_string@_WU?$char_traits@_W@std@@V?$allocator@_W@2@@1@@Z 0000000064021af0 f i plugin.obj
 0001:00020af0       ??$_Buynode@AEBV?$basic_string@_WU?$char_traits@_W@std@@V?$allocator@_W@2@@std@@@?$_Tree_comp_alloc@V?$_Tset_traits@V?$basic_string@_WU?$char_traits@_W@std@@V?$allocator@_W@2@@std@@UItemCompare@?1??show@MultiSelectDialog@@QEAA_NXZ@V?$allocator@V?$basic_string@_WU?$char_traits@_W@std@@V?$allocator@_W@2@@std@@@2@$0A@@std@@@std@@QEAAPEAU?$_Tree_node@V?$basic_string@_WU?$char_traits@_W@std@@V?$allocator@_W@2@@std@@PEAX@1@AEBV?$basic_string@_WU?$char_traits@_W@std@@V?$allocator@_W@2@@1@@Z 0000000064021af0 f i ui.obj
 0001:00020b70       ?_Buynode0@?$_Tree_comp_alloc@V?$_Tset_traits@V?$basic_string@_WU?$char_traits@_W@std@@V?$allocator@_W@2@@std@@UItemCompare@?1??show@MultiSelectDialog@@QEAA_NXZ@V?$allocator@V?$basic_string@_WU?$char_traits@_W@std@@V?$allocator@_W@2@@std@@@2@$0A@@std@@@std@@QEAAPEAU?$_Tree_node@V?$basic_string@_WU?$char_traits@_W@std@@V?$allocator@_W@2@@std@@PEAX@2@XZ 0000000064021b70 f i ui.obj
 0001:00020b70       ?_Buynode0@?$_Tree_comp_alloc@V?$_Tset_traits@V?$basic_string@_WU?$char_traits@_W@std@@V?$allocator@_W@2@@std@@U?$less@V?$basic_string@_WU?$char_traits@_W@std@@V?$allocator@_W@2@@std@@@2@V?$allocator@V?$basic_string@_WU?$char_traits@_W@std@@V?$allocator@_W@2@@std@@@2@$0A@@std@@@std@@QEAAPEAU?$_Tree_node@V?$basic_string@_WU?$char_traits@_W@std@@V?$allocator@_W@2@@std@@PEAX@2@XZ 0000000064021b70 f i plugin.obj
 0001:00020bc0       ??_E_Ref_count_base@std@@UEAAPEAXI@Z 0000000064021bc0 f i * CIL library *:* CIL module *
 0001:00020bc0       ??_G_Ref_count_base@std@@UEAAPEAXI@Z 0000000064021bc0 f i plugin.obj
 0001:00020bf0       ?_Get_deleter@_Ref_count_base@std@@UEBAPEAXAEBVtype_info@@@Z 0000000064021bf0 f i plugin.obj
 0001:00020bf0       ?showmanyc@?$basic_streambuf@_WU?$char_traits@_W@std@@@std@@MEAA_JXZ 0000000064021bf0 f i ui.obj
 0001:00020bf0       ?SetOperationResult@ArchiveFileDeleter@@UEAAJH@Z 0000000064021bf0 f i delete.obj
 0001:00020bf0       ?sync@?$basic_streambuf@_WU?$char_traits@_W@std@@@std@@MEAAHXZ 0000000064021bf0 f i ui.obj
 0001:00020bf0       ?PrepareOperation@ArchiveTester@@UEAAJH@Z 0000000064021bf0 f i test.obj
 0001:00020c00       ?append@?$basic_string@DU?$char_traits@D@std@@V?$allocator@D@2@@std@@QEAAAEAV12@AEBV12@_K1@Z 0000000064021c00 f i plugin.obj
 0001:00020d30       ?append@?$basic_string@DU?$char_traits@D@std@@V?$allocator@D@2@@std@@QEAAAEAV12@PEBD_K@Z 0000000064021d30 f i plugin.obj
 0001:00020e80       ?_Assign_rv@?$basic_string@DU?$char_traits@D@std@@V?$allocator@D@2@@std@@QEAAX$$QEAV12@@Z 0000000064021e80 f i plugin.obj
 0001:00020f00       ?_Decref@_Ref_count_base@std@@QEAAXXZ 0000000064021f00 f i plugin.obj
 0001:00020f40       ?append@?$basic_string@_WU?$char_traits@_W@std@@V?$allocator@_W@2@@std@@QEAAAEAV12@_K_W@Z 0000000064021f40 f i plugin.obj
 0001:00021060       ??1DisableEvents@Dialog@Far@@QEAA@XZ 0000000064022060 f i ui.obj
 0001:000210a0       ?get_path@TempFile@@QEBA?AV?$basic_string@_WU?$char_traits@_W@std@@V?$allocator@_W@2@@std@@XZ 00000000640220a0 f i ui.obj
 0001:000210e0       ??1ProgressSuspend@@QEAA@XZ 00000000640220e0 f i ui.obj
 0001:000210f0       ?codecs@ArcAPI@@SAAEBV?$vector@UCDllCodecInfo@@V?$allocator@UCDllCodecInfo@@@std@@@std@@XZ 00000000640220f0 f i ui.obj
 0001:00021150       ?sfx@ArcAPI@@SAAEBVSfxModules@@XZ 0000000064022150 f i ui.obj
 0001:000211b0       ?get_error_dlg_title@@YA?AV?$basic_string@_WU?$char_traits@_W@std@@V?$allocator@_W@2@@std@@XZ 00000000640221b0 f   ui.obj
 0001:000211e0       ??0ProgressMonitor@@QEAA@AEBV?$basic_string@_WU?$char_traits@_W@std@@V?$allocator@_W@2@@std@@_N1@Z 00000000640221e0 f   ui.obj
 0001:000213b0       ??_EProgressMonitor@@UEAAPEAXI@Z 00000000640223b0 f i * CIL library *:* CIL module *
 0001:000213b0       ??_GProgressMonitor@@UEAAPEAXI@Z 00000000640223b0 f i ui.obj
 0001:000213f0       ??1ProgressMonitor@@UEAA@XZ 00000000640223f0 f   ui.obj
 0001:00021530       ?display@ProgressMonitor@@AEAAXXZ 0000000064022530 f   ui.obj
 0001:00021910       ?update_ui@ProgressMonitor@@QEAAX_N@Z 0000000064022910 f   ui.obj
 0001:00021b10       ?handle_esc@ProgressMonitor@@IEAAXXZ 0000000064022b10 f   ui.obj
 0001:00021d40       ?clean@ProgressMonitor@@QEAAXXZ 0000000064022d40 f   ui.obj
 0001:00021db0       ?get_suffixes@@YAPEAPEB_WH@Z 0000000064022db0 f   ui.obj
 0001:00022020       ?dialog_proc@PasswordDialog@@EEAA_J_J0PEAX@Z 0000000064023020 f i ui.obj
 0001:000220d0       ??0PasswordDialog@@QEAA@AEAV?$basic_string@_WU?$char_traits@_W@std@@V?$allocator@_W@2@@std@@AEBV12@@Z 00000000640230d0 f i ui.obj
 0001:00022200       ?show@PasswordDialog@@QEAA_NXZ 0000000064023200 f i ui.obj
 0001:000223c0       ??1Dialog@Far@@QEAA@XZ     00000000640233c0 f i ui.obj
 0001:00022450       ?password_dialog@@YA_NAEAV?$basic_string@_WU?$char_traits@_W@std@@V?$allocator@_W@2@@std@@AEBV12@@Z 0000000064023450 f   ui.obj
 0001:00022580       ??1OverwriteDialog@@QEAA@XZ 0000000064023580 f i ui.obj
 0001:00022580       ??1PasswordDialog@@QEAA@XZ 0000000064023580 f i ui.obj
 0001:000225e0       ?dialog_proc@OverwriteDialog@@EEAA_J_J0PEAX@Z 00000000640235e0 f i ui.obj
 0001:00022730       ??0OverwriteDialog@@QEAA@AEBV?$basic_string@_WU?$char_traits@_W@std@@V?$allocator@_W@2@@std@@AEBUOverwriteFileInfo@@1W4OverwriteDialogKind@@AEAUOverwriteOptions@@@Z 0000000064023730 f i ui.obj
 0001:000228c0       ?show@OverwriteDialog@@QEAA_NXZ 00000000640238c0 f i ui.obj
 0001:00022fb0       ?overwrite_dialog@@YA_NAEBV?$basic_string@_WU?$char_traits@_W@std@@V?$allocator@_W@2@@std@@AEBUOverwriteFileInfo@@1W4OverwriteDialogKind@@AEAUOverwriteOptions@@@Z 0000000064023fb0 f   ui.obj
 0001:000230f0       ?read_controls@ExtractDialog@@AEAAXAEAUExtractOptions@@@Z 00000000640240f0 f i ui.obj
 0001:000235e0       ?dialog_proc@ExtractDialog@@EEAA_J_J0PEAX@Z 00000000640245e0 f i ui.obj
 0001:00023820       ??0ExtractDialog@@QEAA@AEAUExtractOptions@@@Z 0000000064024820 f i ui.obj
 0001:00023910       ?show@ExtractDialog@@QEAA_NXZ 0000000064024910 f i ui.obj
 0001:00024010       ?extract_dialog@@YA_NAEAUExtractOptions@@@Z 0000000064025010 f   ui.obj
 0001:000240c0       ??1ExtractDialog@@QEAA@XZ  00000000640250c0 f i ui.obj
 0001:000240c0       ??1SettingsDialog@@QEAA@XZ 00000000640250c0 f i ui.obj
 0001:000240c0       ??1AttrDialog@@QEAA@XZ     00000000640250c0 f i ui.obj
 0001:000240d0       ?retry_or_ignore_error@@YAXAEBUError@@AEA_N1AEAV?$list@UError@@V?$allocator@UError@@@std@@@std@@AEAVProgressMonitor@@_N4@Z 00000000640250d0 f   ui.obj
 0001:00024770       ??_D?$basic_ostringstream@_WU?$char_traits@_W@std@@V?$allocator@_W@2@@std@@QEAAXXZ 0000000064025770 f i ui.obj
 0001:000247b0       ?show_error_log@@YAXAEBV?$list@UError@@V?$allocator@UError@@@std@@@std@@@Z 00000000640257b0 f   ui.obj
 0001:00024e30       ??8@YA_NAEBUSfxOptions@@0@Z 0000000064025e30 f   ui.obj
 0001:00025210       ??8@YA_NAEBUProfileOptions@@0@Z 0000000064026210 f   ui.obj
 0001:00025460       ?get_default_ext@UpdateDialog@@AEBA?AV?$basic_string@_WU?$char_traits@_W@std@@V?$allocator@_W@2@@std@@XZ 0000000064026460 f i ui.obj
 0001:00025680       ?change_extension@UpdateDialog@@AEAA_NXZ 0000000064026680 f i ui.obj
 0001:00025b40       ?update_level_list@UpdateDialog@@AEAAXXZ 0000000064026b40 f i ui.obj
 0001:00025e30       ?set_control_state@UpdateDialog@@AEAAXXZ 0000000064026e30 f i ui.obj
 0001:00026380       ?eval_arc_path@UpdateDialog@@AEAA?AV?$basic_string@_WU?$char_traits@_W@std@@V?$allocator@_W@2@@std@@XZ 0000000064027380 f i ui.obj
 0001:000267d0       ?read_controls@UpdateDialog@@AEAAXAEAUUpdateOptions@@@Z 00000000640277d0 f i ui.obj
 0001:00027280       ?write_controls@UpdateDialog@@AEAAXAEBUProfileOptions@@@Z 0000000064028280 f i ui.obj
 0001:00027bf0       ?populate_profile_list@UpdateDialog@@AEAAXXZ 0000000064028bf0 f i ui.obj
 0001:000280f0       ?dialog_proc@UpdateDialog@@EEAA_J_J0PEAX@Z 00000000640290f0 f i ui.obj
 0001:00029090       ??0UpdateDialog@@QEAA@_NAEAUUpdateOptions@@AEAUUpdateProfiles@@@Z 000000006402a090 f i ui.obj
 0001:00029250       ?show@UpdateDialog@@QEAA_NXZ 000000006402a250 f i ui.obj
 0001:0002aab0       ?update_dialog@@YA_N_NAEAUUpdateOptions@@AEAUUpdateProfiles@@@Z 000000006402bab0 f   ui.obj
 0001:0002ab20       ??1UpdateDialog@@QEAA@XZ   000000006402bb20 f i ui.obj
 0001:0002ac90       ?estimate_column_widths@MultiSelectDialog@@AEAA?AV?$vector@_KV?$allocator@_K@std@@@std@@AEBV?$vector@V?$basic_string@_WU?$char_traits@_W@std@@V?$allocator@_W@2@@std@@V?$allocator@V?$basic_string@_WU?$char_traits@_W@std@@V?$allocator@_W@2@@std@@@2@@3@@Z 000000006402bc90 f i ui.obj
 0001:0002b060       ?dialog_proc@MultiSelectDialog@@EEAA_J_J0PEAX@Z 000000006402c060 f i ui.obj
 0001:0002b2d0       ??0MultiSelectDialog@@QEAA@AEBV?$basic_string@_WU?$char_traits@_W@std@@V?$allocator@_W@2@@std@@0AEAV12@@Z 000000006402c2d0 f i ui.obj
 0001:0002b3d0       ??0MultiSelectDialog@@QEAA@AEBV?$basic_string@_WU?$char_traits@_W@std@@V?$allocator@_W@2@@std@@0@Z 000000006402c3d0 f i ui.obj
 0001:0002b4c0       ?show@MultiSelectDialog@@QEAA_NXZ 000000006402c4c0 f i ui.obj
 0001:0002bac0       ?get_masks@FormatLibraryInfoDialog@@AEAA?AV?$basic_string@_WU?$char_traits@_W@std@@V?$allocator@_W@2@@std@@_K@Z 000000006402cac0 f i ui.obj
 0001:0002bd10       ?get_formats@FormatLibraryInfoDialog@@AEAA?AV?$basic_string@_WU?$char_traits@_W@std@@V?$allocator@_W@2@@std@@_K@Z 000000006402cd10 f i ui.obj
 0001:0002c000       ?dialog_proc@FormatLibraryInfoDialog@@EEAA_J_J0PEAX@Z 000000006402d000 f i ui.obj
 0001:0002c3d0       ??0FormatLibraryInfoDialog@@QEAA@XZ 000000006402d3d0 f i ui.obj
 0001:0002c500       ?show@FormatLibraryInfoDialog@@QEAAXXZ 000000006402d500 f i ui.obj
 0001:0002ced0       ??1MultiSelectDialog@@QEAA@XZ 000000006402ded0 f i ui.obj
 0001:0002cf80       ?dialog_proc@SettingsDialog@@EEAA_J_J0PEAX@Z 000000006402df80 f i ui.obj
 0001:0002dbe0       ?generate_masks@SettingsDialog@@AEAAXXZ 000000006402ebe0 f i ui.obj
 0001:0002dd20       ?default_masks@SettingsDialog@@AEAAXXZ 000000006402ed20 f i ui.obj
 0001:0002dda0       ?get_available_formats@SettingsDialog@@AEAA?AV?$basic_string@_WU?$char_traits@_W@std@@V?$allocator@_W@2@@std@@XZ 000000006402eda0 f i ui.obj
 0001:0002df10       ?show@SettingsDialog@@QEAA_NXZ 000000006402ef10 f i ui.obj
 0001:0002ed90       ??1FormatLibraryInfoDialog@@QEAA@XZ 000000006402fd90 f i ui.obj
 0001:0002ee00       ??1Options@@QEAA@XZ        000000006402fe00 f i ui.obj
 0001:0002f070       ?dialog_proc@AttrDialog@@EEAA_J_J0PEAX@Z 0000000064030070 f i ui.obj
 0001:0002f290       ?show@AttrDialog@@QEAAXXZ  0000000064030290 f i ui.obj
 0001:0002f3f0       ??4?$vector@_KV?$allocator@_K@std@@@std@@QEAAAEAV01@AEBV01@@Z 00000000640303f0 f i ui.obj
 0001:0002f540       ??1?$vector@PEB_WV?$allocator@PEB_W@std@@@std@@QEAA@XZ 0000000064030540 f i update.obj
 0001:0002f540       ??1?$vector@_KV?$allocator@_K@std@@@std@@QEAA@XZ 0000000064030540 f i ui.obj
 0001:0002f580       ??1?$vector@UFarListItem@@V?$allocator@UFarListItem@@@std@@@std@@QEAA@XZ 0000000064030580 f i ui.obj
 0001:0002f5c0       ?find@?$_Tree@V?$_Tmap_traits@V?$vector@EV?$allocator@E@std@@@std@@UArcFormat@@U?$less@V?$vector@EV?$allocator@E@std@@@std@@@2@V?$allocator@U?$pair@$$CBV?$vector@EV?$allocator@E@std@@@std@@UArcFormat@@@std@@@2@$0A@@std@@@std@@QEBA?AV?$_Tree_const_iterator@V?$_Tree_val@U?$_Tree_simple_types@U?$pair@$$CBV?$vector@EV?$allocator@E@std@@@std@@UArcFormat@@@std@@@std@@@std@@@2@AEBV?$vector@EV?$allocator@E@std@@@2@@Z 00000000640305c0 f i ui.obj
 0001:0002f650       ?erase@?$vector@UUpdateProfile@@V?$allocator@UUpdateProfile@@@std@@@std@@QEAA?AV?$_Vector_iterator@V?$_Vector_val@U?$_Simple_types@UUpdateProfile@@@std@@@std@@@2@V?$_Vector_const_iterator@V?$_Vector_val@U?$_Simple_types@UUpdateProfile@@@std@@@std@@@2@@Z 0000000064030650 f i ui.obj
 0001:0002f6b0       ?reset@?$shared_ptr@VFileFilter@Far@@@std@@QEAAXXZ 00000000640306b0 f i ui.obj
 0001:0002f720       ??1?$vector@UDialogItem@Far@@V?$allocator@UDialogItem@Far@@@std@@@std@@QEAA@XZ 0000000064030720 f i ui.obj
 0001:0002f770       ?find_last_of@?$basic_string@_WU?$char_traits@_W@std@@V?$allocator@_W@2@@std@@QEBA_KAEBV12@_K@Z 0000000064030770 f i ui.obj
 0001:0002f830       ?find@?$basic_string@_WU?$char_traits@_W@std@@V?$allocator@_W@2@@std@@QEBA_K_W_K@Z 0000000064030830 f i ui.obj
 0001:0002f930       ?str@?$basic_ostringstream@_WU?$char_traits@_W@std@@V?$allocator@_W@2@@std@@QEBA?AV?$basic_string@_WU?$char_traits@_W@std@@V?$allocator@_W@2@@2@XZ 0000000064030930 f i ui.obj
 0001:0002f960       ??1?$basic_ostringstream@_WU?$char_traits@_W@std@@V?$allocator@_W@2@@std@@UEAA@XZ 0000000064030960 f i ui.obj
 0001:0002f9e0       ??0?$basic_ostringstream@_WU?$char_traits@_W@std@@V?$allocator@_W@2@@std@@QEAA@H@Z 00000000640309e0 f i ui.obj
 0001:0002fa90       ?seekpos@?$basic_stringbuf@_WU?$char_traits@_W@std@@V?$allocator@_W@2@@std@@MEAA?AV?$fpos@U_Mbstatet@@@2@V32@H@Z 0000000064030a90 f i ui.obj
 0001:0002fbc0       ?seekoff@?$basic_stringbuf@_WU?$char_traits@_W@std@@V?$allocator@_W@2@@std@@MEAA?AV?$fpos@U_Mbstatet@@@2@_JHH@Z 0000000064030bc0 f i ui.obj
 0001:0002fd80       ?underflow@?$basic_stringbuf@_WU?$char_traits@_W@std@@V?$allocator@_W@2@@std@@MEAAGXZ 0000000064030d80 f i ui.obj
 0001:0002fdf0       ?pbackfail@?$basic_stringbuf@_WU?$char_traits@_W@std@@V?$allocator@_W@2@@std@@MEAAGG@Z 0000000064030df0 f i ui.obj
 0001:0002fe60       ?overflow@?$basic_stringbuf@_WU?$char_traits@_W@std@@V?$allocator@_W@2@@std@@MEAAGG@Z 0000000064030e60 f i ui.obj
 0001:00030130       ??1?$basic_stringbuf@_WU?$char_traits@_W@std@@V?$allocator@_W@2@@std@@UEAA@XZ 0000000064031130 f i ui.obj
 0001:000301b0       ??6?$basic_ostream@_WU?$char_traits@_W@std@@@std@@QEAAAEAV01@H@Z 00000000640311b0 f i ui.obj
 0001:00030360       ??1?$basic_ostream@_WU?$char_traits@_W@std@@@std@@UEAA@XZ 0000000064031360 f i ui.obj
 0001:00030390       ?seekoff@?$basic_streambuf@_WU?$char_traits@_W@std@@@std@@MEAA?AV?$fpos@U_Mbstatet@@@2@_JHH@Z 0000000064031390 f i ui.obj
 0001:00030390       ?seekpos@?$basic_streambuf@_WU?$char_traits@_W@std@@@std@@MEAA?AV?$fpos@U_Mbstatet@@@2@V32@H@Z 0000000064031390 f i ui.obj
 0001:000303b0       ?xsputn@?$basic_streambuf@_WU?$char_traits@_W@std@@@std@@MEAA_JPEB_W_J@Z 00000000640313b0 f i ui.obj
 0001:00030480       ?xsgetn@?$basic_streambuf@_WU?$char_traits@_W@std@@@std@@MEAA_JPEA_W_J@Z 0000000064031480 f i ui.obj
 0001:000305a0       ?uflow@?$basic_streambuf@_WU?$char_traits@_W@std@@@std@@MEAAGXZ 00000000640315a0 f i ui.obj
 0001:000305e0       ?overflow@?$basic_streambuf@_WU?$char_traits@_W@std@@@std@@MEAAGG@Z 00000000640315e0 f i ui.obj
 0001:000305e0       ?pbackfail@?$basic_streambuf@_WU?$char_traits@_W@std@@@std@@MEAAGG@Z 00000000640315e0 f i ui.obj
 0001:000305e0       ?underflow@?$basic_streambuf@_WU?$char_traits@_W@std@@@std@@MEAAGXZ 00000000640315e0 f i ui.obj
 0001:000305f0       ??1?$basic_streambuf@_WU?$char_traits@_W@std@@@std@@UEAA@XZ 00000000640315f0 f i ui.obj
 0001:00030650       ??1?$basic_ios@_WU?$char_traits@_W@std@@@std@@UEAA@XZ 0000000064031650 f i ui.obj
 0001:00030680       ??_E?$basic_ostringstream@_WU?$char_traits@_W@std@@V?$allocator@_W@2@@std@@UEAAPEAXI@Z 0000000064031680 f i * CIL library *:* CIL module *
 0001:00030680       ??_G?$basic_ostringstream@_WU?$char_traits@_W@std@@V?$allocator@_W@2@@std@@UEAAPEAXI@Z 0000000064031680 f i ui.obj
 0001:00030700       ??_E?$basic_stringbuf@_WU?$char_traits@_W@std@@V?$allocator@_W@2@@std@@UEAAPEAXI@Z 0000000064031700 f i * CIL library *:* CIL module *
 0001:00030700       ??_G?$basic_stringbuf@_WU?$char_traits@_W@std@@V?$allocator@_W@2@@std@@UEAAPEAXI@Z 0000000064031700 f i ui.obj
 0001:00030740       ??_E?$basic_ostream@_WU?$char_traits@_W@std@@@std@@UEAAPEAXI@Z 0000000064031740 f i * CIL library *:* CIL module *
 0001:00030740       ??_G?$basic_ostream@_WU?$char_traits@_W@std@@@std@@UEAAPEAXI@Z 0000000064031740 f i ui.obj
 0001:000307c0       ??_G?$basic_streambuf@_WU?$char_traits@_W@std@@@std@@UEAAPEAXI@Z 00000000640317c0 f i ui.obj
 0001:000307c0       ??_E?$basic_streambuf@_WU?$char_traits@_W@std@@@std@@UEAAPEAXI@Z 00000000640317c0 f i * CIL library *:* CIL module *
 0001:00030850       ??_Glocale@std@@QEAAPEAXI@Z 0000000064031850 f i ui.obj
 0001:000308b0       ??_E?$basic_ios@_WU?$char_traits@_W@std@@@std@@UEAAPEAXI@Z 00000000640318b0 f i * CIL library *:* CIL module *
 0001:000308b0       ??_G?$basic_ios@_WU?$char_traits@_W@std@@@std@@UEAAPEAXI@Z 00000000640318b0 f i ui.obj
 0001:00030900       ?deallocate@?$_Wrap_alloc@V?$allocator@PEB_W@std@@@std@@QEAAXPEAPEB_W_K@Z 0000000064031900 f i update.obj
 0001:00030900       ?deallocate@?$_Wrap_alloc@V?$allocator@_K@std@@@std@@QEAAXPEA_K_K@Z 0000000064031900 f i ui.obj
 0001:00030970       ?_Buy@?$vector@_KV?$allocator@_K@std@@@std@@IEAA_N_K@Z 0000000064031970 f i ui.obj
 0001:000309e0       ?_Construct_n@?$vector@_KV?$allocator@_K@std@@@std@@QEAAX_KPEB_K@Z 00000000640319e0 f i ui.obj
 0001:00030a70       ??1sentry@?$basic_ostream@_WU?$char_traits@_W@std@@@std@@QEAA@XZ 0000000064031a70 f i ui.obj
 0001:00030ad0       ??0sentry@?$basic_ostream@_WU?$char_traits@_W@std@@@std@@QEAA@AEAV12@@Z 0000000064031ad0 f i ui.obj
 0001:00030b60       ?do_put@?$num_put@_WV?$ostreambuf_iterator@_WU?$char_traits@_W@std@@@std@@@std@@MEBA?AV?$ostreambuf_iterator@_WU?$char_traits@_W@std@@@2@V32@AEAVios_base@2@_WPEBX@Z 0000000064031b60 f i ui.obj
 0001:00030c00       ?do_put@?$num_put@_WV?$ostreambuf_iterator@_WU?$char_traits@_W@std@@@std@@@std@@MEBA?AV?$ostreambuf_iterator@_WU?$char_traits@_W@std@@@2@V32@AEAVios_base@2@_WO@Z 0000000064031c00 f i ui.obj
 0001:00030e40       ?do_put@?$num_put@_WV?$ostreambuf_iterator@_WU?$char_traits@_W@std@@@std@@@std@@MEBA?AV?$ostreambuf_iterator@_WU?$char_traits@_W@std@@@2@V32@AEAVios_base@2@_WN@Z 0000000064031e40 f i ui.obj
 0001:00031080       ?do_put@?$num_put@_WV?$ostreambuf_iterator@_WU?$char_traits@_W@std@@@std@@@std@@MEBA?AV?$ostreambuf_iterator@_WU?$char_traits@_W@std@@@2@V32@AEAVios_base@2@_W_K@Z 0000000064032080 f i ui.obj
 0001:00031180       ?do_put@?$num_put@_WV?$ostreambuf_iterator@_WU?$char_traits@_W@std@@@std@@@std@@MEBA?AV?$ostreambuf_iterator@_WU?$char_traits@_W@std@@@2@V32@AEAVios_base@2@_W_J@Z 0000000064032180 f i ui.obj
 0001:00031280       ?do_put@?$num_put@_WV?$ostreambuf_iterator@_WU?$char_traits@_W@std@@@std@@@std@@MEBA?AV?$ostreambuf_iterator@_WU?$char_traits@_W@std@@@2@V32@AEAVios_base@2@_WK@Z 0000000064032280 f i ui.obj
 0001:00031380       ?do_put@?$num_put@_WV?$ostreambuf_iterator@_WU?$char_traits@_W@std@@@std@@@std@@MEBA?AV?$ostreambuf_iterator@_WU?$char_traits@_W@std@@@2@V32@AEAVios_base@2@_WJ@Z 0000000064032380 f i ui.obj
 0001:00031480       ?do_put@?$num_put@_WV?$ostreambuf_iterator@_WU?$char_traits@_W@std@@@std@@@std@@MEBA?AV?$ostreambuf_iterator@_WU?$char_traits@_W@std@@@2@V32@AEAVios_base@2@_W_N@Z 0000000064032480 f i ui.obj
 0001:00031800       ?rfind@?$basic_string@_WU?$char_traits@_W@std@@V?$allocator@_W@2@@std@@QEBA_KPEB_W_K1@Z 0000000064032800 f i ui.obj
 0001:000318d0       ?find@?$basic_string@_WU?$char_traits@_W@std@@V?$allocator@_W@2@@std@@QEBA_KPEB_W_K1@Z 00000000640328d0 f i ui.obj
 0001:000319f0       ?_Tidy@?$basic_stringbuf@_WU?$char_traits@_W@std@@V?$allocator@_W@2@@std@@IEAAXXZ 00000000640329f0 f i ui.obj
 0001:00031a80       ?str@?$basic_stringbuf@_WU?$char_traits@_W@std@@V?$allocator@_W@2@@std@@QEBA?AV?$basic_string@_WU?$char_traits@_W@std@@V?$allocator@_W@2@@2@XZ 0000000064032a80 f i ui.obj
 0001:00031b80       ??0?$basic_ostream@_WU?$char_traits@_W@std@@@std@@QEAA@PEAV?$basic_streambuf@_WU?$char_traits@_W@std@@@1@_N@Z 0000000064032b80 f i ui.obj
 0001:00031c30       ?_Pnavail@?$basic_streambuf@_WU?$char_traits@_W@std@@@std@@IEBA_JXZ 0000000064032c30 f i ui.obj
 0001:00031c50       ?_Gnavail@?$basic_streambuf@_WU?$char_traits@_W@std@@@std@@IEBA_JXZ 0000000064032c50 f i ui.obj
 0001:00031c70       ??_E?$num_put@_WV?$ostreambuf_iterator@_WU?$char_traits@_W@std@@@std@@@std@@MEAAPEAXI@Z 0000000064032c70 f i * CIL library *:* CIL module *
 0001:00031c70       ??_G?$num_put@_WV?$ostreambuf_iterator@_WU?$char_traits@_W@std@@@std@@@std@@MEAAPEAXI@Z 0000000064032c70 f i ui.obj
 0001:00031ca0       ?do_truename@?$numpunct@_W@std@@MEBA?AV?$basic_string@_WU?$char_traits@_W@std@@V?$allocator@_W@2@@2@XZ 0000000064032ca0 f i ui.obj
 0001:00031cf0       ?do_falsename@?$numpunct@_W@std@@MEBA?AV?$basic_string@_WU?$char_traits@_W@std@@V?$allocator@_W@2@@2@XZ 0000000064032cf0 f i ui.obj
 0001:00031d40       ?do_grouping@?$numpunct@_W@std@@MEBA?AV?$basic_string@DU?$char_traits@D@std@@V?$allocator@D@2@@2@XZ 0000000064032d40 f i ui.obj
 0001:00031d90       ?do_thousands_sep@?$numpunct@_W@std@@MEBA_WXZ 0000000064032d90 f i ui.obj
 0001:00031da0       ?do_decimal_point@?$numpunct@_W@std@@MEBA_WXZ 0000000064032da0 f i ui.obj
 0001:00031db0       ?truename@?$numpunct@_W@std@@QEBA?AV?$basic_string@_WU?$char_traits@_W@std@@V?$allocator@_W@2@@2@XZ 0000000064032db0 f i ui.obj
 0001:00031dd0       ?falsename@?$numpunct@_W@std@@QEBA?AV?$basic_string@_WU?$char_traits@_W@std@@V?$allocator@_W@2@@2@XZ 0000000064032dd0 f i ui.obj
 0001:00031df0       ?_Reallocate@?$vector@UFarListItem@@V?$allocator@UFarListItem@@@std@@@std@@IEAAX_K@Z 0000000064032df0 f i ui.obj
 0001:00031e80       ??1_Sentry_base@?$basic_ostream@_WU?$char_traits@_W@std@@@std@@QEAA@XZ 0000000064032e80 f i ui.obj
 0001:00031ec0       ?_Iput@?$num_put@_WV?$ostreambuf_iterator@_WU?$char_traits@_W@std@@@std@@@std@@AEBA?AV?$ostreambuf_iterator@_WU?$char_traits@_W@std@@@2@V32@AEAVios_base@2@_WPEAD_K@Z 0000000064032ec0 f i ui.obj
 0001:000324b0       ?_Fput@?$num_put@_WV?$ostreambuf_iterator@_WU?$char_traits@_W@std@@@std@@@std@@AEBA?AV?$ostreambuf_iterator@_WU?$char_traits@_W@std@@@2@V32@AEAVios_base@2@_WPEBD_K@Z 00000000640334b0 f i ui.obj
 0001:00032c40       ?deallocate@?$_Wrap_alloc@V?$allocator@UDialogItem@Far@@@std@@@std@@QEAAXPEAUDialogItem@Far@@_K@Z 0000000064033c40 f i ui.obj
 0001:00032cb0       ?flush@?$basic_ostream@_WU?$char_traits@_W@std@@@std@@QEAAAEAV12@XZ 0000000064033cb0 f i ui.obj
 0001:00032d80       ?_Osfx@?$basic_ostream@_WU?$char_traits@_W@std@@@std@@QEAAXXZ 0000000064033d80 f i ui.obj
 0001:00032df0       ??0?$basic_streambuf@_WU?$char_traits@_W@std@@@std@@IEAA@XZ 0000000064033df0 f i ui.obj
 0001:00032ea0       ??_E?$numpunct@_W@std@@MEAAPEAXI@Z 0000000064033ea0 f i * CIL library *:* CIL module *
 0001:00032ea0       ??_G?$numpunct@_W@std@@MEAAPEAXI@Z 0000000064033ea0 f i ui.obj
 0001:00032f00       ?_Tidy@?$numpunct@_W@std@@AEAAXXZ 0000000064033f00 f i ui.obj
 0001:00032f30       ?grouping@?$numpunct@_W@std@@QEBA?AV?$basic_string@DU?$char_traits@D@std@@V?$allocator@D@2@@2@XZ 0000000064033f30 f i ui.obj
 0001:00032f50       ?allocate@?$allocator@_K@std@@QEAAPEA_K_K@Z 0000000064033f50 f i ui.obj
 0001:00032f50       ?allocate@?$allocator@PEB_W@std@@QEAAPEAPEB_W_K@Z 0000000064033f50 f i update.obj
 0001:00032fd0       ?widen@?$basic_ios@_WU?$char_traits@_W@std@@@std@@QEBA_WD@Z 0000000064033fd0 f i ui.obj
 0001:00033080       ?_Buyheadnode@?$_Tree_comp_alloc@V?$_Tmap_traits@_J_KU?$less@_J@std@@V?$allocator@U?$pair@$$CB_J_K@std@@@2@$0A@@std@@@std@@QEAAPEAU?$_Tree_node@U?$pair@$$CB_J_K@std@@PEAX@2@XZ 0000000064034080 f i ui.obj
 0001:000330c0       ??$?8EV?$allocator@E@std@@@std@@YA_NAEBV?$vector@EV?$allocator@E@std@@@0@0@Z 00000000640340c0 f i ui.obj
 0001:00033100       ??$?H_WU?$char_traits@_W@std@@V?$allocator@_W@1@@std@@YA?AV?$basic_string@_WU?$char_traits@_W@std@@V?$allocator@_W@2@@0@$$QEAV10@_W@Z 0000000064034100 f i ui.obj
 0001:00033150       ??$?H_WU?$char_traits@_W@std@@V?$allocator@_W@1@@std@@YA?AV?$basic_string@_WU?$char_traits@_W@std@@V?$allocator@_W@2@@0@AEBV10@_W@Z 0000000064034150 f i ui.obj
 0001:000331f0       ??$?H_WU?$char_traits@_W@std@@V?$allocator@_W@1@@std@@YA?AV?$basic_string@_WU?$char_traits@_W@std@@V?$allocator@_W@2@@0@AEBV10@$$QEAV10@@Z 00000000640341f0 f i ui.obj
 0001:00033250       ??$?H_WU?$char_traits@_W@std@@V?$allocator@_W@1@@std@@YA?AV?$basic_string@_WU?$char_traits@_W@std@@V?$allocator@_W@2@@0@AEBV10@0@Z 0000000064034250 f i ui.obj
 0001:000332f0       ??$?6_WU?$char_traits@_W@std@@V?$allocator@_W@1@@std@@YAAEAV?$basic_ostream@_WU?$char_traits@_W@std@@@0@AEAV10@AEBV?$basic_string@_WU?$char_traits@_W@std@@V?$allocator@_W@2@@0@@Z 00000000640342f0 f i ui.obj
 0001:00033560       ??$?6_WU?$char_traits@_W@std@@@std@@YAAEAV?$basic_ostream@_WU?$char_traits@_W@std@@@0@AEAV10@_W@Z 0000000064034560 f i ui.obj
 0001:000337f0       ??$reset@VFileFilter@Far@@@?$shared_ptr@VFileFilter@Far@@@std@@QEAAXPEAVFileFilter@Far@@@Z 00000000640347f0 f i ui.obj
 0001:00033880       ??$use_facet@V?$num_put@_WV?$ostreambuf_iterator@_WU?$char_traits@_W@std@@@std@@@std@@@std@@YAAEBV?$num_put@_WV?$ostreambuf_iterator@_WU?$char_traits@_W@std@@@std@@@0@AEBVlocale@0@@Z 0000000064034880 f i ui.obj
 0001:000339e0       ??$use_facet@V?$numpunct@_W@std@@@std@@YAAEBV?$numpunct@_W@0@AEBVlocale@0@@Z 00000000640349e0 f i ui.obj
 0001:00033b40       ??$_Destroy_range@U?$_Wrap_alloc@V?$allocator@UUpdateProfile@@@std@@@std@@@std@@YAXPEAUUpdateProfile@@0AEAU?$_Wrap_alloc@V?$allocator@UUpdateProfile@@@std@@@0@@Z 0000000064034b40 f i ui.obj
 0001:00033c30       ??$use_facet@V?$ctype@_W@std@@@std@@YAAEBV?$ctype@_W@0@AEBVlocale@0@@Z 0000000064034c30 f i ui.obj
 0001:00033d90       ?_Getcat@?$numpunct@_W@std@@SA_KPEAPEBVfacet@locale@2@PEBV42@@Z 0000000064034d90 f i ui.obj
 0001:00033e60       ?_Getcat@?$num_put@_WV?$ostreambuf_iterator@_WU?$char_traits@_W@std@@@std@@@std@@SA_KPEAPEBVfacet@locale@2@PEBV42@@Z 0000000064034e60 f i ui.obj
 0001:00033f10       ?_Init@?$numpunct@_W@std@@IEAAXAEBV_Locinfo@2@_N@Z 0000000064034f10 f i ui.obj
 0001:00034120       ??$_Assign@V?$_List_const_iterator@V?$_List_val@U?$_List_simple_types@V?$basic_string@_WU?$char_traits@_W@std@@V?$allocator@_W@2@@std@@@std@@@std@@@std@@@?$vector@V?$basic_string@_WU?$char_traits@_W@std@@V?$allocator@_W@2@@std@@V?$allocator@V?$basic_string@_WU?$char_traits@_W@std@@V?$allocator@_W@2@@std@@@2@@std@@QEAAXV?$_List_const_iterator@V?$_List_val@U?$_List_simple_types@V?$basic_string@_WU?$char_traits@_W@std@@V?$allocator@_W@2@@std@@@std@@@std@@@1@0Uforward_iterator_tag@1@@Z 0000000064035120 f i ui.obj
 0001:00034240       ??$_Sort@PEAV?$basic_string@_WU?$char_traits@_W@std@@V?$allocator@_W@2@@std@@_JUItemCompare@?1??show@MultiSelectDialog@@QEAA_NXZ@@std@@YAXPEAV?$basic_string@_WU?$char_traits@_W@std@@V?$allocator@_W@2@@0@0_JUItemCompare@?1??show@MultiSelectDialog@@QEAA_NXZ@@Z 0000000064035240 f i ui.obj
 0001:000343a0       ??$_For_each@V?$_List_unchecked_const_iterator@V?$_List_val@U?$_List_simple_types@V?$basic_string@_WU?$char_traits@_W@std@@V?$allocator@_W@2@@std@@@std@@@std@@U_Iterator_base0@2@@std@@V<lambda_bf179c3c74300df5f46fa3a1cb8708cf>@@@std@@YAXV?$_List_unchecked_const_iterator@V?$_List_val@U?$_List_simple_types@V?$basic_string@_WU?$char_traits@_W@std@@V?$allocator@_W@2@@std@@@std@@@std@@U_Iterator_base0@2@@0@0AEAV<lambda_bf179c3c74300df5f46fa3a1cb8708cf>@@@Z 00000000640353a0 f i ui.obj
 0001:000343a0       ??$_For_each@V?$_List_unchecked_const_iterator@V?$_List_val@U?$_List_simple_types@V?$basic_string@_WU?$char_traits@_W@std@@V?$allocator@_W@2@@std@@@std@@@std@@U_Iterator_base0@2@@std@@V<lambda_c8af074039fd6c4fffb1e62dd684ad15>@@@std@@YAXV?$_List_unchecked_const_iterator@V?$_List_val@U?$_List_simple_types@V?$basic_string@_WU?$char_traits@_W@std@@V?$allocator@_W@2@@std@@@std@@@std@@U_Iterator_base0@2@@0@0AEAV<lambda_c8af074039fd6c4fffb1e62dd684ad15>@@@Z 00000000640353a0 f i ui.obj
 0001:00034560       ??$_For_each@V?$_Tree_unchecked_const_iterator@V?$_Tree_val@U?$_Tree_simple_types@U?$pair@$$CBV?$vector@EV?$allocator@E@std@@@std@@UArcFormat@@@std@@@std@@@std@@U_Iterator_base0@2@@std@@V<lambda_f4ae9505508384bd927b2f024cb7471b>@@@std@@YAXV?$_Tree_unchecked_const_iterator@V?$_Tree_val@U?$_Tree_simple_types@U?$pair@$$CBV?$vector@EV?$allocator@E@std@@@std@@UArcFormat@@@std@@@std@@@std@@U_Iterator_base0@2@@0@0AEAV<lambda_f4ae9505508384bd927b2f024cb7471b>@@@Z 0000000064035560 f i ui.obj
 0001:00034620       ??$_For_each@V?$_Tree_unchecked_const_iterator@V?$_Tree_val@U?$_Tree_simple_types@U?$pair@$$CBV?$vector@EV?$allocator@E@std@@@std@@UArcFormat@@@std@@@std@@@std@@U_Iterator_base0@2@@std@@V<lambda_e40a30a8cfd608d1ecb75bbf318bf0cf>@@@std@@YAXV?$_Tree_unchecked_const_iterator@V?$_Tree_val@U?$_Tree_simple_types@U?$pair@$$CBV?$vector@EV?$allocator@E@std@@@std@@UArcFormat@@@std@@@std@@@std@@U_Iterator_base0@2@@0@0AEAV<lambda_e40a30a8cfd608d1ecb75bbf318bf0cf>@@@Z 0000000064035620 f i ui.obj
 0001:000346c0       ??$_Sort@PEAV?$basic_string@_WU?$char_traits@_W@std@@V?$allocator@_W@2@@std@@_JV<lambda_738a9d4c45fa1093c3b0ff3028de4b0a>@@@std@@YAXPEAV?$basic_string@_WU?$char_traits@_W@std@@V?$allocator@_W@2@@0@0_JV<lambda_738a9d4c45fa1093c3b0ff3028de4b0a>@@@Z 00000000640356c0 f i ui.obj
 0001:00034820       ??$_For_each@PEAV?$basic_string@_WU?$char_traits@_W@std@@V?$allocator@_W@2@@std@@V<lambda_c3b84a3a746f01ce65b270ef9dc02ee6>@@@std@@YAXPEAV?$basic_string@_WU?$char_traits@_W@std@@V?$allocator@_W@2@@0@0AEAV<lambda_c3b84a3a746f01ce65b270ef9dc02ee6>@@@Z 0000000064035820 f i ui.obj
 0001:00034950       ??$_Try_emplace@_J$$V@?$map@_J_KU?$less@_J@std@@V?$allocator@U?$pair@$$CB_J_K@std@@@2@@std@@QEAA?AU?$pair@V?$_Tree_iterator@V?$_Tree_val@U?$_Tree_simple_types@U?$pair@$$CB_J_K@std@@@std@@@std@@@std@@_N@1@$$QEA_J@Z 0000000064035950 f i ui.obj
 0001:00034a10       ??$_Move_unchecked1@PEAUUpdateProfile@@PEAU1@@std@@YAPEAUUpdateProfile@@PEAU1@00U_General_ptr_iterator_tag@0@@Z 0000000064035a10 f i ui.obj
 0001:00034b30       ??$_Uninit_alloc_fill_n1@PEA_K_KV?$allocator@_K@std@@U?$integral_constant@_N$0A@@2@@std@@YAXPEA_K_KPEB_KAEAU?$_Wrap_alloc@V?$allocator@_K@std@@@0@U?$integral_constant@_N$0A@@0@@Z 0000000064035b30 f i ui.obj
 0001:00034b50       ??4UpdateProfile@@QEAAAEAU0@$$QEAU0@@Z 0000000064035b50 f i ui.obj
 0001:00034bd0       ??4ProfileOptions@@QEAAAEAU0@$$QEAU0@@Z 0000000064035bd0 f i ui.obj
 0001:00034df0       ??4SfxOptions@@QEAAAEAU0@$$QEAU0@@Z 0000000064035df0 f i ui.obj
 0001:00034f10       ??4SfxVersionInfo@@QEAAAEAU0@$$QEAU0@@Z 0000000064035f10 f i ui.obj
 0001:00035150       ??4SfxInstallConfig@@QEAAAEAU0@$$QEAU0@@Z 0000000064036150 f i ui.obj
 0001:000353a0       ??$_Resetp@VFileFilter@Far@@@?$shared_ptr@VFileFilter@Far@@@std@@AEAAXPEAVFileFilter@Far@@@Z 00000000640363a0 f i ui.obj
 0001:00035400       ??$_Find@PEAV?$vector@EV?$allocator@E@std@@@std@@V12@@std@@YAPEAV?$vector@EV?$allocator@E@std@@@0@PEAV10@0AEBV10@U?$integral_constant@_N$0A@@0@@Z 0000000064036400 f i ui.obj
 0001:00035480       ??$_Insert_hint@AEAV?$basic_string@_WU?$char_traits@_W@std@@V?$allocator@_W@2@@std@@PEAU?$_Tree_node@V?$basic_string@_WU?$char_traits@_W@std@@V?$allocator@_W@2@@std@@PEAX@2@@?$_Tree@V?$_Tset_traits@V?$basic_string@_WU?$char_traits@_W@std@@V?$allocator@_W@2@@std@@UItemCompare@?1??show@MultiSelectDialog@@QEAA_NXZ@V?$allocator@V?$basic_string@_WU?$char_traits@_W@std@@V?$allocator@_W@2@@std@@@2@$0A@@std@@@std@@IEAA?AV?$_Tree_const_iterator@V?$_Tree_val@U?$_Tree_simple_types@V?$basic_string@_WU?$char_traits@_W@std@@V?$allocator@_W@2@@std@@@std@@@std@@@1@V21@AEAV?$basic_string@_WU?$char_traits@_W@std@@V?$allocator@_W@2@@1@PEAU?$_Tree_node@V?$basic_string@_WU?$char_traits@_W@std@@V?$allocator@_W@2@@std@@PEAX@1@@Z 0000000064036480 f i ui.obj
 0001:00035730       ??$_Unguarded_partition@PEAV?$basic_string@_WU?$char_traits@_W@std@@V?$allocator@_W@2@@std@@UItemCompare@?1??show@MultiSelectDialog@@QEAA_NXZ@@std@@YA?AU?$pair@PEAV?$basic_string@_WU?$char_traits@_W@std@@V?$allocator@_W@2@@std@@PEAV12@@0@PEAV?$basic_string@_WU?$char_traits@_W@std@@V?$allocator@_W@2@@0@0UItemCompare@?1??show@MultiSelectDialog@@QEAA_NXZ@@Z 0000000064036730 f i ui.obj
 0001:00035990       ??$_Unguarded_partition@PEAV?$basic_string@_WU?$char_traits@_W@std@@V?$allocator@_W@2@@std@@V<lambda_738a9d4c45fa1093c3b0ff3028de4b0a>@@@std@@YA?AU?$pair@PEAV?$basic_string@_WU?$char_traits@_W@std@@V?$allocator@_W@2@@std@@PEAV12@@0@PEAV?$basic_string@_WU?$char_traits@_W@std@@V?$allocator@_W@2@@0@0V<lambda_738a9d4c45fa1093c3b0ff3028de4b0a>@@@Z 0000000064036990 f i ui.obj
 0001:00035c00       ??_GFileFilter@Far@@QEAAPEAXI@Z 0000000064036c00 f i ui.obj
 0001:00035c50       ?_Destroy@?$_Ref_count@VFileFilter@Far@@@std@@EEAAXXZ 0000000064036c50 f i ui.obj
 0001:00035cb0       ?_Destroy_if_not_nil@?$_Tree@V?$_Tset_traits@V?$basic_string@_WU?$char_traits@_W@std@@V?$allocator@_W@2@@std@@UItemCompare@?1??show@MultiSelectDialog@@QEAA_NXZ@V?$allocator@V?$basic_string@_WU?$char_traits@_W@std@@V?$allocator@_W@2@@std@@@2@$0A@@std@@@std@@IEAAXPEAU?$_Tree_node@V?$basic_string@_WU?$char_traits@_W@std@@V?$allocator@_W@2@@std@@PEAX@2@@Z 0000000064036cb0 f i ui.obj
 0001:00035d10       ??$_Insert_at@AEAV?$basic_string@_WU?$char_traits@_W@std@@V?$allocator@_W@2@@std@@PEAU?$_Tree_node@V?$basic_string@_WU?$char_traits@_W@std@@V?$allocator@_W@2@@std@@PEAX@2@@?$_Tree@V?$_Tset_traits@V?$basic_string@_WU?$char_traits@_W@std@@V?$allocator@_W@2@@std@@UItemCompare@?1??show@MultiSelectDialog@@QEAA_NXZ@V?$allocator@V?$basic_string@_WU?$char_traits@_W@std@@V?$allocator@_W@2@@std@@@2@$0A@@std@@@std@@IEAA?AV?$_Tree_const_iterator@V?$_Tree_val@U?$_Tree_simple_types@V?$basic_string@_WU?$char_traits@_W@std@@V?$allocator@_W@2@@std@@@std@@@std@@@1@_NPEAU?$_Tree_node@V?$basic_string@_WU?$char_traits@_W@std@@V?$allocator@_W@2@@std@@PEAX@1@AEAV?$basic_string@_WU?$char_traits@_W@std@@V?$allocator@_W@2@@1@1@Z 0000000064036d10 f i ui.obj
 0001:00036000       ??$_Insert_nohint@AEAV?$basic_string@_WU?$char_traits@_W@std@@V?$allocator@_W@2@@std@@PEAU?$_Tree_node@V?$basic_string@_WU?$char_traits@_W@std@@V?$allocator@_W@2@@std@@PEAX@2@@?$_Tree@V?$_Tset_traits@V?$basic_string@_WU?$char_traits@_W@std@@V?$allocator@_W@2@@std@@UItemCompare@?1??show@MultiSelectDialog@@QEAA_NXZ@V?$allocator@V?$basic_string@_WU?$char_traits@_W@std@@V?$allocator@_W@2@@std@@@2@$0A@@std@@@std@@IEAA?AU?$pair@V?$_Tree_const_iterator@V?$_Tree_val@U?$_Tree_simple_types@V?$basic_string@_WU?$char_traits@_W@std@@V?$allocator@_W@2@@std@@@std@@@std@@@std@@_N@1@_NAEAV?$basic_string@_WU?$char_traits@_W@std@@V?$allocator@_W@2@@1@PEAU?$_Tree_node@V?$basic_string@_WU?$char_traits@_W@std@@V?$allocator@_W@2@@std@@PEAX@1@@Z 0000000064037000 f i ui.obj
 0001:000361a0       ??$_Median@PEAV?$basic_string@_WU?$char_traits@_W@std@@V?$allocator@_W@2@@std@@UItemCompare@?1??show@MultiSelectDialog@@QEAA_NXZ@@std@@YAXPEAV?$basic_string@_WU?$char_traits@_W@std@@V?$allocator@_W@2@@0@00UItemCompare@?1??show@MultiSelectDialog@@QEAA_NXZ@@Z 00000000640371a0 f i ui.obj
 0001:00036280       ??$iter_swap@PEAV?$basic_string@_WU?$char_traits@_W@std@@V?$allocator@_W@2@@std@@PEAV12@@std@@YAXPEAV?$basic_string@_WU?$char_traits@_W@std@@V?$allocator@_W@2@@0@0@Z 0000000064037280 f i ui.obj
 0001:000362d0       ??$_Make_heap@PEAV?$basic_string@_WU?$char_traits@_W@std@@V?$allocator@_W@2@@std@@_JV12@UItemCompare@?1??show@MultiSelectDialog@@QEAA_NXZ@@std@@YAXPEAV?$basic_string@_WU?$char_traits@_W@std@@V?$allocator@_W@2@@0@0UItemCompare@?1??show@MultiSelectDialog@@QEAA_NXZ@PEA_J0@Z 00000000640372d0 f i ui.obj
 0001:00036460       ??$_Insertion_sort1@PEAV?$basic_string@_WU?$char_traits@_W@std@@V?$allocator@_W@2@@std@@UItemCompare@?1??show@MultiSelectDialog@@QEAA_NXZ@V12@@std@@YAXPEAV?$basic_string@_WU?$char_traits@_W@std@@V?$allocator@_W@2@@0@0UItemCompare@?1??show@MultiSelectDialog@@QEAA_NXZ@0@Z 0000000064037460 f i ui.obj
 0001:00036460       ??$_Insertion_sort1@PEAV?$basic_string@_WU?$char_traits@_W@std@@V?$allocator@_W@2@@std@@V<lambda_738a9d4c45fa1093c3b0ff3028de4b0a>@@V12@@std@@YAXPEAV?$basic_string@_WU?$char_traits@_W@std@@V?$allocator@_W@2@@0@0V<lambda_738a9d4c45fa1093c3b0ff3028de4b0a>@@0@Z 0000000064037460 f i ui.obj
 0001:00036910       ??$_Median@PEAV?$basic_string@_WU?$char_traits@_W@std@@V?$allocator@_W@2@@std@@V<lambda_738a9d4c45fa1093c3b0ff3028de4b0a>@@@std@@YAXPEAV?$basic_string@_WU?$char_traits@_W@std@@V?$allocator@_W@2@@0@00V<lambda_738a9d4c45fa1093c3b0ff3028de4b0a>@@@Z 0000000064037910 f i ui.obj
 0001:000369f0       ??$_Make_heap@PEAV?$basic_string@_WU?$char_traits@_W@std@@V?$allocator@_W@2@@std@@_JV12@V<lambda_738a9d4c45fa1093c3b0ff3028de4b0a>@@@std@@YAXPEAV?$basic_string@_WU?$char_traits@_W@std@@V?$allocator@_W@2@@0@0V<lambda_738a9d4c45fa1093c3b0ff3028de4b0a>@@PEA_J0@Z 00000000640379f0 f i ui.obj
 0001:00036b90       ??$_Buynode@AEBUpiecewise_construct_t@std@@V?$tuple@$$QEA_J@2@V?$tuple@$$V@2@@?$_Tree_comp_alloc@V?$_Tmap_traits@_J_KU?$less@_J@std@@V?$allocator@U?$pair@$$CB_J_K@std@@@2@$0A@@std@@@std@@QEAAPEAU?$_Tree_node@U?$pair@$$CB_J_K@std@@PEAX@1@AEBUpiecewise_construct_t@1@$$QEAV?$tuple@$$QEA_J@1@$$QEAV?$tuple@$$V@1@@Z 0000000064037b90 f i ui.obj
 0001:00036bd0       ??$_Insert_hint@AEAU?$pair@$$CB_J_K@std@@PEAU?$_Tree_node@U?$pair@$$CB_J_K@std@@PEAX@2@@?$_Tree@V?$_Tmap_traits@_J_KU?$less@_J@std@@V?$allocator@U?$pair@$$CB_J_K@std@@@2@$0A@@std@@@std@@IEAA?AV?$_Tree_iterator@V?$_Tree_val@U?$_Tree_simple_types@U?$pair@$$CB_J_K@std@@@std@@@std@@@1@V?$_Tree_const_iterator@V?$_Tree_val@U?$_Tree_simple_types@U?$pair@$$CB_J_K@std@@@std@@@std@@@1@AEAU?$pair@$$CB_J_K@1@PEAU?$_Tree_node@U?$pair@$$CB_J_K@std@@PEAX@1@@Z 0000000064037bd0 f i ui.obj
 0001:00036e20       ??1UpdateProfile@@QEAA@XZ  0000000064037e20 f i ui.obj
 0001:00036e80       ?_Buynode0@?$_Tree_comp_alloc@V?$_Tmap_traits@_J_KU?$less@_J@std@@V?$allocator@U?$pair@$$CB_J_K@std@@@2@$0A@@std@@@std@@QEAAPEAU?$_Tree_node@U?$pair@$$CB_J_K@std@@PEAX@2@XZ 0000000064037e80 f i ui.obj
 0001:00036ed0       ??$_Med3@PEAV?$basic_string@_WU?$char_traits@_W@std@@V?$allocator@_W@2@@std@@UItemCompare@?1??show@MultiSelectDialog@@QEAA_NXZ@@std@@YAXPEAV?$basic_string@_WU?$char_traits@_W@std@@V?$allocator@_W@2@@0@00UItemCompare@?1??show@MultiSelectDialog@@QEAA_NXZ@@Z 0000000064037ed0 f i ui.obj
 0001:00036f90       ??$_Adjust_heap@PEAV?$basic_string@_WU?$char_traits@_W@std@@V?$allocator@_W@2@@std@@_JV12@V<lambda_738a9d4c45fa1093c3b0ff3028de4b0a>@@@std@@YAXPEAV?$basic_string@_WU?$char_traits@_W@std@@V?$allocator@_W@2@@0@_J1$$QEAV10@V<lambda_738a9d4c45fa1093c3b0ff3028de4b0a>@@@Z 0000000064037f90 f i ui.obj
 0001:00036f90       ??$_Adjust_heap@PEAV?$basic_string@_WU?$char_traits@_W@std@@V?$allocator@_W@2@@std@@_JV12@UItemCompare@?1??show@MultiSelectDialog@@QEAA_NXZ@@std@@YAXPEAV?$basic_string@_WU?$char_traits@_W@std@@V?$allocator@_W@2@@0@_J1$$QEAV10@UItemCompare@?1??show@MultiSelectDialog@@QEAA_NXZ@@Z 0000000064037f90 f i ui.obj
 0001:00037170       ??$_Med3@PEAV?$basic_string@_WU?$char_traits@_W@std@@V?$allocator@_W@2@@std@@V<lambda_738a9d4c45fa1093c3b0ff3028de4b0a>@@@std@@YAXPEAV?$basic_string@_WU?$char_traits@_W@std@@V?$allocator@_W@2@@0@00V<lambda_738a9d4c45fa1093c3b0ff3028de4b0a>@@@Z 0000000064038170 f i ui.obj
 0001:00037230       ??$_Insert_at@AEAU?$pair@$$CB_J_K@std@@PEAU?$_Tree_node@U?$pair@$$CB_J_K@std@@PEAX@2@@?$_Tree@V?$_Tmap_traits@_J_KU?$less@_J@std@@V?$allocator@U?$pair@$$CB_J_K@std@@@2@$0A@@std@@@std@@IEAA?AV?$_Tree_iterator@V?$_Tree_val@U?$_Tree_simple_types@U?$pair@$$CB_J_K@std@@@std@@@std@@@1@_NPEAU?$_Tree_node@U?$pair@$$CB_J_K@std@@PEAX@1@AEAU?$pair@$$CB_J_K@1@1@Z 0000000064038230 f i ui.obj
 0001:000374d0       ??$_Insert_nohint@AEAU?$pair@$$CB_J_K@std@@PEAU?$_Tree_node@U?$pair@$$CB_J_K@std@@PEAX@2@@?$_Tree@V?$_Tmap_traits@_J_KU?$less@_J@std@@V?$allocator@U?$pair@$$CB_J_K@std@@@2@$0A@@std@@@std@@IEAA?AU?$pair@V?$_Tree_iterator@V?$_Tree_val@U?$_Tree_simple_types@U?$pair@$$CB_J_K@std@@@std@@@std@@@std@@_N@1@_NAEAU?$pair@$$CB_J_K@1@PEAU?$_Tree_node@U?$pair@$$CB_J_K@std@@PEAX@1@@Z 00000000640384d0 f i ui.obj
 0001:00037610       ?_Swap_bx@?$basic_string@_WU?$char_traits@_W@std@@V?$allocator@_W@2@@std@@QEAAXAEAV12@@Z 0000000064038610 f i ui.obj
 0001:00037710       ??$_Uninitialized_copy_al_unchecked1@V?$_List_unchecked_const_iterator@V?$_List_val@U?$_List_simple_types@V?$basic_string@_WU?$char_traits@_W@std@@V?$allocator@_W@2@@std@@@std@@@std@@U_Iterator_base0@2@@std@@PEAV?$basic_string@_WU?$char_traits@_W@std@@V?$allocator@_W@2@@2@V?$allocator@V?$basic_string@_WU?$char_traits@_W@std@@V?$allocator@_W@2@@std@@@2@@std@@YAPEAV?$basic_string@_WU?$char_traits@_W@std@@V?$allocator@_W@2@@0@V?$_List_unchecked_const_iterator@V?$_List_val@U?$_List_simple_types@V?$basic_string@_WU?$char_traits@_W@std@@V?$allocator@_W@2@@std@@@std@@@std@@U_Iterator_base0@2@@0@0PEAV10@AEAU?$_Wrap_alloc@V?$allocator@V?$basic_string@_WU?$char_traits@_W@std@@V?$allocator@_W@2@@std@@@std@@@0@U_General_ptr_iterator_tag@0@@Z 0000000064038710 f i ui.obj
 0001:000377b0       ??$_Push_heap@PEAV?$basic_string@_WU?$char_traits@_W@std@@V?$allocator@_W@2@@std@@_JV12@UItemCompare@?1??show@MultiSelectDialog@@QEAA_NXZ@@std@@YAXPEAV?$basic_string@_WU?$char_traits@_W@std@@V?$allocator@_W@2@@0@_J1$$QEAV10@UItemCompare@?1??show@MultiSelectDialog@@QEAA_NXZ@@Z 00000000640387b0 f i ui.obj
 0001:000377b0       ??$_Push_heap@PEAV?$basic_string@_WU?$char_traits@_W@std@@V?$allocator@_W@2@@std@@_JV12@V<lambda_738a9d4c45fa1093c3b0ff3028de4b0a>@@@std@@YAXPEAV?$basic_string@_WU?$char_traits@_W@std@@V?$allocator@_W@2@@0@_J1$$QEAV10@V<lambda_738a9d4c45fa1093c3b0ff3028de4b0a>@@@Z 00000000640387b0 f i ui.obj
 0001:00037950       ??$_Pop_heap_0@PEAV?$basic_string@_WU?$char_traits@_W@std@@V?$allocator@_W@2@@std@@V12@UItemCompare@?1??show@MultiSelectDialog@@QEAA_NXZ@@std@@YAXPEAV?$basic_string@_WU?$char_traits@_W@std@@V?$allocator@_W@2@@0@0UItemCompare@?1??show@MultiSelectDialog@@QEAA_NXZ@0@Z 0000000064038950 f i ui.obj
 0001:00037aa0       ??$_Move_backward_unchecked1@PEAV?$basic_string@_WU?$char_traits@_W@std@@V?$allocator@_W@2@@std@@PEAV12@@std@@YAPEAV?$basic_string@_WU?$char_traits@_W@std@@V?$allocator@_W@2@@0@PEAV10@00U_General_ptr_iterator_tag@0@@Z 0000000064038aa0 f i ui.obj
 0001:00037bb0       ??$_Pop_heap_0@PEAV?$basic_string@_WU?$char_traits@_W@std@@V?$allocator@_W@2@@std@@V12@V<lambda_738a9d4c45fa1093c3b0ff3028de4b0a>@@@std@@YAXPEAV?$basic_string@_WU?$char_traits@_W@std@@V?$allocator@_W@2@@0@0V<lambda_738a9d4c45fa1093c3b0ff3028de4b0a>@@0@Z 0000000064038bb0 f i ui.obj
 0001:00037cfc       ??_E?$basic_ostringstream@_WU?$char_traits@_W@std@@V?$allocator@_W@2@@std@@$4PPPPPPPM@A@EAAPEAXI@Z 0000000064038cfc f i ui.obj
 0001:00037d08       ??_E?$basic_ostream@_WU?$char_traits@_W@std@@@std@@$4PPPPPPPM@A@EAAPEAXI@Z 0000000064038d08 f i ui.obj
 0001:00037d20       ??$_Maklocstr@_W@std@@YAPEA_WPEBDPEA_WAEBU_Cvtvec@@@Z 0000000064038d20 f i ui.obj
 0001:00037e30       ??_E?$ctype@_W@std@@MEAAPEAXI@Z 0000000064038e30 f i * CIL library *:* CIL module *
 0001:00037e30       ??_G?$ctype@_W@std@@MEAAPEAXI@Z 0000000064038e30 f i ui.obj
 0001:00037e90       ?do_is@?$ctype@_W@std@@MEBAPEB_WPEB_W0PEAF@Z 0000000064038e90 f i ui.obj
 0001:00037eb0       ?do_scan_is@?$ctype@_W@std@@MEBAPEB_WFPEB_W0@Z 0000000064038eb0 f i ui.obj
 0001:00037f40       ?do_is@?$ctype@_W@std@@MEBA_NF_W@Z 0000000064038f40 f i ui.obj
 0001:00037f70       ?do_scan_not@?$ctype@_W@std@@MEBAPEB_WFPEB_W0@Z 0000000064038f70 f i ui.obj
 0001:00038000       ?do_tolower@?$ctype@_W@std@@MEBAPEB_WPEA_WPEB_W@Z 0000000064039000 f i ui.obj
 0001:00038070       ?do_tolower@?$ctype@_W@std@@MEBA_W_W@Z 0000000064039070 f i ui.obj
 0001:00038080       ?do_toupper@?$ctype@_W@std@@MEBAPEB_WPEA_WPEB_W@Z 0000000064039080 f i ui.obj
 0001:000380f0       ?do_toupper@?$ctype@_W@std@@MEBA_W_W@Z 00000000640390f0 f i ui.obj
 0001:00038100       ?do_narrow@?$ctype@_W@std@@MEBAPEB_WPEB_W0DPEAD@Z 0000000064039100 f i ui.obj
 0001:000381c0       ?do_narrow@?$ctype@_W@std@@MEBAD_WD@Z 00000000640391c0 f i ui.obj
 0001:00038220       ??0?$ctype@_W@std@@QEAA@AEBV_Locinfo@1@_K@Z 0000000064039220 f i ui.obj
 0001:00038290       ??0_Locinfo@std@@QEAA@PEBD@Z 0000000064039290 f i ui.obj
 0001:00038360       ??1?$_Yarn@D@std@@QEAA@XZ  0000000064039360 f i ui.obj
 0001:00038360       ??1?$_Yarn@_W@std@@QEAA@XZ 0000000064039360 f i ui.obj
 0001:00038390       ??1_Locinfo@std@@QEAA@XZ   0000000064039390 f i ui.obj
 0001:00038440       ?_Getcat@?$ctype@_W@std@@SA_KPEAPEBVfacet@locale@2@PEBV42@@Z 0000000064039440 f i ui.obj
 0001:000384f0       ??1bad_alloc@std@@UEAA@XZ  00000000640394f0 f i libcpmt:xthrow.obj
 0001:000384f0       ??1bad_weak_ptr@std@@UEAA@XZ 00000000640394f0 f i extract.obj
 0001:000384f0       ??1bad_cast@std@@UEAA@XZ   00000000640394f0 f i ui.obj
 0001:000384f0       ??1length_error@std@@UEAA@XZ 00000000640394f0 f i libcpmt:xthrow.obj
 0001:000384f0       ??1bad_array_new_length@std@@UEAA@XZ 00000000640394f0 f i LIBCMT:throw_bad_alloc.obj
 0001:000384f0       ??1out_of_range@std@@UEAA@XZ 00000000640394f0 f i libcpmt:xthrow.obj
 0001:000384f0       ??1__non_rtti_object@std@@UEAA@XZ 00000000640394f0 f i libvcruntime:rtti.obj
 0001:000384f0       ??1failure@ios_base@std@@UEAA@XZ 00000000640394f0 f i ui.obj
 0001:000384f0       ??1runtime_error@std@@UEAA@XZ 00000000640394f0 f i ui.obj
 0001:000384f0       ??1bad_typeid@std@@UEAA@XZ 00000000640394f0 f i libvcruntime:rtti.obj
 0001:000384f0       ??1bad_exception@std@@UEAA@XZ 00000000640394f0 f i libvcruntime:frame.obj
 0001:00038510       ??0bad_cast@std@@QEAA@AEBV01@@Z 0000000064039510 f i ui.obj
 0001:00038550       ??_Elogic_error@std@@UEAAPEAXI@Z 0000000064039550 f i libcpmt:xthrow.obj
 0001:00038550       ??_Eruntime_error@std@@UEAAPEAXI@Z 0000000064039550 f i * CIL library *:* CIL module *
 0001:00038550       ??_Gbad_array_new_length@std@@UEAAPEAXI@Z 0000000064039550 f i LIBCMT:throw_bad_alloc.obj
 0001:00038550       ??_Gexception@std@@UEAAPEAXI@Z 0000000064039550 f i ui.obj
 0001:00038550       ??_Ebad_weak_ptr@std@@UEAAPEAXI@Z 0000000064039550 f i * CIL library *:* CIL module *
 0001:00038550       ??_Ebad_array_new_length@std@@UEAAPEAXI@Z 0000000064039550 f i LIBCMT:throw_bad_alloc.obj
 0001:00038550       ??_Ebad_exception@std@@UEAAPEAXI@Z 0000000064039550 f i libvcruntime:frame.obj
 0001:00038550       ??_G__non_rtti_object@std@@UEAAPEAXI@Z 0000000064039550 f i libvcruntime:rtti.obj
 0001:00038550       ??_Gbad_exception@std@@UEAAPEAXI@Z 0000000064039550 f i libvcruntime:frame.obj
 0001:00038550       ??_Glogic_error@std@@UEAAPEAXI@Z 0000000064039550 f i libcpmt:xthrow.obj
 0001:00038550       ??_E__non_rtti_object@std@@UEAAPEAXI@Z 0000000064039550 f i libvcruntime:rtti.obj
 0001:00038550       ??_Eexception@std@@UEAAPEAXI@Z 0000000064039550 f i * CIL library *:* CIL module *
 0001:00038550       ??_Glength_error@std@@UEAAPEAXI@Z 0000000064039550 f i libcpmt:xthrow.obj
 0001:00038550       ??_Ebad_cast@std@@UEAAPEAXI@Z 0000000064039550 f i * CIL library *:* CIL module *
 0001:00038550       ??_Eout_of_range@std@@UEAAPEAXI@Z 0000000064039550 f i libcpmt:xthrow.obj
 0001:00038550       ??_Gout_of_range@std@@UEAAPEAXI@Z 0000000064039550 f i libcpmt:xthrow.obj
 0001:00038550       ??_Gbad_typeid@std@@UEAAPEAXI@Z 0000000064039550 f i libvcruntime:rtti.obj
 0001:00038550       ??_Gbad_cast@std@@UEAAPEAXI@Z 0000000064039550 f i ui.obj
 0001:00038550       ??_Ebad_typeid@std@@UEAAPEAXI@Z 0000000064039550 f i libvcruntime:rtti.obj
 0001:00038550       ??_Gbad_alloc@std@@UEAAPEAXI@Z 0000000064039550 f i libcpmt:xthrow.obj
 0001:00038550       ??_Elength_error@std@@UEAAPEAXI@Z 0000000064039550 f i libcpmt:xthrow.obj
 0001:00038550       ??_Gbad_weak_ptr@std@@UEAAPEAXI@Z 0000000064039550 f i extract.obj
 0001:00038550       ??_Ebad_alloc@std@@UEAAPEAXI@Z 0000000064039550 f i libcpmt:xthrow.obj
 0001:00038550       ??_Gruntime_error@std@@UEAAPEAXI@Z 0000000064039550 f i ui.obj
 0001:000385a0       ?do_widen@?$ctype@_W@std@@MEBA_WD@Z 00000000640395a0 f i ui.obj
 0001:000385f0       ?message@error_code@std@@QEBA?AV?$basic_string@DU?$char_traits@D@std@@V?$allocator@D@2@@2@XZ 00000000640395f0 f i ui.obj
 0001:00038620       ?_Makestr@_System_error@std@@CA?AV?$basic_string@DU?$char_traits@D@std@@V?$allocator@D@2@@2@Verror_code@2@V32@@Z 0000000064039620 f i ui.obj
 0001:00038740       ??0_System_error@std@@IEAA@Verror_code@1@AEBV?$basic_string@DU?$char_traits@D@std@@V?$allocator@D@2@@1@@Z 0000000064039740 f i ui.obj
 0001:00038840       ??0system_error@std@@QEAA@Verror_code@1@PEBD@Z 0000000064039840 f i ui.obj
 0001:00038910       ??_Gerror_category@std@@UEAAPEAXI@Z 0000000064039910 f i ui.obj
 0001:00038910       ??_E_Iostream_error_category@std@@UEAAPEAXI@Z 0000000064039910 f i * CIL library *:* CIL module *
 0001:00038910       ??_G_Iostream_error_category@std@@UEAAPEAXI@Z 0000000064039910 f i ui.obj
 0001:00038910       ??_Eerror_category@std@@UEAAPEAXI@Z 0000000064039910 f i * CIL library *:* CIL module *
 0001:00038940       ?name@_Iostream_error_category@std@@UEBAPEBDXZ 0000000064039940 f i ui.obj
 0001:00038950       ?message@_Generic_error_category@std@@UEBA?AV?$basic_string@DU?$char_traits@D@std@@V?$allocator@D@2@@2@H@Z 0000000064039950 f i ui.obj
 0001:000389b0       ?message@_Iostream_error_category@std@@UEBA?AV?$basic_string@DU?$char_traits@D@std@@V?$allocator@D@2@@2@H@Z 00000000640399b0 f i ui.obj
 0001:00038a00       ?equivalent@error_category@std@@UEBA_NAEBVerror_code@2@H@Z 0000000064039a00 f i ui.obj
 0001:00038a20       ?default_error_condition@error_category@std@@UEBA?AVerror_condition@2@H@Z 0000000064039a20 f i ui.obj
 0001:00038a30       ?equivalent@error_category@std@@UEBA_NHAEBVerror_condition@2@@Z 0000000064039a30 f i ui.obj
 0001:00038a50       ?make_error_code@std@@YA?AVerror_code@1@W4io_errc@1@@Z 0000000064039a50 f i ui.obj
 0001:00038ab0       ??_Esystem_error@std@@UEAAPEAXI@Z 0000000064039ab0 f i * CIL library *:* CIL module *
 0001:00038ab0       ??_G_System_error@std@@UEAAPEAXI@Z 0000000064039ab0 f i ui.obj
 0001:00038ab0       ??_E_System_error@std@@UEAAPEAXI@Z 0000000064039ab0 f i * CIL library *:* CIL module *
 0001:00038ab0       ??_Efailure@ios_base@std@@UEAAPEAXI@Z 0000000064039ab0 f i * CIL library *:* CIL module *
 0001:00038ab0       ??_Gfailure@ios_base@std@@UEAAPEAXI@Z 0000000064039ab0 f i ui.obj
 0001:00038ab0       ??_Gsystem_error@std@@UEAAPEAXI@Z 0000000064039ab0 f i ui.obj
 0001:00038b00       ??0failure@ios_base@std@@QEAA@AEBV012@@Z 0000000064039b00 f i ui.obj
 0001:00038b60       ??0system_error@std@@QEAA@AEBV01@@Z 0000000064039b60 f i ui.obj
 0001:00038bc0       ??0_System_error@std@@QEAA@AEBV01@@Z 0000000064039bc0 f i ui.obj
 0001:00038c10       ??0runtime_error@std@@QEAA@AEBV01@@Z 0000000064039c10 f i ui.obj
 0001:00038c50       ??0exception@std@@QEAA@AEBV01@@Z 0000000064039c50 f i ui.obj
 0001:00038c90       ?clear@ios_base@std@@QEAAXH_N@Z 0000000064039c90 f i ui.obj
 0001:00039010       ?_Init@ios_base@std@@IEAAXXZ 000000006403a010 f i ui.obj
 0001:00039080       ?do_widen@?$ctype@_W@std@@MEBAPEBDPEBD0PEA_W@Z 000000006403a080 f i ui.obj
 0001:00039130       ?assign@?$basic_string@_WU?$char_traits@_W@std@@V?$allocator@_W@2@@std@@QEAAAEAV12@_K_W@Z 000000006403a130 f i ui.obj
 0001:00039230       ??1facet@locale@std@@MEAA@XZ 000000006403a230 f i ui.obj
 0001:00039240       ?append@?$basic_string@DU?$char_traits@D@std@@V?$allocator@D@2@@std@@QEAAAEAV12@_KD@Z 000000006403a240 f i ui.obj
 0001:00039350       __local_stdio_printf_options 000000006403a350 f i ui.obj
 0001:00039360       sprintf_s                  000000006403a360 f i ui.obj
 0001:000393c0       ??_Gios_base@std@@UEAAPEAXI@Z 000000006403a3c0 f i ui.obj
 0001:000393c0       ??_Eios_base@std@@UEAAPEAXI@Z 000000006403a3c0 f i * CIL library *:* CIL module *
 0001:00039410       ?_Incref@facet@locale@std@@UEAAXXZ 000000006403a410 f i ui.obj
 0001:00039420       ?_Decref@facet@locale@std@@UEAAPEAV_Facet_base@3@XZ 000000006403a420 f i ui.obj
 0001:00039430       ??_E_Facet_base@std@@UEAAPEAXI@Z 000000006403a430 f i * CIL library *:* CIL module *
 0001:00039430       ??_G_Facet_base@std@@UEAAPEAXI@Z 000000006403a430 f i ui.obj
 0001:00039460       ??1locale@std@@QEAA@XZ     000000006403a460 f i ui.obj
 0001:000394a0       ?getloc@ios_base@std@@QEBA?AVlocale@2@XZ 000000006403a4a0 f i ui.obj
 0001:000394d0       ?what@exception@std@@UEBAPEBDXZ 000000006403a4d0 f i ui.obj
 0001:000394f0       ??1CriticalSectionLock@@QEAA@XZ 000000006403a4f0 f i extract.obj
 0001:00039510       ??1DisableSleepMode@@QEAA@XZ 000000006403a510 f i extract.obj
 0001:00039520       ??1BStr@@QEAA@XZ           000000006403a520 f i extract.obj
 0001:00039550       ?get_progress_bar_str@@YA?AV?$basic_string@_WU?$char_traits@_W@std@@V?$allocator@_W@2@@std@@III@Z 000000006403a550 f   extract.obj
 0001:000396a0       ?do_update_ui@ExtractProgress@@EEAAXXZ 000000006403a6a0 f i extract.obj
 0001:00039e20       ??0ExtractProgress@@QEAA@AEBV?$basic_string@_WU?$char_traits@_W@std@@V?$allocator@_W@2@@std@@@Z 000000006403ae20 f i extract.obj
 0001:00039f70       ?update_extract_file@ExtractProgress@@QEAAXAEBV?$basic_string@_WU?$char_traits@_W@std@@V?$allocator@_W@2@@std@@@Z 000000006403af70 f i extract.obj
 0001:0003a020       ?update_extract_completed@ExtractProgress@@QEAAX_K@Z 000000006403b020 f i extract.obj
 0001:0003a0c0       ?update_cache_file@ExtractProgress@@QEAAXAEBV?$basic_string@_WU?$char_traits@_W@std@@V?$allocator@_W@2@@std@@@Z 000000006403b0c0 f i extract.obj
 0001:0003a170       ?update_cache_stored@ExtractProgress@@QEAAX_K@Z 000000006403b170 f i extract.obj
 0001:0003a210       ??_EExtractProgress@@UEAAPEAXI@Z 000000006403b210 f i * CIL library *:* CIL module *
 0001:0003a210       ??_GExtractProgress@@UEAAPEAXI@Z 000000006403b210 f i extract.obj
 0001:0003a250       ??1ExtractProgress@@UEAA@XZ 000000006403b250 f i extract.obj
 0001:0003a330       ?create_file@FileWriteCache@@AEAAXXZ 000000006403b330 f i extract.obj
 0001:0003a600       ?allocate_file@FileWriteCache@@AEAAXXZ 000000006403b600 f i extract.obj
 0001:0003a6c0       ?write_file@FileWriteCache@@AEAAXXZ 000000006403b6c0 f i extract.obj
 0001:0003a840       ?close_file@FileWriteCache@@AEAAXXZ 000000006403b840 f i extract.obj
 0001:0003a960       ?write@FileWriteCache@@AEAAXXZ 000000006403b960 f i extract.obj
 0001:0003aa40       ?store@FileWriteCache@@AEAAXPEBE_K@Z 000000006403ba40 f i extract.obj
 0001:0003ab50       ??0FileWriteCache@@QEAA@V?$shared_ptr@VArchive@@@std@@V?$shared_ptr@_N@2@V?$shared_ptr@V?$list@UError@@V?$allocator@UError@@@std@@@std@@@2@V?$shared_ptr@VExtractProgress@@@2@@Z 000000006403bb50 f i extract.obj
 0001:0003aeb0       ??1FileWriteCache@@QEAA@XZ 000000006403beb0 f i extract.obj
 0001:0003b080       ?store_file@FileWriteCache@@QEAAXAEBV?$basic_string@_WU?$char_traits@_W@std@@V?$allocator@_W@2@@std@@IW4OverwriteAction@@@Z 000000006403c080 f i extract.obj
 0001:0003b170       ?store_data@FileWriteCache@@QEAAXPEBE_K@Z 000000006403c170 f i extract.obj
 0001:0003b2e0       ??0CachedFileExtractStream@@QEAA@V?$shared_ptr@VFileWriteCache@@@std@@@Z 000000006403c2e0 f i extract.obj
 0001:0003b390       ?QueryInterface@CachedFileExtractStream@@UEAAJAEBU_GUID@@PEAPEAX@Z 000000006403c390 f i extract.obj
 0001:0003b420       ?Write@CachedFileExtractStream@@UEAAJPEBXIPEAI@Z 000000006403c420 f i extract.obj
 0001:0003b470       ??_ECachedFileExtractStream@@UEAAPEAXI@Z 000000006403c470 f i * CIL library *:* CIL module *
 0001:0003b470       ??_GCachedFileExtractStream@@UEAAPEAXI@Z 000000006403c470 f i extract.obj
 0001:0003b4b0       ??1CachedFileExtractStream@@UEAA@XZ 000000006403c4b0 f i extract.obj
 0001:0003b550       ??4Error@@QEAAAEAU0@AEBU0@@Z 000000006403c550 f i extract.obj
 0001:0003b5a0       ??4Error@@QEAAAEAU0@$$QEAU0@@Z 000000006403c5a0 f i extract.obj
 0001:0003b620       ??0ArchiveExtractor@@QEAA@IAEBV?$basic_string@_WU?$char_traits@_W@std@@V?$allocator@_W@2@@std@@V?$shared_ptr@VArchive@@@2@V?$shared_ptr@W4OverwriteAction@@@2@V?$shared_ptr@_N@2@V?$shared_ptr@V?$list@UError@@V?$allocator@UError@@@std@@@std@@@2@V?$shared_ptr@VFileWriteCache@@@2@V?$shared_ptr@VExtractProgress@@@2@V?$shared_ptr@V?$set@IU?$less@I@std@@V?$allocator@I@2@@std@@@2@@Z 000000006403c620 f i extract.obj
 0001:0003b9b0       ?QueryInterface@ArchiveExtractor@@UEAAJAEBU_GUID@@PEAPEAX@Z 000000006403c9b0 f i extract.obj
 0001:0003b9b0       ?QueryInterface@ArchiveTester@@UEAAJAEBU_GUID@@PEAPEAX@Z 000000006403c9b0 f i test.obj
 0001:0003ba80       ?AddRef@ArchiveUpdater@@UEAAKXZ 000000006403ca80 f i update.obj
 0001:0003ba80       ?AddRef@ArchiveTester@@UEAAKXZ 000000006403ca80 f i test.obj
 0001:0003ba80       ?AddRef@ArchiveExtractor@@UEAAKXZ 000000006403ca80 f i extract.obj
 0001:0003ba90       ?Release@ArchiveTester@@UEAAKXZ 000000006403ca90 f i test.obj
 0001:0003ba90       ?Release@ArchiveUpdater@@UEAAKXZ 000000006403ca90 f i update.obj
 0001:0003ba90       ?Release@ArchiveExtractor@@UEAAKXZ 000000006403ca90 f i extract.obj
 0001:0003bac0       ?SetTotal@ArchiveExtractor@@UEAAJ_K@Z 000000006403cac0 f i extract.obj
 0001:0003bbb0       ?SetCompleted@ArchiveExtractor@@UEAAJPEB_K@Z 000000006403cbb0 f i extract.obj
 0001:0003bc70       ?GetStream@ArchiveExtractor@@UEAAJIPEAPEAUISequentialOutStream@@H@Z 000000006403cc70 f i extract.obj
 0001:0003c0d0       ?PrepareOperation@ArchiveExtractor@@UEAAJH@Z 000000006403d0d0 f i extract.obj
 0001:0003c140       ?SetOperationResult@ArchiveExtractor@@UEAAJH@Z 000000006403d140 f i extract.obj
 0001:0003c5c0       ?CryptoGetTextPassword@ArchiveExtractor@@UEAAJPEAPEA_W@Z 000000006403d5c0 f i extract.obj
 0001:0003c7b0       ??_EArchiveExtractor@@UEAAPEAXI@Z 000000006403d7b0 f i * CIL library *:* CIL module *
 0001:0003c7b0       ??_GArchiveExtractor@@UEAAPEAXI@Z 000000006403d7b0 f i extract.obj
 0001:0003c7f0       ??1ArchiveExtractor@@UEAA@XZ 000000006403d7f0 f i extract.obj
 0001:0003ca40       ?prepare_dst_dir@Archive@@AEAAXAEBV?$basic_string@_WU?$char_traits@_W@std@@V?$allocator@_W@2@@std@@@Z 000000006403da40 f   extract.obj
 0001:0003cb00       ?do_update_ui@PrepareExtract@@EEAAXXZ 000000006403db00 f i extract.obj
 0001:0003ccb0       ?prepare_extract@PrepareExtract@@AEAAXAEBU?$pair@V?$_Vector_const_iterator@V?$_Vector_val@U?$_Simple_types@I@std@@@std@@@std@@V12@@std@@AEBV?$basic_string@_WU?$char_traits@_W@std@@V?$allocator@_W@2@@3@@Z 000000006403dcb0 f i extract.obj
 0001:0003d0a0       ??_GPrepareExtract@@UEAAPEAXI@Z 000000006403e0a0 f i extract.obj
 0001:0003d0a0       ??_EPrepareExtract@@UEAAPEAXI@Z 000000006403e0a0 f i * CIL library *:* CIL module *
 0001:0003d0e0       ?do_update_ui@SetDirAttr@@EEAAXXZ 000000006403e0e0 f i extract.obj
 0001:0003d290       ?set_dir_attr@SetDirAttr@@AEAAXAEBU?$pair@V?$_Vector_const_iterator@V?$_Vector_val@U?$_Simple_types@I@std@@@std@@@std@@V12@@std@@AEBV?$basic_string@_WU?$char_traits@_W@std@@V?$allocator@_W@2@@3@@Z 000000006403e290 f i extract.obj
 0001:0003d800       ??_GSetDirAttr@@UEAAPEAXI@Z 000000006403e800 f i extract.obj
 0001:0003d800       ??_ESetDirAttr@@UEAAPEAXI@Z 000000006403e800 f i * CIL library *:* CIL module *
 0001:0003d840       ?extract@Archive@@QEAAXIAEBV?$vector@IV?$allocator@I@std@@@std@@AEBUExtractOptions@@V?$shared_ptr@V?$list@UError@@V?$allocator@UError@@@std@@@std@@@3@PEAV23@@Z 000000006403e840 f   extract.obj
 0001:0003e400       ??1?$list@GV?$allocator@G@std@@@std@@QEAA@XZ 000000006403f400 f i rsrc.obj
 0001:0003e400       ??1?$list@IV?$allocator@I@std@@@std@@QEAA@XZ 000000006403f400 f i extract.obj
 0001:0003e460       ?shared_from_this@?$enable_shared_from_this@VArchive@@@std@@QEAA?AV?$shared_ptr@VArchive@@@2@XZ 000000006403f460 f i extract.obj
 0001:0003e490       ??0?$vector@IV?$allocator@I@std@@@std@@QEAA@AEBV01@@Z 000000006403f490 f i extract.obj
 0001:0003e550       ?_Insert_n@?$list@UCacheRecord@FileWriteCache@@V?$allocator@UCacheRecord@FileWriteCache@@@std@@@std@@QEAAXV?$_List_unchecked_const_iterator@V?$_List_val@U?$_List_simple_types@UCacheRecord@FileWriteCache@@@std@@@std@@U_Iterator_base0@2@@2@_KAEBUCacheRecord@FileWriteCache@@@Z 000000006403f550 f i extract.obj
 0001:0003e600       ?_Buynode0@?$_List_alloc@U?$_List_base_types@GV?$allocator@G@std@@@std@@@std@@QEAAPEAU?$_List_node@GPEAX@2@PEAU32@0@Z 000000006403f600 f i rsrc.obj
 0001:0003e600       ?_Buynode0@?$_List_alloc@U?$_List_base_types@IV?$allocator@I@std@@@std@@@std@@QEAAPEAU?$_List_node@IPEAX@2@PEAU32@0@Z 000000006403f600 f i extract.obj
 0001:0003e650       ?_Buynode0@?$_List_alloc@U?$_List_base_types@UCacheRecord@FileWriteCache@@V?$allocator@UCacheRecord@FileWriteCache@@@std@@@std@@@std@@QEAAPEAU?$_List_node@UCacheRecord@FileWriteCache@@PEAX@2@PEAU32@0@Z 000000006403f650 f i extract.obj
 0001:0003e6a0       ??$?6_WU?$char_traits@_W@std@@@std@@YAAEAV?$basic_ostream@_WU?$char_traits@_W@std@@@0@AEAV10@PEB_W@Z 000000006403f6a0 f i extract.obj
 0001:0003e920       ??$?6_WU?$char_traits@_W@std@@_J@std@@YAAEAV?$basic_ostream@_WU?$char_traits@_W@std@@@0@AEAV10@AEBU?$_Smanip@_J@0@@Z 000000006403f920 f i extract.obj
 0001:0003e960       ??$?0VArchive@@@?$shared_ptr@VArchive@@@std@@QEAA@AEBV?$weak_ptr@VArchive@@@1@_N@Z 000000006403f960 f i extract.obj
 0001:0003e9e0       ??$_For_each@V?$_List_unchecked_iterator@V?$_List_val@U?$_List_simple_types@UCacheRecord@FileWriteCache@@@std@@@std@@@std@@V<lambda_1200e443c751f1edeb6fb25ac2a6e85c>@@@std@@YAXV?$_List_unchecked_iterator@V?$_List_val@U?$_List_simple_types@UCacheRecord@FileWriteCache@@@std@@@std@@@0@0AEAV<lambda_1200e443c751f1edeb6fb25ac2a6e85c>@@@Z 000000006403f9e0 f i extract.obj
 0001:0003eaf0       ??$_Resetp@_N@?$shared_ptr@_N@std@@AEAAXPEA_N@Z 000000006403faf0 f i extract.obj
 0001:0003eb50       ??$_Resetp@W4OverwriteAction@@@?$shared_ptr@W4OverwriteAction@@@std@@AEAAXPEAW4OverwriteAction@@@Z 000000006403fb50 f i extract.obj
 0001:0003ebb0       ??$_Resetp@VExtractProgress@@@?$shared_ptr@VExtractProgress@@@std@@AEAAXPEAVExtractProgress@@@Z 000000006403fbb0 f i extract.obj
 0001:0003ec10       ??$_Resetp@VFileWriteCache@@@?$shared_ptr@VFileWriteCache@@@std@@AEAAXPEAVFileWriteCache@@@Z 000000006403fc10 f i extract.obj
 0001:0003ec70       ??$_For_each@V?$_Tree_unchecked_const_iterator@V?$_Tree_val@U?$_Tree_simple_types@V?$basic_string@_WU?$char_traits@_W@std@@V?$allocator@_W@2@@std@@@std@@@std@@U_Iterator_base0@2@@std@@V<lambda_86d77aeb69add83559705e91ac9f044b>@@@std@@YAXV?$_Tree_unchecked_const_iterator@V?$_Tree_val@U?$_Tree_simple_types@V?$basic_string@_WU?$char_traits@_W@std@@V?$allocator@_W@2@@std@@@std@@@std@@U_Iterator_base0@2@@0@0AEAV<lambda_86d77aeb69add83559705e91ac9f044b>@@@Z 000000006403fc70 f i extract.obj
 0001:0003ed10       ??$_Buynode@AEBUCacheRecord@FileWriteCache@@@?$_List_buy@UCacheRecord@FileWriteCache@@V?$allocator@UCacheRecord@FileWriteCache@@@std@@@std@@QEAAPEAU?$_List_node@UCacheRecord@FileWriteCache@@PEAX@1@PEAU21@0AEBUCacheRecord@FileWriteCache@@@Z 000000006403fd10 f i extract.obj
 0001:0003ed60       ??$_Buynode@AEBI@?$_List_buy@IV?$allocator@I@std@@@std@@QEAAPEAU?$_List_node@IPEAX@1@PEAU21@0AEBI@Z 000000006403fd60 f i extract.obj
 0001:0003ed90       ?_Destroy@?$_Ref_count@VFileWriteCache@@@std@@EEAAXXZ 000000006403fd90 f i extract.obj
 0001:0003edc0       ?_Destroy@?$_Ref_count@VExtractProgress@@@std@@EEAAXXZ 000000006403fdc0 f i extract.obj
 0001:0003edc0       ?_Destroy@?$_Ref_count@VArchiveFileDeleterProgress@@@std@@EEAAXXZ 000000006403fdc0 f i delete.obj
 0001:0003edc0       ?_Destroy@?$_Ref_count@VArchiveUpdateProgress@@@std@@EEAAXXZ 000000006403fdc0 f i update.obj
 0001:0003ede0       ?_Destroy@?$_Ref_count@W4OverwriteAction@@@std@@EEAAXXZ 000000006403fde0 f i extract.obj
 0001:0003edf0       ?_Destroy@?$_Ref_count@_N@std@@EEAAXXZ 000000006403fdf0 f i extract.obj
 0001:0003ee00       ??0bad_weak_ptr@std@@QEAA@AEBV01@@Z 000000006403fe00 f i extract.obj
 0001:0003ee40       ??$_Sort@PEAI_JU?$less@X@std@@@std@@YAXPEAI0_JU?$less@X@0@@Z 000000006403fe40 f i extract.obj
 0001:0003ef80       ??$_Resetp@V?$set@IU?$less@I@std@@V?$allocator@I@2@@std@@@?$shared_ptr@V?$set@IU?$less@I@std@@V?$allocator@I@2@@std@@@std@@AEAAXPEAV?$set@IU?$less@I@std@@V?$allocator@I@2@@1@@Z 000000006403ff80 f i extract.obj
 0001:0003efe0       ??$_Set_difference@PEAIV?$_Tree_unchecked_const_iterator@V?$_Tree_val@U?$_Tree_simple_types@I@std@@@std@@U_Iterator_base0@2@@std@@V?$back_insert_iterator@V?$vector@IV?$allocator@I@std@@@std@@@2@U?$less@X@2@@std@@YA?AV?$back_insert_iterator@V?$vector@IV?$allocator@I@std@@@std@@@0@PEAI0V?$_Tree_unchecked_const_iterator@V?$_Tree_val@U?$_Tree_simple_types@I@std@@@std@@U_Iterator_base0@2@@0@1V10@U?$less@X@0@@Z 000000006403ffe0 f i extract.obj
 0001:0003f280       ??$construct@UCacheRecord@FileWriteCache@@AEBU12@@?$_Wrap_alloc@V?$allocator@U?$_List_node@UCacheRecord@FileWriteCache@@PEAX@std@@@std@@@std@@QEAAXPEAUCacheRecord@FileWriteCache@@AEBU23@@Z 0000000064040280 f i extract.obj
 0001:0003f310       ??_G?$set@IU?$less@I@std@@V?$allocator@I@2@@std@@QEAAPEAXI@Z 0000000064040310 f i extract.obj
 0001:0003f350       ?_Destroy@?$_Ref_count@V?$set@IU?$less@I@std@@V?$allocator@I@2@@std@@@std@@EEAAXXZ 0000000064040350 f i extract.obj
 0001:0003f3a0       ??$_Unguarded_partition@PEAIU?$less@X@std@@@std@@YA?AU?$pair@PEAIPEAI@0@PEAI0U?$less@X@0@@Z 00000000640403a0 f i extract.obj
 0001:0003f540       ??$_Copy_unchecked1@V?$_List_unchecked_iterator@V?$_List_val@U?$_List_simple_types@I@std@@@std@@@std@@V?$back_insert_iterator@V?$vector@IV?$allocator@I@std@@@std@@@2@@std@@YA?AV?$back_insert_iterator@V?$vector@IV?$allocator@I@std@@@std@@@0@V?$_List_unchecked_iterator@V?$_List_val@U?$_List_simple_types@I@std@@@std@@@0@0V10@U_General_ptr_iterator_tag@0@@Z 0000000064040540 f i extract.obj
 0001:0003f610       ??$_Median@PEAIU?$less@X@std@@@std@@YAXPEAI00U?$less@X@0@@Z 0000000064040610 f i extract.obj
 0001:0003f760       ??$_Make_heap@PEAI_JIU?$less@X@std@@@std@@YAXPEAI0U?$less@X@0@PEA_J0@Z 0000000064040760 f i extract.obj
 0001:0003f850       ??$_Sort_heap@PEAIU?$less@X@std@@@std@@YAXPEAI0U?$less@X@0@@Z 0000000064040850 f i extract.obj
 0001:0003f940       ??$_Insertion_sort1@PEAIU?$less@X@std@@I@std@@YAXPEAI0U?$less@X@0@0@Z 0000000064040940 f i extract.obj
 0001:0003f9e8       ?AddRef@ArchiveExtractor@@W7EAAKXZ 00000000640409e8 f i extract.obj
 0001:0003f9e8       ?AddRef@ArchiveUpdater@@W7EAAKXZ 00000000640409e8 f i update.obj
 0001:0003f9e8       ?AddRef@ArchiveTester@@W7EAAKXZ 00000000640409e8 f i test.obj
 0001:0003f9f4       ?Release@ArchiveExtractor@@WBA@EAAKXZ 00000000640409f4 f i extract.obj
 0001:0003f9f4       ?Release@ArchiveTester@@WBA@EAAKXZ 00000000640409f4 f i test.obj
 0001:0003f9f4       ?Release@ArchiveUpdater@@WBA@EAAKXZ 00000000640409f4 f i update.obj
 0001:0003fa00       ??_ECachedFileExtractStream@@W7EAAPEAXI@Z 0000000064040a00 f i extract.obj
 0001:0003fa0c       ?QueryInterface@ArchiveTester@@W7EAAJAEBU_GUID@@PEAPEAX@Z 0000000064040a0c f i test.obj
 0001:0003fa0c       ?QueryInterface@ArchiveExtractor@@W7EAAJAEBU_GUID@@PEAPEAX@Z 0000000064040a0c f i extract.obj
 0001:0003fa18       ?AddRef@ArchiveExtractor@@WBA@EAAKXZ 0000000064040a18 f i extract.obj
 0001:0003fa18       ?AddRef@ArchiveTester@@WBA@EAAKXZ 0000000064040a18 f i test.obj
 0001:0003fa18       ?AddRef@ArchiveUpdater@@WBA@EAAKXZ 0000000064040a18 f i update.obj
 0001:0003fa24       ??_EArchiveExtractor@@WBA@EAAPEAXI@Z 0000000064040a24 f i extract.obj
 0001:0003fa30       ?QueryInterface@ArchiveExtractor@@WBA@EAAJAEBU_GUID@@PEAPEAX@Z 0000000064040a30 f i extract.obj
 0001:0003fa30       ?QueryInterface@ArchiveTester@@WBA@EAAJAEBU_GUID@@PEAPEAX@Z 0000000064040a30 f i test.obj
 0001:0003fa3c       ?Release@ArchiveExtractor@@W7EAAKXZ 0000000064040a3c f i extract.obj
 0001:0003fa3c       ?Release@ArchiveTester@@W7EAAKXZ 0000000064040a3c f i test.obj
 0001:0003fa3c       ?Release@ArchiveUpdater@@W7EAAKXZ 0000000064040a3c f i update.obj
 0001:0003fa48       ?QueryInterface@CachedFileExtractStream@@W7EAAJAEBU_GUID@@PEAPEAX@Z 0000000064040a48 f i extract.obj
 0001:0003fa60       ?what@bad_weak_ptr@std@@UEBAPEBDXZ 0000000064040a60 f i extract.obj
 0001:0003fa70       ??4PropVariant@@QEAAAEAV0@PEB_W@Z 0000000064040a70 f i open.obj
 0001:0003fb60       ??4PropVariant@@QEAAAEAV0@I@Z 0000000064040b60 f i open.obj
 0001:0003fbe0       ??4PropVariant@@QEAAAEAV0@_K@Z 0000000064040be0 f i open.obj
 0001:0003fc60       ??4PropVariant@@QEAAAEAV0@AEBU_FILETIME@@@Z 0000000064040c60 f i open.obj
 0001:0003fcf0       ??0OpenOptions@@QEAA@XZ    0000000064040cf0 f   open.obj
 0001:0003fd90       ??0ArchiveSubStream@@QEAA@PEAUIInStream@@_K@Z 0000000064040d90 f i open.obj
 0001:0003fe10       ?QueryInterface@ArchiveSubStream@@UEAAJAEBU_GUID@@PEAPEAX@Z 0000000064040e10 f i open.obj
 0001:0003feb0       ?Read@ArchiveSubStream@@UEAAJPEAXIPEAI@Z 0000000064040eb0 f i open.obj
 0001:0003fec0       ?Seek@ArchiveSubStream@@UEAAJ_JIPEA_K@Z 0000000064040ec0 f i open.obj
 0001:0003ff20       ??_EArchiveSubStream@@UEAAPEAXI@Z 0000000064040f20 f i * CIL library *:* CIL module *
 0001:0003ff20       ??_GArchiveSubStream@@UEAAPEAXI@Z 0000000064040f20 f i open.obj
 0001:0003ff80       ?check_device_file@ArchiveOpenStream@@AEAAXXZ 0000000064040f80 f i open.obj
 0001:00040110       ??0ArchiveOpenStream@@QEAA@AEBV?$basic_string@_WU?$char_traits@_W@std@@V?$allocator@_W@2@@std@@@Z 0000000064041110 f i open.obj
 0001:000401c0       ?QueryInterface@ArchiveOpenStream@@UEAAJAEBU_GUID@@PEAPEAX@Z 00000000640411c0 f i open.obj
 0001:00040260       ?Read@ArchiveOpenStream@@UEAAJPEAXIPEAI@Z 0000000064041260 f i open.obj
 0001:00040420       ?Seek@ArchiveOpenStream@@UEAAJ_JIPEA_K@Z 0000000064041420 f i open.obj
 0001:00040510       ?get_info@ArchiveOpenStream@@QEAA?AUFindData@@XZ 0000000064041510 f i open.obj
 0001:00040640       ??_GArchiveOpenStream@@UEAAPEAXI@Z 0000000064041640 f i open.obj
 0001:00040640       ??_EArchiveOpenStream@@UEAAPEAXI@Z 0000000064041640 f i * CIL library *:* CIL module *
 0001:00040680       ??1ArchiveOpenStream@@UEAA@XZ 0000000064041680 f i open.obj
 0001:00040700       ?do_update_ui@ArchiveOpener@@EEAAXXZ 0000000064041700 f i open.obj
 0001:00040a80       ??0ArchiveOpener@@QEAA@V?$shared_ptr@VArchive@@@std@@@Z 0000000064041a80 f i open.obj
 0001:00040c80       ?QueryInterface@ArchiveOpener@@UEAAJAEBU_GUID@@PEAPEAX@Z 0000000064041c80 f i open.obj
 0001:00040d60       ?AddRef@ArchiveOpener@@UEAAKXZ 0000000064041d60 f i open.obj
 0001:00040d60       ?AddRef@SimpleUpdateStream@@UEAAKXZ 0000000064041d60 f i update.obj
 0001:00040d60       ?AddRef@MultiVolumeUpdateStream@@UEAAKXZ 0000000064041d60 f i update.obj
 0001:00040d60       ?AddRef@SfxUpdateStream@@UEAAKXZ 0000000064041d60 f i update.obj
 0001:00040d70       ?Release@ArchiveOpener@@UEAAKXZ 0000000064041d70 f i open.obj
 0001:00040da0       ?SetTotal@ArchiveOpener@@UEAAJPEB_K0@Z 0000000064041da0 f i open.obj
 0001:00040df0       ?SetCompleted@ArchiveOpener@@UEAAJPEB_K0@Z 0000000064041df0 f i open.obj
 0001:00040e40       ?GetProperty@ArchiveOpener@@UEAAJKPEAUtagPROPVARIANT@@@Z 0000000064041e40 f i open.obj
 0001:00041040       ?GetStream@ArchiveOpener@@UEAAJPEB_WPEAPEAUIInStream@@@Z 0000000064042040 f i open.obj
 0001:000413c0       ?CryptoGetTextPassword@ArchiveOpener@@UEAAJPEAPEA_W@Z 00000000640423c0 f i open.obj
 0001:00041540       ??_EArchiveOpener@@UEAAPEAXI@Z 0000000064042540 f i * CIL library *:* CIL module *
 0001:00041540       ??_GArchiveOpener@@UEAAPEAXI@Z 0000000064042540 f i open.obj
 0001:000415d0       ?get_stream@Archive@@QEAA_NIPEAPEAUIInStream@@@Z 00000000640425d0 f   open.obj
 0001:000416c0       ?copy_prologue@Archive@@QEAAJPEAUIOutStream@@@Z 00000000640426c0 f   open.obj
 0001:000417e0       ?open@Archive@@AEAA_NPEAUIInStream@@AEBV?$vector@EV?$allocator@E@std@@@std@@@Z 00000000640427e0 f   open.obj
 0001:00041a30       ?prioritize@@YAXAEAV?$list@UArcEntry@@V?$allocator@UArcEntry@@@std@@@std@@AEBV?$vector@EV?$allocator@E@std@@@2@1@Z 0000000064042a30 f   open.obj
 0001:00041b60       ?detect@Archive@@CA?AV?$list@UArcEntry@@V?$allocator@UArcEntry@@@std@@@std@@PEAEI_NAEBV?$basic_string@_WU?$char_traits@_W@std@@V?$allocator@_W@2@@3@AEBV?$list@V?$vector@EV?$allocator@E@std@@@std@@V?$allocator@V?$vector@EV?$allocator@E@std@@@std@@@2@@3@@Z 0000000064042b60 f   open.obj
 0001:00041e10       ??1?$set@V?$vector@EV?$allocator@E@std@@@std@@U?$less@V?$vector@EV?$allocator@E@std@@@std@@@2@V?$allocator@V?$vector@EV?$allocator@E@std@@@std@@@2@@std@@QEAA@XZ 0000000064042e10 f i open.obj
 0001:00041e40       ?get_physize@Archive@@AEAA_KXZ 0000000064042e40 f   open.obj
 0001:00041fd0       ?get_skip_header@Archive@@AEAA_KPEAUIInStream@@AEBV?$vector@EV?$allocator@E@std@@@std@@@Z 0000000064042fd0 f   open.obj
 0001:00042100       ?open@Archive@@CAXAEBUOpenOptions@@AEAV?$vector@V?$shared_ptr@VArchive@@@std@@V?$allocator@V?$shared_ptr@VArchive@@@std@@@2@@std@@@Z 0000000064043100 f   open.obj
 0001:00042a00       ?open@Archive@@SA?AV?$unique_ptr@V?$vector@V?$shared_ptr@VArchive@@@std@@V?$allocator@V?$shared_ptr@VArchive@@@std@@@2@@std@@U?$default_delete@V?$vector@V?$shared_ptr@VArchive@@@std@@V?$allocator@V?$shared_ptr@VArchive@@@std@@@2@@std@@@2@@std@@AEBUOpenOptions@@@Z 0000000064043a00 f   open.obj
 0001:00042ac0       ?reopen@Archive@@QEAAXXZ   0000000064043ac0 f   open.obj
 0001:00042ff0       ?close@Archive@@QEAAXXZ    0000000064043ff0 f   open.obj
 0001:00043060       ??1?$ComObject@UIArchiveOpenCallback@@@@QEAA@XZ 0000000064044060 f i open.obj
 0001:000430c0       ??1?$vector@UStrPos@@V?$allocator@UStrPos@@@std@@@std@@QEAA@XZ 00000000640440c0 f i open.obj
 0001:000430c0       ??1?$vector@USigData@@V?$allocator@USigData@@@std@@@std@@QEAA@XZ 00000000640440c0 f i open.obj
 0001:00043100       ??6?$basic_ostream@_WU?$char_traits@_W@std@@@std@@QEAAAEAV01@_K@Z 0000000064044100 f i open.obj
 0001:000432b0       ?_Reserve@?$vector@V?$shared_ptr@VArchive@@@std@@V?$allocator@V?$shared_ptr@VArchive@@@std@@@2@@std@@IEAAX_K@Z 00000000640442b0 f i open.obj
 0001:00043340       ?_Reallocate@?$vector@USigData@@V?$allocator@USigData@@@std@@@std@@IEAAX_K@Z 0000000064044340 f i open.obj
 0001:00043340       ?_Reallocate@?$vector@UStrPos@@V?$allocator@UStrPos@@@std@@@std@@IEAAX_K@Z 0000000064044340 f i msearch.obj
 0001:000433c0       ?erase@?$_Tree@V?$_Tset_traits@V?$vector@EV?$allocator@E@std@@@std@@U?$less@V?$vector@EV?$allocator@E@std@@@std@@@2@V?$allocator@V?$vector@EV?$allocator@E@std@@@std@@@2@$0A@@std@@@std@@QEAA?AV?$_Tree_const_iterator@V?$_Tree_val@U?$_Tree_simple_types@V?$vector@EV?$allocator@E@std@@@std@@@std@@@std@@@2@V32@0@Z 00000000640443c0 f i open.obj
 0001:000434b0       ?_Reallocate@?$vector@V?$shared_ptr@VArchive@@@std@@V?$allocator@V?$shared_ptr@VArchive@@@std@@@2@@std@@IEAAX_K@Z 00000000640444b0 f i open.obj
 0001:00043540       ?erase@?$_Tree@V?$_Tset_traits@V?$vector@EV?$allocator@E@std@@@std@@U?$less@V?$vector@EV?$allocator@E@std@@@std@@@2@V?$allocator@V?$vector@EV?$allocator@E@std@@@std@@@2@$0A@@std@@@std@@QEAA?AV?$_Tree_const_iterator@V?$_Tree_val@U?$_Tree_simple_types@V?$vector@EV?$allocator@E@std@@@std@@@std@@@std@@@2@V32@@Z 0000000064044540 f i open.obj
 0001:000439d0       ?allocate@?$allocator@UStrPos@@@std@@QEAAPEAUStrPos@@_K@Z 00000000640449d0 f i msearch.obj
 0001:000439d0       ?allocate@?$allocator@USigData@@@std@@QEAAPEAUSigData@@_K@Z 00000000640449d0 f i open.obj
 0001:000439d0       ?allocate@?$allocator@V?$shared_ptr@VArchive@@@std@@@std@@QEAAPEAV?$shared_ptr@VArchive@@@2@_K@Z 00000000640449d0 f i open.obj
 0001:00043a50       ?_Buyheadnode@?$_Tree_comp_alloc@V?$_Tset_traits@V?$vector@EV?$allocator@E@std@@@std@@U?$less@V?$vector@EV?$allocator@E@std@@@std@@@2@V?$allocator@V?$vector@EV?$allocator@E@std@@@std@@@2@$0A@@std@@@std@@QEAAPEAU?$_Tree_node@V?$vector@EV?$allocator@E@std@@@std@@PEAX@2@XZ 0000000064044a50 f i open.obj
 0001:00043a90       ?_Erase@?$_Tree@V?$_Tset_traits@V?$vector@EV?$allocator@E@std@@@std@@U?$less@V?$vector@EV?$allocator@E@std@@@std@@@2@V?$allocator@V?$vector@EV?$allocator@E@std@@@std@@@2@$0A@@std@@@std@@IEAAXPEAU?$_Tree_node@V?$vector@EV?$allocator@E@std@@@std@@PEAX@2@@Z 0000000064044a90 f i open.obj
 0001:00043b70       ??$assign@V?$_List_iterator@V?$_List_val@U?$_List_simple_types@UArcEntry@@@std@@@std@@@std@@@?$list@UArcEntry@@V?$allocator@UArcEntry@@@std@@@std@@QEAAXV?$_List_iterator@V?$_List_val@U?$_List_simple_types@UArcEntry@@@std@@@std@@@1@0@Z 0000000064044b70 f i open.obj
 0001:00043c60       ??$_Copy@U_Copy_tag@?$_Tree@V?$_Tset_traits@V?$basic_string@_WU?$char_traits@_W@std@@V?$allocator@_W@2@@std@@U?$less@V?$basic_string@_WU?$char_traits@_W@std@@V?$allocator@_W@2@@std@@@2@V?$allocator@V?$basic_string@_WU?$char_traits@_W@std@@V?$allocator@_W@2@@std@@@2@$0A@@std@@@std@@@?$_Tree@V?$_Tset_traits@V?$basic_string@_WU?$char_traits@_W@std@@V?$allocator@_W@2@@std@@U?$less@V?$basic_string@_WU?$char_traits@_W@std@@V?$allocator@_W@2@@std@@@2@V?$allocator@V?$basic_string@_WU?$char_traits@_W@std@@V?$allocator@_W@2@@std@@@2@$0A@@std@@@std@@IEAAXAEBV01@U_Copy_tag@01@@Z 0000000064044c60 f i open.obj
 0001:00043d10       ?erase@?$list@UArcEntry@@V?$allocator@UArcEntry@@@std@@@std@@QEAA?AV?$_List_iterator@V?$_List_val@U?$_List_simple_types@UArcEntry@@@std@@@std@@@2@V?$_List_const_iterator@V?$_List_val@U?$_List_simple_types@UArcEntry@@@std@@@std@@@2@0@Z 0000000064044d10 f i open.obj
 0001:00043e40       ??$_Insert_nohint@V?$basic_string@_WU?$char_traits@_W@std@@V?$allocator@_W@2@@std@@U_Nil@2@@?$_Tree@V?$_Tset_traits@V?$basic_string@_WU?$char_traits@_W@std@@V?$allocator@_W@2@@std@@U?$less@V?$basic_string@_WU?$char_traits@_W@std@@V?$allocator@_W@2@@std@@@2@V?$allocator@V?$basic_string@_WU?$char_traits@_W@std@@V?$allocator@_W@2@@std@@@2@$0A@@std@@@std@@IEAA?AU?$pair@V?$_Tree_const_iterator@V?$_Tree_val@U?$_Tree_simple_types@V?$basic_string@_WU?$char_traits@_W@std@@V?$allocator@_W@2@@std@@@std@@@std@@@std@@_N@1@_N$$QEAV?$basic_string@_WU?$char_traits@_W@std@@V?$allocator@_W@2@@1@U_Nil@1@@Z 0000000064044e40 f i open.obj
 0001:00044070       ??$_For_each@V?$_List_unchecked_const_iterator@V?$_List_val@U?$_List_simple_types@V?$vector@EV?$allocator@E@std@@@std@@@std@@@std@@U_Iterator_base0@2@@std@@V<lambda_c3f5cc22ce6be14a013cbfb263a450c4>@@@std@@YAXV?$_List_unchecked_const_iterator@V?$_List_val@U?$_List_simple_types@V?$vector@EV?$allocator@E@std@@@std@@@std@@@std@@U_Iterator_base0@2@@0@0AEAV<lambda_c3f5cc22ce6be14a013cbfb263a450c4>@@@Z 0000000064045070 f i open.obj
 0001:00044300       ??$_Insert_nohint@AEBV?$vector@EV?$allocator@E@std@@@std@@U_Nil@2@@?$_Tree@V?$_Tset_traits@V?$vector@EV?$allocator@E@std@@@std@@U?$less@V?$vector@EV?$allocator@E@std@@@std@@@2@V?$allocator@V?$vector@EV?$allocator@E@std@@@std@@@2@$0A@@std@@@std@@IEAA?AU?$pair@V?$_Tree_const_iterator@V?$_Tree_val@U?$_Tree_simple_types@V?$vector@EV?$allocator@E@std@@@std@@@std@@@std@@@std@@_N@1@_NAEBV?$vector@EV?$allocator@E@std@@@1@U_Nil@1@@Z 0000000064045300 f i open.obj
 0001:000444e0       ??$_For_each@PEAUStrPos@@V<lambda_9b883e23485788037fe9ca6ad2407974>@@@std@@YAXPEAUStrPos@@0AEAV<lambda_9b883e23485788037fe9ca6ad2407974>@@@Z 00000000640454e0 f i open.obj
 0001:00044700       ??$_For_each@V?$_List_unchecked_iterator@V?$_List_val@U?$_List_simple_types@V?$vector@EV?$allocator@E@std@@@std@@@std@@@std@@@std@@V<lambda_df64c1c8ed24e2775896adbd771b1863>@@@std@@YAXV?$_List_unchecked_iterator@V?$_List_val@U?$_List_simple_types@V?$vector@EV?$allocator@E@std@@@std@@@std@@@std@@@0@0AEAV<lambda_df64c1c8ed24e2775896adbd771b1863>@@@Z 0000000064045700 f i open.obj
 0001:00044910       ??$_For_each@V?$_List_unchecked_const_iterator@V?$_List_val@U?$_List_simple_types@V?$vector@EV?$allocator@E@std@@@std@@@std@@@std@@U_Iterator_base0@2@@std@@V<lambda_ac9404e4ce74952d98db4062b58fcf04>@@@std@@YAXV?$_List_unchecked_const_iterator@V?$_List_val@U?$_List_simple_types@V?$vector@EV?$allocator@E@std@@@std@@@std@@@std@@U_Iterator_base0@2@@0@0AEAV<lambda_ac9404e4ce74952d98db4062b58fcf04>@@@Z 0000000064045910 f i open.obj
 0001:00044ad0       ??$_Reusenode@AEAUArcEntry@@@?$list@UArcEntry@@V?$allocator@UArcEntry@@@std@@@std@@QEAAXV?$_List_iterator@V?$_List_val@U?$_List_simple_types@UArcEntry@@@std@@@std@@@1@AEAUArcEntry@@@Z 0000000064045ad0 f i open.obj
 0001:00044b30       ??$_Move_unchecked1@PEAV?$shared_ptr@VArchive@@@std@@PEAV12@@std@@YAPEAV?$shared_ptr@VArchive@@@0@PEAV10@00U_General_ptr_iterator_tag@0@@Z 0000000064045b30 f i open.obj
 0001:00044bf0       ??$_Buynode@AEAUArcEntry@@@?$_List_buy@UArcEntry@@V?$allocator@UArcEntry@@@std@@@std@@QEAAPEAU?$_List_node@UArcEntry@@PEAX@1@PEAU21@0AEAUArcEntry@@@Z 0000000064045bf0 f i open.obj
 0001:00044bf0       ??$_Buynode@AEBUArcEntry@@@?$_List_buy@UArcEntry@@V?$allocator@UArcEntry@@@std@@@std@@QEAAPEAU?$_List_node@UArcEntry@@PEAX@1@PEAU21@0AEBUArcEntry@@@Z 0000000064045bf0 f i open.obj
 0001:00044c60       ??$_Buynode@UArcEntry@@@?$_List_buy@UArcEntry@@V?$allocator@UArcEntry@@@std@@@std@@QEAAPEAU?$_List_node@UArcEntry@@PEAX@1@PEAU21@0$$QEAUArcEntry@@@Z 0000000064045c60 f i open.obj
 0001:00044cc0       ??$_Copy_nodes@U_Copy_tag@?$_Tree@V?$_Tset_traits@V?$basic_string@_WU?$char_traits@_W@std@@V?$allocator@_W@2@@std@@U?$less@V?$basic_string@_WU?$char_traits@_W@std@@V?$allocator@_W@2@@std@@@2@V?$allocator@V?$basic_string@_WU?$char_traits@_W@std@@V?$allocator@_W@2@@std@@@2@$0A@@std@@@std@@@?$_Tree@V?$_Tset_traits@V?$basic_string@_WU?$char_traits@_W@std@@V?$allocator@_W@2@@std@@U?$less@V?$basic_string@_WU?$char_traits@_W@std@@V?$allocator@_W@2@@std@@@2@V?$allocator@V?$basic_string@_WU?$char_traits@_W@std@@V?$allocator@_W@2@@std@@@2@$0A@@std@@@std@@IEAAPEAU?$_Tree_node@V?$basic_string@_WU?$char_traits@_W@std@@V?$allocator@_W@2@@std@@PEAX@1@PEAU21@0U_Copy_tag@01@@Z 0000000064045cc0 f i open.obj
 0001:00044d60       ??$_Insert_at@V?$basic_string@_WU?$char_traits@_W@std@@V?$allocator@_W@2@@std@@U_Nil@2@@?$_Tree@V?$_Tset_traits@V?$basic_string@_WU?$char_traits@_W@std@@V?$allocator@_W@2@@std@@U?$less@V?$basic_string@_WU?$char_traits@_W@std@@V?$allocator@_W@2@@std@@@2@V?$allocator@V?$basic_string@_WU?$char_traits@_W@std@@V?$allocator@_W@2@@std@@@2@$0A@@std@@@std@@IEAA?AV?$_Tree_const_iterator@V?$_Tree_val@U?$_Tree_simple_types@V?$basic_string@_WU?$char_traits@_W@std@@V?$allocator@_W@2@@std@@@std@@@std@@@1@_NPEAU?$_Tree_node@V?$basic_string@_WU?$char_traits@_W@std@@V?$allocator@_W@2@@std@@PEAX@1@$$QEAV?$basic_string@_WU?$char_traits@_W@std@@V?$allocator@_W@2@@1@U_Nil@1@@Z 0000000064045d60 f i open.obj
 0001:00045030       ??$_Insert_at@AEBV?$vector@EV?$allocator@E@std@@@std@@U_Nil@2@@?$_Tree@V?$_Tset_traits@V?$vector@EV?$allocator@E@std@@@std@@U?$less@V?$vector@EV?$allocator@E@std@@@std@@@2@V?$allocator@V?$vector@EV?$allocator@E@std@@@std@@@2@$0A@@std@@@std@@IEAA?AV?$_Tree_const_iterator@V?$_Tree_val@U?$_Tree_simple_types@V?$vector@EV?$allocator@E@std@@@std@@@std@@@std@@@1@_NPEAU?$_Tree_node@V?$vector@EV?$allocator@E@std@@@std@@PEAX@1@AEBV?$vector@EV?$allocator@E@std@@@1@U_Nil@1@@Z 0000000064046030 f i open.obj
 0001:00045300       ??$_Uninitialized_move_al_unchecked1@PEAUSigData@@PEAU1@V?$allocator@USigData@@@std@@@std@@YAPEAUSigData@@PEAU1@00AEAU?$_Wrap_alloc@V?$allocator@USigData@@@std@@@0@U_General_ptr_iterator_tag@0@@Z 0000000064046300 f i open.obj
 0001:00045300       ??$_Uninitialized_move_al_unchecked1@PEAUStrPos@@PEAU1@V?$allocator@UStrPos@@@std@@@std@@YAPEAUStrPos@@PEAU1@00AEAU?$_Wrap_alloc@V?$allocator@UStrPos@@@std@@@0@U_General_ptr_iterator_tag@0@@Z 0000000064046300 f i msearch.obj
 0001:00045330       ??$_Uninitialized_move_al_unchecked1@PEAV?$shared_ptr@VArchive@@@std@@PEAV12@V?$allocator@V?$shared_ptr@VArchive@@@std@@@2@@std@@YAPEAV?$shared_ptr@VArchive@@@0@PEAV10@00AEAU?$_Wrap_alloc@V?$allocator@V?$shared_ptr@VArchive@@@std@@@std@@@0@U_General_ptr_iterator_tag@0@@Z 0000000064046330 f i open.obj
 0001:00045370       ??$_Buynode@V?$basic_string@_WU?$char_traits@_W@std@@V?$allocator@_W@2@@std@@@?$_Tree_comp_alloc@V?$_Tset_traits@V?$basic_string@_WU?$char_traits@_W@std@@V?$allocator@_W@2@@std@@U?$less@V?$basic_string@_WU?$char_traits@_W@std@@V?$allocator@_W@2@@std@@@2@V?$allocator@V?$basic_string@_WU?$char_traits@_W@std@@V?$allocator@_W@2@@std@@@2@$0A@@std@@@std@@QEAAPEAU?$_Tree_node@V?$basic_string@_WU?$char_traits@_W@std@@V?$allocator@_W@2@@std@@PEAX@1@$$QEAV?$basic_string@_WU?$char_traits@_W@std@@V?$allocator@_W@2@@1@@Z 0000000064046370 f i open.obj
 0001:000453d0       ??$_Buynode@AEBV?$vector@EV?$allocator@E@std@@@std@@@?$_Tree_comp_alloc@V?$_Tset_traits@V?$vector@EV?$allocator@E@std@@@std@@U?$less@V?$vector@EV?$allocator@E@std@@@std@@@2@V?$allocator@V?$vector@EV?$allocator@E@std@@@std@@@2@$0A@@std@@@std@@QEAAPEAU?$_Tree_node@V?$vector@EV?$allocator@E@std@@@std@@PEAX@1@AEBV?$vector@EV?$allocator@E@std@@@1@@Z 00000000640463d0 f i open.obj
 0001:00045430       ?_Buynode0@?$_Tree_comp_alloc@V?$_Tset_traits@V?$vector@EV?$allocator@E@std@@@std@@U?$less@V?$vector@EV?$allocator@E@std@@@std@@@2@V?$allocator@V?$vector@EV?$allocator@E@std@@@std@@@2@$0A@@std@@@std@@QEAAPEAU?$_Tree_node@V?$vector@EV?$allocator@E@std@@@std@@PEAX@2@XZ 0000000064046430 f i open.obj
 0001:00045480       ?Release@ArchiveOpener@@WBA@EAAKXZ 0000000064046480 f i open.obj
 0001:0004548c       ?QueryInterface@ArchiveOpener@@WBA@EAAJAEBU_GUID@@PEAPEAX@Z 000000006404648c f i open.obj
 0001:00045498       ??_EArchiveOpener@@WCI@EAAPEAXI@Z 0000000064046498 f i open.obj
 0001:000454a4       ?AddRef@ArchiveOpener@@WBA@EAAKXZ 00000000640464a4 f i open.obj
 0001:000454b0       ??_EArchiveSubStream@@W7EAAPEAXI@Z 00000000640464b0 f i open.obj
 0001:000454bc       ?Release@ArchiveOpener@@WBI@EAAKXZ 00000000640464bc f i open.obj
 0001:000454c8       ?QueryInterface@ArchiveOpener@@WBI@EAAJAEBU_GUID@@PEAPEAX@Z 00000000640464c8 f i open.obj
 0001:000454d4       ??_EArchiveOpenStream@@W7EAAPEAXI@Z 00000000640464d4 f i open.obj
 0001:000454e0       ?AddRef@MultiVolumeUpdateStream@@WBI@EAAKXZ 00000000640464e0 f i update.obj
 0001:000454e0       ?AddRef@SimpleUpdateStream@@WBI@EAAKXZ 00000000640464e0 f i update.obj
 0001:000454e0       ?AddRef@SfxUpdateStream@@WBI@EAAKXZ 00000000640464e0 f i update.obj
 0001:000454e0       ?AddRef@ArchiveOpener@@WBI@EAAKXZ 00000000640464e0 f i open.obj
 0001:000454ec       ?QueryInterface@ArchiveSubStream@@W7EAAJAEBU_GUID@@PEAPEAX@Z 00000000640464ec f i open.obj
 0001:000454f8       ??_EArchiveOpener@@WBI@EAAPEAXI@Z 00000000640464f8 f i open.obj
 0001:00045504       ?QueryInterface@ArchiveOpenStream@@W7EAAJAEBU_GUID@@PEAPEAX@Z 0000000064046504 f i open.obj
 0001:00045510       ?Release@ArchiveOpener@@W7EAAKXZ 0000000064046510 f i open.obj
 0001:0004551c       ?QueryInterface@ArchiveOpener@@W7EAAJAEBU_GUID@@PEAPEAX@Z 000000006404651c f i open.obj
 0001:00045528       ?AddRef@ArchiveOpener@@W7EAAKXZ 0000000064046528 f i open.obj
 0001:00045540       ??0PropVariant@@QEAA@AEBV?$basic_string@_WU?$char_traits@_W@std@@V?$allocator@_W@2@@std@@@Z 0000000064046540 f i update.obj
 0001:000455d0       ??4PropVariant@@QEAAAEAV0@AEBV?$basic_string@_WU?$char_traits@_W@std@@V?$allocator@_W@2@@std@@@Z 00000000640465d0 f i update.obj
 0001:000456c0       ?format_time@@YA?AV?$basic_string@_WU?$char_traits@_W@std@@V?$allocator@_W@2@@std@@_K@Z 00000000640466c0 f   update.obj
 0001:00045860       ?do_update_ui@ArchiveUpdateProgress@@EEAAXXZ 0000000064046860 f i update.obj
 0001:00046050       ??0ArchiveUpdateProgress@@QEAA@_NAEBV?$basic_string@_WU?$char_traits@_W@std@@V?$allocator@_W@2@@std@@@Z 0000000064047050 f i update.obj
 0001:00046190       ?on_open_file@ArchiveUpdateProgress@@QEAAXAEBV?$basic_string@_WU?$char_traits@_W@std@@V?$allocator@_W@2@@std@@_K@Z 0000000064047190 f i update.obj
 0001:00046260       ?on_read_file@ArchiveUpdateProgress@@QEAAXI@Z 0000000064047260 f i update.obj
 0001:00046300       ?on_write_archive@ArchiveUpdateProgress@@QEAAXI@Z 0000000064047300 f i update.obj
 0001:000463a0       ?on_total_update@ArchiveUpdateProgress@@QEAAX_K@Z 00000000640473a0 f i update.obj
 0001:00046440       ?on_completed_update@ArchiveUpdateProgress@@QEAAX_K@Z 0000000064047440 f i update.obj
 0001:000464e0       ??_EArchiveUpdateProgress@@UEAAPEAXI@Z 00000000640474e0 f i * CIL library *:* CIL module *
 0001:000464e0       ??_GArchiveUpdateProgress@@UEAAPEAXI@Z 00000000640474e0 f i update.obj
 0001:00046520       ??1ArchiveUpdateProgress@@UEAA@XZ 0000000064047520 f i update.obj
 0001:000465c0       ?translate_seek_method@@YAKI@Z 00000000640475c0 f   update.obj
 0001:00046640       ??0UpdateStream@@QEAA@V?$shared_ptr@VArchiveUpdateProgress@@@std@@@Z 0000000064047640 f i update.obj
 0001:000466e0       ??1UpdateStream@@UEAA@XZ   00000000640476e0 f i update.obj
 0001:00046740       ??_GUpdateStream@@UEAAPEAXI@Z 0000000064047740 f i update.obj
 0001:00046740       ??_EUpdateStream@@UEAAPEAXI@Z 0000000064047740 f i * CIL library *:* CIL module *
 0001:000467d0       ??0SimpleUpdateStream@@QEAA@AEBV?$basic_string@_WU?$char_traits@_W@std@@V?$allocator@_W@2@@std@@V?$shared_ptr@VArchiveUpdateProgress@@@2@@Z 00000000640477d0 f i update.obj
 0001:00046910       ?QueryInterface@MultiVolumeUpdateStream@@UEAAJAEBU_GUID@@PEAPEAX@Z 0000000064047910 f i update.obj
 0001:00046910       ?QueryInterface@SimpleUpdateStream@@UEAAJAEBU_GUID@@PEAPEAX@Z 0000000064047910 f i update.obj
 0001:00046910       ?QueryInterface@SfxUpdateStream@@UEAAJAEBU_GUID@@PEAPEAX@Z 0000000064047910 f i update.obj
 0001:000469b0       ?Release@SimpleUpdateStream@@UEAAKXZ 00000000640479b0 f i update.obj
 0001:000469b0       ?Release@MultiVolumeUpdateStream@@UEAAKXZ 00000000640479b0 f i update.obj
 0001:000469b0       ?Release@SfxUpdateStream@@UEAAKXZ 00000000640479b0 f i update.obj
 0001:000469d0       ?Write@SimpleUpdateStream@@UEAAJPEBXIPEAI@Z 00000000640479d0 f i update.obj
 0001:000469d0       ?Write@SfxUpdateStream@@UEAAJPEBXIPEAI@Z 00000000640479d0 f i update.obj
 0001:00046a70       ?Seek@SimpleUpdateStream@@UEAAJ_JIPEA_K@Z 0000000064047a70 f i update.obj
 0001:00046ae0       ?SetSize@SimpleUpdateStream@@UEAAJ_K@Z 0000000064047ae0 f i update.obj
 0001:00046b40       ?clean_files@SfxUpdateStream@@UEAAXXZ 0000000064047b40 f i update.obj
 0001:00046b40       ?clean_files@SimpleUpdateStream@@UEAAXXZ 0000000064047b40 f i update.obj
 0001:00046b70       ??_GSimpleUpdateStream@@UEAAPEAXI@Z 0000000064047b70 f i update.obj
 0001:00046b70       ??_ESimpleUpdateStream@@UEAAPEAXI@Z 0000000064047b70 f i * CIL library *:* CIL module *
 0001:00046bb0       ??1SimpleUpdateStream@@UEAA@XZ 0000000064047bb0 f i update.obj
 0001:00046bb0       ??1SfxUpdateStream@@UEAA@XZ 0000000064047bb0 f i update.obj
 0001:00046c70       ??0SfxUpdateStream@@QEAA@AEBV?$basic_string@_WU?$char_traits@_W@std@@V?$allocator@_W@2@@std@@AEBUSfxOptions@@V?$shared_ptr@VArchiveUpdateProgress@@@2@@Z 0000000064047c70 f i update.obj
 0001:00046df0       ?Seek@SfxUpdateStream@@UEAAJ_JIPEA_K@Z 0000000064047df0 f i update.obj
 0001:00046ed0       ?SetSize@SfxUpdateStream@@UEAAJ_K@Z 0000000064047ed0 f i update.obj
 0001:00046f40       ??_ESfxUpdateStream@@UEAAPEAXI@Z 0000000064047f40 f i * CIL library *:* CIL module *
 0001:00046f40       ??_GSfxUpdateStream@@UEAAPEAXI@Z 0000000064047f40 f i update.obj
 0001:00046f80       ?get_volume_path@MultiVolumeUpdateStream@@AEAA?AV?$basic_string@_WU?$char_traits@_W@std@@V?$allocator@_W@2@@std@@_K@Z 0000000064047f80 f i update.obj
 0001:00047140       ?get_last_volume_idx@MultiVolumeUpdateStream@@AEAA_KXZ 0000000064048140 f i update.obj
 0001:00047160       ??0MultiVolumeUpdateStream@@QEAA@AEBV?$basic_string@_WU?$char_traits@_W@std@@V?$allocator@_W@2@@std@@_KV?$shared_ptr@VArchiveUpdateProgress@@@2@@Z 0000000064048160 f i update.obj
 0001:00047340       ?Write@MultiVolumeUpdateStream@@UEAAJPEBXIPEAI@Z 0000000064048340 f i update.obj
 0001:00047920       ?Seek@MultiVolumeUpdateStream@@UEAAJ_JIPEA_K@Z 0000000064048920 f i update.obj
 0001:00047a40       ?SetSize@MultiVolumeUpdateStream@@UEAAJ_K@Z 0000000064048a40 f i update.obj
 0001:00047dd0       ?clean_files@MultiVolumeUpdateStream@@UEAAXXZ 0000000064048dd0 f i update.obj
 0001:00048030       ??_GMultiVolumeUpdateStream@@UEAAPEAXI@Z 0000000064049030 f i update.obj
 0001:00048030       ??_EMultiVolumeUpdateStream@@UEAAPEAXI@Z 0000000064049030 f i * CIL library *:* CIL module *
 0001:00048070       ??1MultiVolumeUpdateStream@@UEAA@XZ 0000000064049070 f i update.obj
 0001:00048170       ??0FileReadStream@@QEAA@AEBV?$basic_string@_WU?$char_traits@_W@std@@V?$allocator@_W@2@@std@@_NV?$shared_ptr@VArchiveUpdateProgress@@@2@@Z 0000000064049170 f i update.obj
 0001:00048290       ?QueryInterface@FileReadStream@@UEAAJAEBU_GUID@@PEAPEAX@Z 0000000064049290 f i update.obj
 0001:00048330       ?Read@FileReadStream@@UEAAJPEAXIPEAI@Z 0000000064049330 f i update.obj
 0001:000483a0       ?Seek@ArchiveFileDeleterStream@@UEAAJ_JIPEA_K@Z 00000000640493a0 f i delete.obj
 0001:000483a0       ?Seek@FileReadStream@@UEAAJ_JIPEA_K@Z 00000000640493a0 f i update.obj
 0001:00048410       ??_GArchiveFileDeleterStream@@UEAAPEAXI@Z 0000000064049410 f i delete.obj
 0001:00048410       ??_EFileReadStream@@UEAAPEAXI@Z 0000000064049410 f i * CIL library *:* CIL module *
 0001:00048410       ??_EArchiveFileDeleterStream@@UEAAPEAXI@Z 0000000064049410 f i * CIL library *:* CIL module *
 0001:00048410       ??_GFileReadStream@@UEAAPEAXI@Z 0000000064049410 f i update.obj
 0001:00048450       ??1FileReadStream@@UEAA@XZ 0000000064049450 f i update.obj
 0001:00048450       ??1ArchiveFileDeleterStream@@UEAA@XZ 0000000064049450 f i delete.obj
 0001:00048500       ?do_update_ui@PrepareUpdate@@EEAAXXZ 0000000064049500 f i update.obj
 0001:000486b0       ?process_file@PrepareUpdate@@AEAA_NAEBV?$basic_string@_WU?$char_traits@_W@std@@V?$allocator@_W@2@@std@@AEBUFindData@@IAEAI@Z 00000000640496b0 f i update.obj
 0001:00048bc0       ?process_file_enum@PrepareUpdate@@AEAA_NAEAVFileEnum@@AEBV?$basic_string@_WU?$char_traits@_W@std@@V?$allocator@_W@2@@std@@I@Z 0000000064049bc0 f i update.obj
 0001:00049200       ??0PrepareUpdate@@QEAA@AEBV?$basic_string@_WU?$char_traits@_W@std@@V?$allocator@_W@2@@std@@AEBV?$vector@V?$basic_string@_WU?$char_traits@_W@std@@V?$allocator@_W@2@@std@@V?$allocator@V?$basic_string@_WU?$char_traits@_W@std@@V?$allocator@_W@2@@std@@@2@@2@IAEAVArchive@@AEAV?$map@IUFileIndexInfo@@U?$less@I@std@@V?$allocator@U?$pair@$$CBIUFileIndexInfo@@@std@@@3@@2@AEAIW4OverwriteAction@@AEA_NAEAV?$list@UError@@V?$allocator@UError@@@std@@@2@PEAVFileFilter@Far@@6@Z 000000006404a200 f i update.obj
 0001:00049670       ??4FileIndexInfo@@QEAAAEAU0@AEBU0@@Z 000000006404a670 f i update.obj
 0001:00049740       ??1FileEnum@@QEAA@XZ       000000006404a740 f i sysutils.obj
 0001:00049740       ??1DirList@@QEAA@XZ        000000006404a740 f i update.obj
 0001:000497a0       ??_GPrepareUpdate@@UEAAPEAXI@Z 000000006404a7a0 f i update.obj
 0001:000497a0       ??_EPrepareUpdate@@UEAAPEAXI@Z 000000006404a7a0 f i * CIL library *:* CIL module *
 0001:00049820       ??0ArchiveUpdater@@QEAA@AEBV?$basic_string@_WU?$char_traits@_W@std@@V?$allocator@_W@2@@std@@0IV?$shared_ptr@V?$map@IUFileIndexInfo@@U?$less@I@std@@V?$allocator@U?$pair@$$CBIUFileIndexInfo@@@std@@@3@@std@@@2@AEBUUpdateOptions@@V?$shared_ptr@_N@2@V?$shared_ptr@V?$list@UError@@V?$allocator@UError@@@std@@@std@@@2@V?$shared_ptr@VArchiveUpdateProgress@@@2@@Z 000000006404a820 f i update.obj
 0001:00049a80       ?QueryInterface@ArchiveUpdater@@UEAAJAEBU_GUID@@PEAPEAX@Z 000000006404aa80 f i update.obj
 0001:00049b50       ?SetTotal@ArchiveUpdater@@UEAAJ_K@Z 000000006404ab50 f i update.obj
 0001:00049c00       ?SetCompleted@ArchiveUpdater@@UEAAJPEB_K@Z 000000006404ac00 f i update.obj
 0001:00049cc0       ?GetUpdateItemInfo@ArchiveUpdater@@UEAAJIPEAH0PEAI@Z 000000006404acc0 f i update.obj
 0001:00049d50       ?GetProperty@ArchiveUpdater@@UEAAJIKPEAUtagPROPVARIANT@@@Z 000000006404ad50 f i update.obj
 0001:0004a110       ?GetStream@ArchiveUpdater@@UEAAJIPEAPEAUISequentialInStream@@@Z 000000006404b110 f i update.obj
 0001:0004a440       ?SetOperationResult@ArchiveUpdater@@UEAAJH@Z 000000006404b440 f i update.obj
 0001:0004a580       ?CryptoGetTextPassword2@ArchiveUpdater@@UEAAJPEAHPEAPEA_W@Z 000000006404b580 f i update.obj
 0001:0004a6c0       ??_EArchiveUpdater@@UEAAPEAXI@Z 000000006404b6c0 f i * CIL library *:* CIL module *
 0001:0004a6c0       ??_GArchiveUpdater@@UEAAPEAXI@Z 000000006404b6c0 f i update.obj
 0001:0004a700       ??1ArchiveUpdater@@UEAA@XZ 000000006404b700 f i update.obj
 0001:0004a870       ?set_properties@Archive@@AEAAXPEAUIOutArchive@@AEBUUpdateOptions@@@Z 000000006404b870 f   update.obj
 0001:0004b180       ?do_update_ui@DeleteSrcFiles@@EEAAXXZ 000000006404c180 f i update.obj
 0001:0004b330       ?delete_src_file@DeleteSrcFiles@@AEAAXAEBV?$basic_string@_WU?$char_traits@_W@std@@V?$allocator@_W@2@@std@@@Z 000000006404c330 f i update.obj
 0001:0004b380       ?delete_src_dir@DeleteSrcFiles@@AEAAXAEBV?$basic_string@_WU?$char_traits@_W@std@@V?$allocator@_W@2@@std@@@Z 000000006404c380 f i update.obj
 0001:0004b7f0       ??0DeleteSrcFiles@@QEAA@AEBV?$basic_string@_WU?$char_traits@_W@std@@V?$allocator@_W@2@@std@@AEBV?$vector@V?$basic_string@_WU?$char_traits@_W@std@@V?$allocator@_W@2@@std@@V?$allocator@V?$basic_string@_WU?$char_traits@_W@std@@V?$allocator@_W@2@@std@@@2@@2@AEA_NAEAV?$list@UError@@V?$allocator@UError@@@std@@@2@@Z 000000006404c7f0 f i update.obj
 0001:0004bb90       ??_GDeleteSrcFiles@@UEAAPEAXI@Z 000000006404cb90 f i update.obj
 0001:0004bb90       ??_EDeleteSrcFiles@@UEAAPEAXI@Z 000000006404cb90 f i * CIL library *:* CIL module *
 0001:0004bbd0       ?create@Archive@@QEAAXAEBV?$basic_string@_WU?$char_traits@_W@std@@V?$allocator@_W@2@@std@@AEBV?$vector@V?$basic_string@_WU?$char_traits@_W@std@@V?$allocator@_W@2@@std@@V?$allocator@V?$basic_string@_WU?$char_traits@_W@std@@V?$allocator@_W@2@@std@@@2@@3@AEBUUpdateOptions@@V?$shared_ptr@V?$list@UError@@V?$allocator@UError@@@std@@@std@@@3@@Z 000000006404cbd0 f   update.obj
 0001:0004c4d0       ?update@Archive@@QEAAXAEBV?$basic_string@_WU?$char_traits@_W@std@@V?$allocator@_W@2@@std@@AEBV?$vector@V?$basic_string@_WU?$char_traits@_W@std@@V?$allocator@_W@2@@std@@V?$allocator@V?$basic_string@_WU?$char_traits@_W@std@@V?$allocator@_W@2@@std@@@2@@3@0AEBUUpdateOptions@@V?$shared_ptr@V?$list@UError@@V?$allocator@UError@@@std@@@std@@@3@@Z 000000006404d4d0 f   update.obj
 0001:0004cec0       ?create_dir@Archive@@QEAAXAEBV?$basic_string@_WU?$char_traits@_W@std@@V?$allocator@_W@2@@std@@0@Z 000000006404dec0 f   update.obj
 0001:0004d820       ?push_back@?$vector@PEB_WV?$allocator@PEB_W@std@@@std@@QEAAX$$QEAPEB_W@Z 000000006404e820 f i update.obj
 0001:0004d8b0       ??1?$vector@VPropVariant@@V?$allocator@VPropVariant@@@std@@@std@@QEAA@XZ 000000006404e8b0 f i update.obj
 0001:0004d910       ?push_back@?$vector@VPropVariant@@V?$allocator@VPropVariant@@@std@@@std@@QEAAX$$QEAVPropVariant@@@Z 000000006404e910 f i update.obj
 0001:0004d9a0       ?erase@?$_Tree@V?$_Tmap_traits@IUFileIndexInfo@@U?$less@I@std@@V?$allocator@U?$pair@$$CBIUFileIndexInfo@@@std@@@3@$0A@@std@@@std@@QEAA_KAEBI@Z 000000006404e9a0 f i update.obj
 0001:0004db50       ??A?$map@IUFileIndexInfo@@U?$less@I@std@@V?$allocator@U?$pair@$$CBIUFileIndexInfo@@@std@@@3@@std@@QEAAAEAUFileIndexInfo@@AEBI@Z 000000006404eb50 f i update.obj
 0001:0004dbf0       ??6?$basic_ostream@_WU?$char_traits@_W@std@@@std@@QEAAAEAV01@I@Z 000000006404ebf0 f i update.obj
 0001:0004dda0       ?_Reserve@?$vector@PEB_WV?$allocator@PEB_W@std@@@std@@IEAAX_K@Z 000000006404eda0 f i update.obj
 0001:0004de30       ?_Reallocate@?$vector@PEB_WV?$allocator@PEB_W@std@@@std@@IEAAX_K@Z 000000006404ee30 f i update.obj
 0001:0004deb0       ?_Reserve@?$vector@VPropVariant@@V?$allocator@VPropVariant@@@std@@@std@@IEAAX_K@Z 000000006404eeb0 f i update.obj
 0001:0004df80       ?_Reallocate@?$vector@VPropVariant@@V?$allocator@VPropVariant@@@std@@@std@@IEAAX_K@Z 000000006404ef80 f i update.obj
 0001:0004e060       ?_Buyheadnode@?$_Tree_comp_alloc@V?$_Tmap_traits@IUFileIndexInfo@@U?$less@I@std@@V?$allocator@U?$pair@$$CBIUFileIndexInfo@@@std@@@3@$0A@@std@@@std@@QEAAPEAU?$_Tree_node@U?$pair@$$CBIUFileIndexInfo@@@std@@PEAX@2@XZ 000000006404f060 f i update.obj
 0001:0004e0a0       ??$equal_range@V?$_Vector_iterator@V?$_Vector_val@U?$_Simple_types@I@std@@@std@@@std@@HV<lambda_12363f22b8a5af8af763227c9189ef78>@@@std@@YA?AU?$pair@V?$_Vector_iterator@V?$_Vector_val@U?$_Simple_types@I@std@@@std@@@std@@V12@@0@V?$_Vector_iterator@V?$_Vector_val@U?$_Simple_types@I@std@@@std@@@0@0AEBHV<lambda_12363f22b8a5af8af763227c9189ef78>@@@Z 000000006404f0a0 f i update.obj
 0001:0004e2c0       ??$construct@VPropVariant@@V1@@?$_Wrap_alloc@V?$allocator@VPropVariant@@@std@@@std@@QEAAXPEAVPropVariant@@$$QEAV2@@Z 000000006404f2c0 f i update.obj
 0001:0004e340       ??$_Destroy_range@U?$_Wrap_alloc@V?$allocator@VPropVariant@@@std@@@std@@@std@@YAXPEAVPropVariant@@0AEAU?$_Wrap_alloc@V?$allocator@VPropVariant@@@std@@@0@@Z 000000006404f340 f i update.obj
 0001:0004e3d0       ??$_For_each@V?$_List_unchecked_iterator@V?$_List_val@U?$_List_simple_types@V?$basic_string@_WU?$char_traits@_W@std@@V?$allocator@_W@2@@std@@@std@@@std@@@std@@V<lambda_3101c55787d5484aa62400d95ffdda88>@@@std@@YAXV?$_List_unchecked_iterator@V?$_List_val@U?$_List_simple_types@V?$basic_string@_WU?$char_traits@_W@std@@V?$allocator@_W@2@@std@@@std@@@std@@@0@0AEAV<lambda_3101c55787d5484aa62400d95ffdda88>@@@Z 000000006404f3d0 f i update.obj
 0001:0004e850       ??$_Resetp@V?$map@IUFileIndexInfo@@U?$less@I@std@@V?$allocator@U?$pair@$$CBIUFileIndexInfo@@@std@@@3@@std@@@?$shared_ptr@V?$map@IUFileIndexInfo@@U?$less@I@std@@V?$allocator@U?$pair@$$CBIUFileIndexInfo@@@std@@@3@@std@@@std@@AEAAXPEAV?$map@IUFileIndexInfo@@U?$less@I@std@@V?$allocator@U?$pair@$$CBIUFileIndexInfo@@@std@@@3@@1@@Z 000000006404f850 f i update.obj
 0001:0004e8b0       ??$_Resetp@VArchiveUpdateProgress@@@?$shared_ptr@VArchiveUpdateProgress@@@std@@AEAAXPEAVArchiveUpdateProgress@@@Z 000000006404f8b0 f i update.obj
 0001:0004e910       ??_G?$map@IUFileIndexInfo@@U?$less@I@std@@V?$allocator@U?$pair@$$CBIUFileIndexInfo@@@std@@@3@@std@@QEAAPEAXI@Z 000000006404f910 f i update.obj
 0001:0004e950       ?_Destroy@?$_Ref_count@V?$map@IUFileIndexInfo@@U?$less@I@std@@V?$allocator@U?$pair@$$CBIUFileIndexInfo@@@std@@@3@@std@@@std@@EEAAXXZ 000000006404f950 f i update.obj
 0001:0004e9a0       ??$lower_bound@PEAIHV<lambda_12363f22b8a5af8af763227c9189ef78>@@@std@@YAPEAIPEAI0AEBHV<lambda_12363f22b8a5af8af763227c9189ef78>@@@Z 000000006404f9a0 f i update.obj
 0001:0004ead0       ??$upper_bound@PEAIHV<lambda_12363f22b8a5af8af763227c9189ef78>@@@std@@YAPEAIPEAI0AEBHV<lambda_12363f22b8a5af8af763227c9189ef78>@@@Z 000000006404fad0 f i update.obj
 0001:0004ec00       ??$_Buynode@AEBUpiecewise_construct_t@std@@V?$tuple@AEBI@2@V?$tuple@$$V@2@@?$_Tree_comp_alloc@V?$_Tmap_traits@IUFileIndexInfo@@U?$less@I@std@@V?$allocator@U?$pair@$$CBIUFileIndexInfo@@@std@@@3@$0A@@std@@@std@@QEAAPEAU?$_Tree_node@U?$pair@$$CBIUFileIndexInfo@@@std@@PEAX@1@AEBUpiecewise_construct_t@1@$$QEAV?$tuple@AEBI@1@$$QEAV?$tuple@$$V@1@@Z 000000006404fc00 f i update.obj
 0001:0004ec70       ??$_Insert_hint@AEAU?$pair@$$CBIUFileIndexInfo@@@std@@PEAU?$_Tree_node@U?$pair@$$CBIUFileIndexInfo@@@std@@PEAX@2@@?$_Tree@V?$_Tmap_traits@IUFileIndexInfo@@U?$less@I@std@@V?$allocator@U?$pair@$$CBIUFileIndexInfo@@@std@@@3@$0A@@std@@@std@@IEAA?AV?$_Tree_iterator@V?$_Tree_val@U?$_Tree_simple_types@U?$pair@$$CBIUFileIndexInfo@@@std@@@std@@@std@@@1@V?$_Tree_const_iterator@V?$_Tree_val@U?$_Tree_simple_types@U?$pair@$$CBIUFileIndexInfo@@@std@@@std@@@std@@@1@AEAU?$pair@$$CBIUFileIndexInfo@@@1@PEAU?$_Tree_node@U?$pair@$$CBIUFileIndexInfo@@@std@@PEAX@1@@Z 000000006404fc70 f i update.obj
 0001:0004eec0       ??$_Uninitialized_move_al_unchecked1@PEAVPropVariant@@PEAV1@V?$allocator@VPropVariant@@@std@@@std@@YAPEAVPropVariant@@PEAV1@00AEAU?$_Wrap_alloc@V?$allocator@VPropVariant@@@std@@@0@U_General_ptr_iterator_tag@0@@Z 000000006404fec0 f i update.obj
 0001:0004ef80       ??_GPropVariant@@QEAAPEAXI@Z 000000006404ff80 f i update.obj
 0001:0004f000       ?_Buynode0@?$_Tree_comp_alloc@V?$_Tmap_traits@IUFileIndexInfo@@U?$less@I@std@@V?$allocator@U?$pair@$$CBIUFileIndexInfo@@@std@@@3@$0A@@std@@@std@@QEAAPEAU?$_Tree_node@U?$pair@$$CBIUFileIndexInfo@@@std@@PEAX@2@XZ 0000000064050000 f i update.obj
 0001:0004f050       ?_Destroy_if_not_nil@?$_Tree@V?$_Tmap_traits@IUFileIndexInfo@@U?$less@I@std@@V?$allocator@U?$pair@$$CBIUFileIndexInfo@@@std@@@3@$0A@@std@@@std@@IEAAXPEAU?$_Tree_node@U?$pair@$$CBIUFileIndexInfo@@@std@@PEAX@2@@Z 0000000064050050 f i update.obj
 0001:0004f0b0       ??$_Insert_at@AEAU?$pair@$$CBIUFileIndexInfo@@@std@@PEAU?$_Tree_node@U?$pair@$$CBIUFileIndexInfo@@@std@@PEAX@2@@?$_Tree@V?$_Tmap_traits@IUFileIndexInfo@@U?$less@I@std@@V?$allocator@U?$pair@$$CBIUFileIndexInfo@@@std@@@3@$0A@@std@@@std@@IEAA?AV?$_Tree_iterator@V?$_Tree_val@U?$_Tree_simple_types@U?$pair@$$CBIUFileIndexInfo@@@std@@@std@@@std@@@1@_NPEAU?$_Tree_node@U?$pair@$$CBIUFileIndexInfo@@@std@@PEAX@1@AEAU?$pair@$$CBIUFileIndexInfo@@@1@1@Z 00000000640500b0 f i update.obj
 0001:0004f3a0       ??$_Insert_nohint@AEAU?$pair@$$CBIUFileIndexInfo@@@std@@PEAU?$_Tree_node@U?$pair@$$CBIUFileIndexInfo@@@std@@PEAX@2@@?$_Tree@V?$_Tmap_traits@IUFileIndexInfo@@U?$less@I@std@@V?$allocator@U?$pair@$$CBIUFileIndexInfo@@@std@@@3@$0A@@std@@@std@@IEAA?AU?$pair@V?$_Tree_iterator@V?$_Tree_val@U?$_Tree_simple_types@U?$pair@$$CBIUFileIndexInfo@@@std@@@std@@@std@@@std@@_N@1@_NAEAU?$pair@$$CBIUFileIndexInfo@@@1@PEAU?$_Tree_node@U?$pair@$$CBIUFileIndexInfo@@@std@@PEAX@1@@Z 00000000640503a0 f i update.obj
 0001:0004f4d8       ??_EArchiveUpdater@@WBA@EAAPEAXI@Z 00000000640504d8 f i update.obj
 0001:0004f4e4       ?Release@SimpleUpdateStream@@WBI@EAAKXZ 00000000640504e4 f i update.obj
 0001:0004f4e4       ?Release@SfxUpdateStream@@WBI@EAAKXZ 00000000640504e4 f i update.obj
 0001:0004f4e4       ?Release@MultiVolumeUpdateStream@@WBI@EAAKXZ 00000000640504e4 f i update.obj
 0001:0004f4f0       ?QueryInterface@MultiVolumeUpdateStream@@WBI@EAAJAEBU_GUID@@PEAPEAX@Z 00000000640504f0 f i update.obj
 0001:0004f4f0       ?QueryInterface@SimpleUpdateStream@@WBI@EAAJAEBU_GUID@@PEAPEAX@Z 00000000640504f0 f i update.obj
 0001:0004f4f0       ?QueryInterface@SfxUpdateStream@@WBI@EAAJAEBU_GUID@@PEAPEAX@Z 00000000640504f0 f i update.obj
 0001:0004f4fc       ??_EMultiVolumeUpdateStream@@WBI@EAAPEAXI@Z 00000000640504fc f i update.obj
 0001:0004f508       ??_ESimpleUpdateStream@@WBI@EAAPEAXI@Z 0000000064050508 f i update.obj
 0001:0004f514       ?QueryInterface@ArchiveUpdater@@W7EAAJAEBU_GUID@@PEAPEAX@Z 0000000064050514 f i update.obj
 0001:0004f520       ??_EFileReadStream@@W7EAAPEAXI@Z 0000000064050520 f i update.obj
 0001:0004f520       ??_EArchiveFileDeleterStream@@W7EAAPEAXI@Z 0000000064050520 f i delete.obj
 0001:0004f52c       ?QueryInterface@FileReadStream@@W7EAAJAEBU_GUID@@PEAPEAX@Z 000000006405052c f i update.obj
 0001:0004f538       ??_ESfxUpdateStream@@WBI@EAAPEAXI@Z 0000000064050538 f i update.obj
 0001:0004f544       ?QueryInterface@ArchiveUpdater@@WBA@EAAJAEBU_GUID@@PEAPEAX@Z 0000000064050544 f i update.obj
 0001:0004f550       ?do_update_ui@ArchiveFileDeleterProgress@@EEAAXXZ 0000000064050550 f i delete.obj
 0001:0004f9c0       ??0ArchiveFileDeleterProgress@@QEAA@XZ 00000000640509c0 f i delete.obj
 0001:0004fa50       ??_EArchiveFileDeleterProgress@@UEAAPEAXI@Z 0000000064050a50 f i * CIL library *:* CIL module *
 0001:0004fa50       ??_GArchiveFileDeleterProgress@@UEAAPEAXI@Z 0000000064050a50 f i delete.obj
 0001:0004fa90       ??0ArchiveFileDeleterStream@@QEAA@AEBV?$basic_string@_WU?$char_traits@_W@std@@V?$allocator@_W@2@@std@@V?$shared_ptr@VProgressMonitor@@@2@@Z 0000000064050a90 f i delete.obj
 0001:0004fbd0       ?QueryInterface@ArchiveFileDeleterStream@@UEAAJAEBU_GUID@@PEAPEAX@Z 0000000064050bd0 f i delete.obj
 0001:0004fc70       ?Write@ArchiveFileDeleterStream@@UEAAJPEBXIPEAI@Z 0000000064050c70 f i delete.obj
 0001:0004fd00       ?SetSize@ArchiveFileDeleterStream@@UEAAJ_K@Z 0000000064050d00 f i delete.obj
 0001:0004fd60       ?QueryInterface@ArchiveFileDeleter@@UEAAJAEBU_GUID@@PEAPEAX@Z 0000000064050d60 f i delete.obj
 0001:0004fe00       ?SetTotal@ArchiveFileDeleter@@UEAAJ_K@Z 0000000064050e00 f i delete.obj
 0001:0004fe30       ?SetCompleted@ArchiveFileDeleter@@UEAAJPEB_K@Z 0000000064050e30 f i delete.obj
 0001:0004fe70       ?GetUpdateItemInfo@ArchiveFileDeleter@@UEAAJIPEAH0PEAI@Z 0000000064050e70 f i delete.obj
 0001:0004fe90       ?GetProperty@ArchiveFileDeleter@@UEAAJIKPEAUtagPROPVARIANT@@@Z 0000000064050e90 f i delete.obj
 0001:0004ff40       ?GetStream@ArchiveFileDeleter@@UEAAJIPEAPEAUISequentialInStream@@@Z 0000000064050f40 f i delete.obj
 0001:0004ff50       ??_EArchiveFileDeleter@@UEAAPEAXI@Z 0000000064050f50 f i * CIL library *:* CIL module *
 0001:0004ff50       ??_GArchiveFileDeleter@@UEAAPEAXI@Z 0000000064050f50 f i delete.obj
 0001:0004ff90       ??1ArchiveFileDeleter@@UEAA@XZ 0000000064050f90 f i delete.obj
 0001:00050020       ?enum_deleted_indices@Archive@@AEAAXIAEAV?$vector@IV?$allocator@I@std@@@std@@@Z 0000000064051020 f   delete.obj
 0001:00050130       ?delete_files@Archive@@QEAAXAEBV?$vector@IV?$allocator@I@std@@@std@@@Z 0000000064051130 f   delete.obj
 0001:00050bc0       ??$_Resetp@VArchiveFileDeleterProgress@@@?$shared_ptr@VArchiveFileDeleterProgress@@@std@@AEAAXPEAVArchiveFileDeleterProgress@@@Z 0000000064051bc0 f i delete.obj
 0001:00050c20       ??$_Set_difference@PEAIPEAIV?$back_insert_iterator@V?$vector@IV?$allocator@I@std@@@std@@@std@@U?$less@X@2@@std@@YA?AV?$back_insert_iterator@V?$vector@IV?$allocator@I@std@@@std@@@0@PEAI000V10@U?$less@X@0@@Z 0000000064051c20 f i delete.obj
 0001:00050df0       ?QueryInterface@ArchiveFileDeleter@@W7EAAJAEBU_GUID@@PEAPEAX@Z 0000000064051df0 f i delete.obj
 0001:00050dfc       ??_EArchiveFileDeleter@@W7EAAPEAXI@Z 0000000064051dfc f i delete.obj
 0001:00050e08       ?QueryInterface@ArchiveFileDeleterStream@@W7EAAJAEBU_GUID@@PEAPEAX@Z 0000000064051e08 f i delete.obj
 0001:00050e20       ?get_bool@OptionsKey@@QEAA_NPEB_W_N@Z 0000000064051e20 f i options.obj
 0001:00050e90       ?get_str@OptionsKey@@QEAA?AV?$basic_string@_WU?$char_traits@_W@std@@V?$allocator@_W@2@@std@@PEB_WAEBV23@@Z 0000000064051e90 f i options.obj
 0001:00050ff0       ?get_binary@OptionsKey@@QEAA?AV?$vector@EV?$allocator@E@std@@@std@@PEB_WAEBV23@@Z 0000000064051ff0 f i options.obj
 0001:000510d0       ?set_str@OptionsKey@@QEAAXPEB_WAEBV?$basic_string@_WU?$char_traits@_W@std@@V?$allocator@_W@2@@std@@1@Z 00000000640520d0 f i options.obj
 0001:000511a0       ?set_binary@OptionsKey@@QEAAXPEB_WAEBV?$vector@EV?$allocator@E@std@@@std@@1@Z 00000000640521a0 f i options.obj
 0001:00051250       ??0Options@@QEAA@XZ        0000000064052250 f   options.obj
 0001:000514c0       ?load_sfx_options@@YAXAEAVOptionsKey@@AEAUSfxOptions@@@Z 00000000640524c0 f   options.obj
 0001:00051b30       ?save_sfx_options@@YAXAEAVOptionsKey@@AEBUSfxOptions@@@Z 0000000064052b30 f   options.obj
 0001:00052690       ?load@Options@@QEAAXXZ     0000000064053690 f   options.obj
 0001:00053700       ??1OptionsKey@@QEAA@XZ     0000000064054700 f i options.obj
 0001:00053750       ?save@Options@@QEBAXXZ     0000000064054750 f   options.obj
 0001:00054d80       ?get_profile_key_name@@YA?AV?$basic_string@_WU?$char_traits@_W@std@@V?$allocator@_W@2@@std@@AEBV12@@Z 0000000064055d80 f   options.obj
 0001:00054e80       ??0ProfileOptions@@QEAA@XZ 0000000064055e80 f   options.obj
 0001:00054f20       ??0UpdateOptions@@QEAA@XZ  0000000064055f20 f   options.obj
 0001:00054f80       ??0SfxOptions@@QEAA@XZ     0000000064055f80 f   options.obj
 0001:000550f0       ?load@UpdateProfiles@@QEAAXXZ 00000000640560f0 f   options.obj
 0001:00055a20       ?save@UpdateProfiles@@QEBAXXZ 0000000064056a20 f   options.obj
 0001:000562a0       ?find_by_name@UpdateProfiles@@QEAAIAEBV?$basic_string@_WU?$char_traits@_W@std@@V?$allocator@_W@2@@std@@@Z 00000000640572a0 f   options.obj
 0001:00056540       ?find_by_options@UpdateProfiles@@QEAAIAEBUUpdateOptions@@@Z 0000000064057540 f   options.obj
 0001:00056610       ?update@UpdateProfiles@@QEAAXAEBV?$basic_string@_WU?$char_traits@_W@std@@V?$allocator@_W@2@@std@@AEBUUpdateOptions@@@Z 0000000064057610 f   options.obj
 0001:00056930       ??4ProfileOptions@@QEAAAEAU0@AEBU0@@Z 0000000064057930 f i options.obj
 0001:00056a20       ?get_app_option@@YA_N_KPEB_WAEA_N@Z 0000000064057a20 f   options.obj
 0001:00056b30       ?push_back@?$vector@UUpdateProfile@@V?$allocator@UUpdateProfile@@@std@@@std@@QEAAXAEBUUpdateProfile@@@Z 0000000064057b30 f i options.obj
 0001:00056c00       ??1?$vector@UUpdateProfile@@V?$allocator@UUpdateProfile@@@std@@@std@@QEAA@XZ 0000000064057c00 f i options.obj
 0001:00056c70       ?_Reserve@?$vector@UUpdateProfile@@V?$allocator@UUpdateProfile@@@std@@@std@@IEAAX_K@Z 0000000064057c70 f i options.obj
 0001:00056d40       ?deallocate@?$_Wrap_alloc@V?$allocator@UUpdateProfile@@@std@@@std@@QEAAXPEAUUpdateProfile@@_K@Z 0000000064057d40 f i options.obj
 0001:00056db0       ?_Reallocate@?$vector@UUpdateProfile@@V?$allocator@UUpdateProfile@@@std@@@std@@IEAAX_K@Z 0000000064057db0 f i options.obj
 0001:00056e90       ?allocate@?$allocator@UUpdateProfile@@@std@@QEAAPEAUUpdateProfile@@_K@Z 0000000064057e90 f i options.obj
 0001:00056f10       ??0?$_Wrap_alloc@V?$allocator@UUpdateProfile@@@std@@@std@@QEAA@XZ 0000000064057f10 f i options.obj
 0001:00056f20       ??$_Sort@PEAUUpdateProfile@@_JV<lambda_1367198350ae6bdc062efbe89a5a343e>@@@std@@YAXPEAUUpdateProfile@@0_JV<lambda_1367198350ae6bdc062efbe89a5a343e>@@@Z 0000000064057f20 f i options.obj
 0001:000570e0       ??$_Unguarded_partition@PEAUUpdateProfile@@V<lambda_1367198350ae6bdc062efbe89a5a343e>@@@std@@YA?AU?$pair@PEAUUpdateProfile@@PEAU1@@0@PEAUUpdateProfile@@0V<lambda_1367198350ae6bdc062efbe89a5a343e>@@@Z 00000000640580e0 f i options.obj
 0001:00057330       ??0UpdateProfile@@QEAA@AEBU0@@Z 0000000064058330 f i options.obj
 0001:000573a0       ??$_Median@PEAUUpdateProfile@@V<lambda_1367198350ae6bdc062efbe89a5a343e>@@@std@@YAXPEAUUpdateProfile@@00V<lambda_1367198350ae6bdc062efbe89a5a343e>@@@Z 00000000640583a0 f i options.obj
 0001:000574a0       ??$_Make_heap@PEAUUpdateProfile@@_JU1@V<lambda_1367198350ae6bdc062efbe89a5a343e>@@@std@@YAXPEAUUpdateProfile@@0V<lambda_1367198350ae6bdc062efbe89a5a343e>@@PEA_J0@Z 00000000640584a0 f i options.obj
 0001:00057680       ??$_Sort_heap@PEAUUpdateProfile@@V<lambda_1367198350ae6bdc062efbe89a5a343e>@@@std@@YAXPEAUUpdateProfile@@0V<lambda_1367198350ae6bdc062efbe89a5a343e>@@@Z 0000000064058680 f i options.obj
 0001:00057730       ??$_Insertion_sort1@PEAUUpdateProfile@@V<lambda_1367198350ae6bdc062efbe89a5a343e>@@U1@@std@@YAXPEAUUpdateProfile@@0V<lambda_1367198350ae6bdc062efbe89a5a343e>@@0@Z 0000000064058730 f i options.obj
 0001:00057c50       ??$_Uninitialized_move_al_unchecked1@PEAUUpdateProfile@@PEAU1@V?$allocator@UUpdateProfile@@@std@@@std@@YAPEAUUpdateProfile@@PEAU1@00AEAU?$_Wrap_alloc@V?$allocator@UUpdateProfile@@@std@@@0@U_General_ptr_iterator_tag@0@@Z 0000000064058c50 f i options.obj
 0001:00057d30       ??0ProfileOptions@@QEAA@$$QEAU0@@Z 0000000064058d30 f i options.obj
 0001:00057e60       ??0SfxOptions@@QEAA@$$QEAU0@@Z 0000000064058e60 f i options.obj
 0001:00057f00       ??0SfxVersionInfo@@QEAA@$$QEAU0@@Z 0000000064058f00 f i options.obj
 0001:00057fe0       ??0SfxInstallConfig@@QEAA@$$QEAU0@@Z 0000000064058fe0 f i options.obj
 0001:000580e0       ??$_Med3@PEAUUpdateProfile@@V<lambda_1367198350ae6bdc062efbe89a5a343e>@@@std@@YAXPEAUUpdateProfile@@00V<lambda_1367198350ae6bdc062efbe89a5a343e>@@@Z 00000000640590e0 f i options.obj
 0001:00058160       ??$swap@UUpdateProfile@@@std@@YAXAEAUUpdateProfile@@0@Z 0000000064059160 f i options.obj
 0001:00058220       ??$_Adjust_heap@PEAUUpdateProfile@@_JU1@V<lambda_1367198350ae6bdc062efbe89a5a343e>@@@std@@YAXPEAUUpdateProfile@@_J1$$QEAU1@V<lambda_1367198350ae6bdc062efbe89a5a343e>@@@Z 0000000064059220 f i options.obj
 0001:00058420       ??$_Push_heap@PEAUUpdateProfile@@_JU1@V<lambda_1367198350ae6bdc062efbe89a5a343e>@@@std@@YAXPEAUUpdateProfile@@_J1$$QEAU1@V<lambda_1367198350ae6bdc062efbe89a5a343e>@@@Z 0000000064059420 f i options.obj
 0001:000585e0       ??$_Pop_heap_0@PEAUUpdateProfile@@U1@V<lambda_1367198350ae6bdc062efbe89a5a343e>@@@std@@YAXPEAUUpdateProfile@@0V<lambda_1367198350ae6bdc062efbe89a5a343e>@@0@Z 00000000640595e0 f i options.obj
 0001:000586e0       ??$_Move_backward_unchecked1@PEAUUpdateProfile@@PEAU1@@std@@YAPEAUUpdateProfile@@PEAU1@00U_General_ptr_iterator_tag@0@@Z 00000000640596e0 f i options.obj
 0001:00058800       ?create_state_matrix@@YAPEAVStateMatrix@@AEBV?$vector@USigData@@V?$allocator@USigData@@@std@@@std@@@Z 0000000064059800 f   msearch.obj
 0001:00058990       ?msearch@@YA?AV?$vector@UStrPos@@V?$allocator@UStrPos@@@std@@@std@@PEAE_KAEBV?$vector@USigData@@V?$allocator@USigData@@@std@@@2@_N@Z 0000000064059990 f   msearch.obj
 0001:00058e70       ??1?$auto_ptr@VStateMatrix@@@std@@QEAA@XZ 0000000064059e70 f i msearch.obj
 0001:00058ea0       ?_Construct_n@?$vector@IV?$allocator@_N@std@@@std@@QEAAX_KPEBI@Z 0000000064059ea0 f i msearch.obj
 0001:00058f30       ??$_Uninit_alloc_fill_n1@PEAI_KV?$allocator@I@std@@U?$integral_constant@_N$0A@@2@@std@@YAXPEAI_KPEBIAEAU?$_Wrap_alloc@V?$allocator@I@std@@@0@U?$integral_constant@_N$0A@@0@@Z 0000000064059f30 f i msearch.obj
 0001:00058f50       ??$_Sort@PEAUStrPos@@_JU?$less@X@std@@@std@@YAXPEAUStrPos@@0_JU?$less@X@0@@Z 0000000064059f50 f i msearch.obj
 0001:00059090       ??$_Unguarded_partition@PEAUStrPos@@U?$less@X@std@@@std@@YA?AU?$pair@PEAUStrPos@@PEAU1@@0@PEAUStrPos@@0U?$less@X@0@@Z 000000006405a090 f i msearch.obj
 0001:00059260       ??$_Median@PEAUStrPos@@U?$less@X@std@@@std@@YAXPEAUStrPos@@00U?$less@X@0@@Z 000000006405a260 f i msearch.obj
 0001:00059430       ??$_Make_heap@PEAUStrPos@@_JU1@U?$less@X@std@@@std@@YAXPEAUStrPos@@0U?$less@X@0@PEA_J0@Z 000000006405a430 f i msearch.obj
 0001:00059580       ??$_Sort_heap@PEAUStrPos@@U?$less@X@std@@@std@@YAXPEAUStrPos@@0U?$less@X@0@@Z 000000006405a580 f i msearch.obj
 0001:000596c0       ??$_Insertion_sort1@PEAUStrPos@@U?$less@X@std@@U1@@std@@YAXPEAUStrPos@@0U?$less@X@0@0@Z 000000006405a6c0 f i msearch.obj
 0001:00059790       ?get_int@PropVariant@@QEBA_JXZ 000000006405a790 f i attr.obj
 0001:00059830       ?get_int_size@PropVariant@@QEBAIXZ 000000006405a830 f i attr.obj
 0001:00059920       ?uint_to_hex_str@@YA?AV?$basic_string@_WU?$char_traits@_W@std@@V?$allocator@_W@2@@std@@_KI@Z 000000006405a920 f   attr.obj
 0001:000599e0       ?format_str_prop@@YA?AV?$basic_string@_WU?$char_traits@_W@std@@V?$allocator@_W@2@@std@@AEBVPropVariant@@@Z 000000006405a9e0 f   attr.obj
 0001:00059a70       ?format_int_prop@@YA?AV?$basic_string@_WU?$char_traits@_W@std@@V?$allocator@_W@2@@std@@AEBVPropVariant@@@Z 000000006405aa70 f   attr.obj
 0001:00059bd0       ?format_uint_prop@@YA?AV?$basic_string@_WU?$char_traits@_W@std@@V?$allocator@_W@2@@std@@AEBVPropVariant@@@Z 000000006405abd0 f   attr.obj
 0001:00059d30       ?format_size_prop@@YA?AV?$basic_string@_WU?$char_traits@_W@std@@V?$allocator@_W@2@@std@@AEBVPropVariant@@@Z 000000006405ad30 f   attr.obj
 0001:00059ef0       ?format_filetime_prop@@YA?AV?$basic_string@_WU?$char_traits@_W@std@@V?$allocator@_W@2@@std@@AEBVPropVariant@@@Z 000000006405aef0 f   attr.obj
 0001:0005a130       ?format_crc_prop@@YA?AV?$basic_string@_WU?$char_traits@_W@std@@V?$allocator@_W@2@@std@@AEBVPropVariant@@@Z 000000006405b130 f   attr.obj
 0001:0005a1b0       ?format_attrib_prop@@YA?AV?$basic_string@_WU?$char_traits@_W@std@@V?$allocator@_W@2@@std@@AEBVPropVariant@@@Z 000000006405b1b0 f   attr.obj
 0001:0005a2c0       ?format_posix_attrib_prop@@YA?AV?$basic_string@_WU?$char_traits@_W@std@@V?$allocator@_W@2@@std@@AEBVPropVariant@@@Z 000000006405b2c0 f   attr.obj
 0001:0005a560       ?get_attr_list@Archive@@QEAA?AV?$list@UAttr@@V?$allocator@UAttr@@@std@@@std@@I@Z 000000006405b560 f   attr.obj
 0001:0005ab50       ?load_arc_attr@Archive@@AEAAXXZ 000000006405bb50 f   attr.obj
 0001:0005b980       ?load_update_props@Archive@@QEAAXXZ 000000006405c980 f   attr.obj
 0001:0005bde0       ?push_back@?$list@UAttr@@V?$allocator@UAttr@@@std@@@std@@QEAAXAEBUAttr@@@Z 000000006405cde0 f i attr.obj
 0001:0005be50       ??$_For_each@V?$_Tree_unchecked_const_iterator@V?$_Tree_val@U?$_Tree_simple_types@V?$basic_string@_WU?$char_traits@_W@std@@V?$allocator@_W@2@@std@@@std@@@std@@U_Iterator_base0@2@@std@@V<lambda_dec5808319870a3e477e677573e947df>@@@std@@YAXV?$_Tree_unchecked_const_iterator@V?$_Tree_val@U?$_Tree_simple_types@V?$basic_string@_WU?$char_traits@_W@std@@V?$allocator@_W@2@@std@@@std@@@std@@U_Iterator_base0@2@@0@0AEAV<lambda_dec5808319870a3e477e677573e947df>@@@Z 000000006405ce50 f i attr.obj
 0001:0005bef0       ?do_update_ui@ArchiveTester@@EEAAXXZ 000000006405cef0 f i test.obj
 0001:0005c310       ??0ArchiveTester@@QEAA@IV?$shared_ptr@VArchive@@@std@@@Z 000000006405d310 f i test.obj
 0001:0005c490       ?SetTotal@ArchiveTester@@UEAAJ_K@Z 000000006405d490 f i test.obj
 0001:0005c4c0       ?SetCompleted@ArchiveTester@@UEAAJPEB_K@Z 000000006405d4c0 f i test.obj
 0001:0005c500       ?GetStream@ArchiveTester@@UEAAJIPEAPEAUISequentialOutStream@@H@Z 000000006405d500 f i test.obj
 0001:0005c5e0       ?SetOperationResult@ArchiveTester@@UEAAJH@Z 000000006405d5e0 f i test.obj
 0001:0005c950       ?CryptoGetTextPassword@ArchiveTester@@UEAAJPEAPEA_W@Z 000000006405d950 f i test.obj
 0001:0005cad0       ??_EArchiveTester@@UEAAPEAXI@Z 000000006405dad0 f i * CIL library *:* CIL module *
 0001:0005cad0       ??_GArchiveTester@@UEAAPEAXI@Z 000000006405dad0 f i test.obj
 0001:0005cb10       ??1ArchiveTester@@UEAA@XZ  000000006405db10 f i test.obj
 0001:0005cbc0       ?prepare_test@Archive@@AEAAXIAEAV?$list@IV?$allocator@I@std@@@std@@@Z 000000006405dbc0 f   test.obj
 0001:0005ccb0       ?test@Archive@@QEAAXIAEBV?$vector@IV?$allocator@I@std@@@std@@@Z 000000006405dcb0 f   test.obj
 0001:0005d130       ??_EArchiveTester@@WBA@EAAPEAXI@Z 000000006405e130 f i test.obj
 0001:0005d13c       ??_EArchiveTester@@WCA@EAAPEAXI@Z 000000006405e13c f i test.obj
 0001:0005d150       ?calc_percent@@YAI_K0@Z    000000006405e150 f   common.obj
 0001:0005d1d0       ?get_module_version@@YA_KAEBV?$basic_string@_WU?$char_traits@_W@std@@V?$allocator@_W@2@@std@@@Z 000000006405e1d0 f   common.obj
 0001:0005d290       ?parse_size_string@@YA_KAEBV?$basic_string@_WU?$char_traits@_W@std@@V?$allocator@_W@2@@std@@@Z 000000006405e290 f   common.obj
 0001:0005d390       ?expand_macros@@YA?AV?$basic_string@_WU?$char_traits@_W@std@@V?$allocator@_W@2@@std@@AEBV12@@Z 000000006405e390 f   common.obj
 0001:0005d8f0       ?load_file@@YA?AV?$basic_string@_WU?$char_traits@_W@std@@V?$allocator@_W@2@@std@@AEBV12@PEAI@Z 000000006405e8f0 f   common.obj
 0001:0005dc40       ?auto_rename@@YA?AV?$basic_string@_WU?$char_traits@_W@std@@V?$allocator@_W@2@@std@@AEBV12@@Z 000000006405ec40 f   common.obj
 0001:0005e070       ?do_update_ui@AttachSfxModuleProgress@@EEAAXXZ 000000006405f070 f i sfx.obj
 0001:0005e250       ??0AttachSfxModuleProgress@@QEAA@AEBV?$basic_string@_WU?$char_traits@_W@std@@V?$allocator@_W@2@@std@@@Z 000000006405f250 f i sfx.obj
 0001:0005e340       ??_GAttachSfxModuleProgress@@UEAAPEAXI@Z 000000006405f340 f i sfx.obj
 0001:0005e340       ??_EAttachSfxModuleProgress@@UEAAPEAXI@Z 000000006405f340 f i * CIL library *:* CIL module *
 0001:0005e3c0       ??1AttachSfxModuleProgress@@UEAA@XZ 000000006405f3c0 f i sfx.obj
 0001:0005e420       ?generate_install_config@@YA?AV?$vector@EV?$allocator@E@std@@@std@@AEBUSfxInstallConfig@@@Z 000000006405f420 f   sfx.obj
 0001:0005e930       ?create_sfx_module@@YAXAEBV?$basic_string@_WU?$char_traits@_W@std@@V?$allocator@_W@2@@std@@AEBUSfxOptions@@@Z 000000006405f930 f   sfx.obj
 0001:0005eea0       ?attach_sfx_module@@YAXAEBV?$basic_string@_WU?$char_traits@_W@std@@V?$allocator@_W@2@@std@@AEBUSfxOptions@@@Z 000000006405fea0 f   sfx.obj
 0001:0005f5a0       ?set_control_state@SfxOptionsDialog@@AEAAXXZ 00000000640605a0 f i sfx.obj
 0001:0005f8b0       ?read_controls@SfxOptionsDialog@@AEAA?AUSfxOptions@@XZ 00000000640608b0 f i sfx.obj
 0001:00060020       ?write_controls@SfxOptionsDialog@@AEAAXAEBUSfxOptions@@@Z 0000000064061020 f i sfx.obj
 0001:000604a0       ?dialog_proc@SfxOptionsDialog@@EEAA_J_J0PEAX@Z 00000000640614a0 f i sfx.obj
 0001:00060920       ??0SfxOptionsDialog@@QEAA@AEAUSfxOptions@@AEBUUpdateProfiles@@@Z 0000000064061920 f i sfx.obj
 0001:00060a50       ?show@SfxOptionsDialog@@QEAA_NXZ 0000000064061a50 f i sfx.obj
 0001:00061c60       ??1SfxProfile@@QEAA@XZ     0000000064062c60 f i sfx.obj
 0001:00061cc0       ?sfx_options_dialog@@YA_NAEAUSfxOptions@@AEBUUpdateProfiles@@@Z 0000000064062cc0 f   sfx.obj
 0001:00061de0       ??1SfxOptionsDialog@@QEAA@XZ 0000000064062de0 f i sfx.obj
 0001:00061e60       ??1?$vector@USfxProfile@@V?$allocator@USfxProfile@@@std@@@std@@QEAA@XZ 0000000064062e60 f i sfx.obj
 0001:00061ec0       ?_Reserve@?$vector@USfxProfile@@V?$allocator@USfxProfile@@@std@@@std@@IEAAX_K@Z 0000000064062ec0 f i sfx.obj
 0001:00061f90       ?deallocate@?$_Wrap_alloc@V?$allocator@USfxProfile@@@std@@@std@@QEAAXPEAUSfxProfile@@_K@Z 0000000064062f90 f i sfx.obj
 0001:00062000       ?_Reallocate@?$vector@USfxProfile@@V?$allocator@USfxProfile@@@std@@@std@@IEAAX_K@Z 0000000064063000 f i sfx.obj
 0001:000620d0       ?allocate@?$allocator@USfxProfile@@@std@@QEAAPEAUSfxProfile@@_K@Z 00000000640630d0 f i sfx.obj
 0001:00062150       ??$_Destroy_range@U?$_Wrap_alloc@V?$allocator@USfxProfile@@@std@@@std@@@std@@YAXPEAUSfxProfile@@0AEAU?$_Wrap_alloc@V?$allocator@USfxProfile@@@std@@@0@@Z 0000000064063150 f i sfx.obj
 0001:00062240       ??$_For_each@PEBUUpdateProfile@@V<lambda_58e5811890de3a461142a079c8a7133a>@@@std@@YAXPEBUUpdateProfile@@0AEAV<lambda_58e5811890de3a461142a079c8a7133a>@@@Z 0000000064063240 f i sfx.obj
 0001:000624f0       ??$_For_each@PEBUSfxModule@@V<lambda_eb77b9ad866d4bc01ef2270669af79d6>@@@std@@YAXPEBUSfxModule@@0AEAV<lambda_eb77b9ad866d4bc01ef2270669af79d6>@@@Z 00000000640634f0 f i sfx.obj
 0001:000625f0       ??$_Construct@V?$_String_iterator@V?$_String_val@U?$_Simple_types@D@std@@@std@@@std@@@?$vector@EV?$allocator@E@std@@@std@@QEAAXV?$_String_iterator@V?$_String_val@U?$_Simple_types@D@std@@@std@@@1@0Uforward_iterator_tag@1@@Z 00000000640635f0 f i sfx.obj
 0001:00062690       ??$_Uninitialized_move_al_unchecked1@PEAUSfxProfile@@PEAU1@V?$allocator@USfxProfile@@@std@@@std@@YAPEAUSfxProfile@@PEAU1@00AEAU?$_Wrap_alloc@V?$allocator@USfxProfile@@@std@@@0@U_General_ptr_iterator_tag@0@@Z 0000000064063690 f i sfx.obj
 0001:00062770       ?lc@@YA?AV?$basic_string@_WU?$char_traits@_W@std@@V?$allocator@_W@2@@std@@AEBV12@@Z 0000000064063770 f   cmdline.obj
 0001:000628e0       ?parse_command@@YA?AUCommandArgs@@AEBV?$basic_string@_WU?$char_traits@_W@std@@V?$allocator@_W@2@@std@@@Z 00000000640638e0 f   cmdline.obj
 0001:00062d50       ?parse_param@@YA?AUParam@@AEBV?$basic_string@_WU?$char_traits@_W@std@@V?$allocator@_W@2@@std@@@Z 0000000064063d50 f   cmdline.obj
 0001:00062f50       ?parse_bool_value@@YA_NAEBV?$basic_string@_WU?$char_traits@_W@std@@V?$allocator@_W@2@@std@@@Z 0000000064063f50 f   cmdline.obj
 0001:00063100       ?parse_tri_state_value@@YA?AW4TriState@@AEBV?$basic_string@_WU?$char_traits@_W@std@@V?$allocator@_W@2@@std@@@Z 0000000064064100 f   cmdline.obj
 0001:00063320       ?parse_listfile@@YA?AV?$list@V?$basic_string@_WU?$char_traits@_W@std@@V?$allocator@_W@2@@std@@V?$allocator@V?$basic_string@_WU?$char_traits@_W@std@@V?$allocator@_W@2@@std@@@2@@std@@AEBV?$basic_string@_WU?$char_traits@_W@std@@V?$allocator@_W@2@@2@@Z 0000000064064320 f   cmdline.obj
 0001:00063540       ?parse_open_command@@YA?AUOpenCommand@@AEBUCommandArgs@@@Z 0000000064064540 f   cmdline.obj
 0001:00063b70       ?parse_update_command@@YA?AUUpdateCommand@@AEBUCommandArgs@@@Z 0000000064064b70 f   cmdline.obj
 0001:00064c00       ??0UpdateCommand@@QEAA@XZ  0000000064065c00 f i cmdline.obj
 0001:00064cf0       ?parse_extract_command@@YA?AUExtractCommand@@AEBUCommandArgs@@@Z 0000000064065cf0 f   cmdline.obj
 0001:000655e0       ?parse_test_command@@YA?AUTestCommand@@AEBUCommandArgs@@@Z 00000000640665e0 f   cmdline.obj
 0001:00065820       ??$any_of@V?$_Vector_const_iterator@V?$_Vector_val@U?$_Simple_types@UCDllCodecInfo@@@std@@@std@@@std@@V<lambda_dd771a544d525e771b48de9f2f99690d>@@@std@@YA_NV?$_Vector_const_iterator@V?$_Vector_val@U?$_Simple_types@UCDllCodecInfo@@@std@@@std@@@0@0V<lambda_dd771a544d525e771b48de9f2f99690d>@@@Z 0000000064066820 f i cmdline.obj
 0001:000658e0       ??$_Any_of@PEBUCDllCodecInfo@@V<lambda_dd771a544d525e771b48de9f2f99690d>@@@std@@YA_NPEBUCDllCodecInfo@@0V<lambda_dd771a544d525e771b48de9f2f99690d>@@@Z 00000000640668e0 f i cmdline.obj
 0001:00065b70       ??$_Move_unchecked1@PEAV?$basic_string@_WU?$char_traits@_W@std@@V?$allocator@_W@2@@std@@PEAV12@@std@@YAPEAV?$basic_string@_WU?$char_traits@_W@std@@V?$allocator@_W@2@@0@PEAV10@00U_General_ptr_iterator_tag@0@@Z 0000000064066b70 f i cmdline.obj
 0001:00065c80       ??$_Find@PEAPEB_WV?$basic_string@_WU?$char_traits@_W@std@@V?$allocator@_W@2@@std@@@std@@YAPEAPEB_WPEAPEB_W0AEBV?$basic_string@_WU?$char_traits@_W@std@@V?$allocator@_W@2@@0@U?$integral_constant@_N$0A@@0@@Z 0000000064066c80 f i cmdline.obj
 0001:00065d50       ??BRsrcId@@QEBAPEB_WXZ     0000000064066d50 f i rsrc.obj
 0001:00065d70       ?load_icon_file@@YA?AV?$list@UIconImage@@V?$allocator@UIconImage@@@std@@@std@@AEBV?$basic_string@_WU?$char_traits@_W@std@@V?$allocator@_W@2@@2@@Z 0000000064066d70 f   rsrc.obj
 0001:00066480       ??1IconImage@@QEAA@XZ      0000000064067480 f i rsrc.obj
 0001:00066490       ?load_icon_rsrc@@YA?AUIconRsrc@@PEAUHINSTANCE__@@PEB_WG@Z 0000000064067490 f   rsrc.obj
 0001:00066880       ??0IconRsrc@@QEAA@XZ       0000000064067880 f i rsrc.obj
 0001:00066910       ??1IconRsrc@@QEAA@XZ       0000000064067910 f i rsrc.obj
 0001:00066980       ??1IconImageRsrc@@QEAA@XZ  0000000064067980 f i rsrc.obj
 0001:00066990       ??0IconRsrc@@QEAA@$$QEAU0@@Z 0000000064067990 f i rsrc.obj
 0001:00066a30       ?enum_names_proc@@YAHPEAUHINSTANCE__@@PEB_WPEA_W_J@Z 0000000064067a30 f   rsrc.obj
 0001:00066b40       ?enum_rsrc_names@@YA?AV?$list@VRsrcId@@V?$allocator@VRsrcId@@@std@@@std@@PEAUHINSTANCE__@@PEB_W@Z 0000000064067b40 f   rsrc.obj
 0001:00066ba0       ?enum_langs_proc@@YAHPEAUHINSTANCE__@@PEB_W1G_J@Z 0000000064067ba0 f   rsrc.obj
 0001:00066c20       ?enum_rsrc_langs@@YA?AV?$list@GV?$allocator@G@std@@@std@@PEAUHINSTANCE__@@PEB_W1@Z 0000000064067c20 f   rsrc.obj
 0001:00066c90       ??1RsrcModule@@QEAA@XZ     0000000064067c90 f i rsrc.obj
 0001:00066cc0       ??0ResourceUpdate@@QEAA@AEBV?$basic_string@_WU?$char_traits@_W@std@@V?$allocator@_W@2@@std@@@Z 0000000064067cc0 f i rsrc.obj
 0001:00066d50       ??1ResourceUpdate@@QEAA@XZ 0000000064067d50 f i rsrc.obj
 0001:00066d70       ?update@ResourceUpdate@@QEAAXPEB_W0GPEBEK@Z 0000000064067d70 f i rsrc.obj
 0001:00066dd0       ?finalize@ResourceUpdate@@QEAAXXZ 0000000064067dd0 f i rsrc.obj
 0001:00066e30       ?replace_icon@@YAXAEBV?$basic_string@_WU?$char_traits@_W@std@@V?$allocator@_W@2@@std@@0@Z 0000000064067e30 f   rsrc.obj
 0001:000673d0       ?encode_WORD@VersionEncoder@@QEAAXG@Z 00000000640683d0 f i rsrc.obj
 0001:00067400       ?pad@VersionEncoder@@QEAAXXZ 0000000064068400 f i rsrc.obj
 0001:00067440       ?update_length@VersionEncoder@@QEAAX_K@Z 0000000064068440 f i rsrc.obj
 0001:00067460       ?replace_ver_info@@YAXAEBV?$basic_string@_WU?$char_traits@_W@std@@V?$allocator@_W@2@@std@@AEBUSfxVersionInfo@@@Z 0000000064068460 f   rsrc.obj
 0001:00068350       ??1?$list@UIconRsrc@@V?$allocator@UIconRsrc@@@std@@@std@@QEAA@XZ 0000000064069350 f i rsrc.obj
 0001:00068370       ??1?$list@UIconImage@@V?$allocator@UIconImage@@@std@@@std@@QEAA@XZ 0000000064069370 f i rsrc.obj
 0001:00068390       ??6?$basic_ostream@_WU?$char_traits@_W@std@@@std@@QEAAAEAV01@G@Z 0000000064069390 f i rsrc.obj
 0001:00068540       ?_Insert_n@?$vector@EV?$allocator@E@std@@@std@@IEAA?AV?$_Vector_iterator@V?$_Vector_val@U?$_Simple_types@E@std@@@std@@@2@V?$_Vector_const_iterator@V?$_Vector_val@U?$_Simple_types@E@std@@@std@@@2@_KAEBE@Z 0000000064069540 f i rsrc.obj
 0001:00068730       ?_Reallocate@?$vector@EV?$allocator@E@std@@@std@@IEAAX_K@Z 0000000064069730 f i rsrc.obj
 0001:00068810       ?clear@?$list@UIconRsrc@@V?$allocator@UIconRsrc@@@std@@@std@@QEAAXXZ 0000000064069810 f i rsrc.obj
 0001:00068930       ?clear@?$list@UIconImageRsrc@@V?$allocator@UIconImageRsrc@@@std@@@std@@QEAAXXZ 0000000064069930 f i rsrc.obj
 0001:00068a00       ?clear@?$list@UIconImage@@V?$allocator@UIconImage@@@std@@@std@@QEAAXXZ 0000000064069a00 f i rsrc.obj
 0001:00068ad0       ?_Buynode0@?$_List_alloc@U?$_List_base_types@UIdLang@@V?$allocator@UIdLang@@@std@@@std@@@std@@QEAAPEAU?$_List_node@UIdLang@@PEAX@2@PEAU32@0@Z 0000000064069ad0 f i rsrc.obj
 0001:00068b20       ??$insert@PEBE@?$vector@EV?$allocator@E@std@@@std@@QEAA?AV?$_Vector_iterator@V?$_Vector_val@U?$_Simple_types@E@std@@@std@@@1@V?$_Vector_const_iterator@V?$_Vector_val@U?$_Simple_types@E@std@@@std@@@1@PEBE1@Z 0000000064069b20 f i rsrc.obj
 0001:00068b70       ??$for_each@V?$_List_const_iterator@V?$_List_val@U?$_List_simple_types@UIdLang@@@std@@@std@@@std@@V<lambda_17d23741ab926580c1de605bfdc986f2>@@@std@@YA?AV<lambda_17d23741ab926580c1de605bfdc986f2>@@V?$_List_const_iterator@V?$_List_val@U?$_List_simple_types@UIdLang@@@std@@@std@@@0@0V1@@Z 0000000064069b70 f i rsrc.obj
 0001:00068bb0       ??$_For_each@V?$_List_unchecked_const_iterator@V?$_List_val@U?$_List_simple_types@G@std@@@std@@U_Iterator_base0@2@@std@@V<lambda_7d307f2f13ff8b1e3aefe51bfe3be748>@@@std@@YAXV?$_List_unchecked_const_iterator@V?$_List_val@U?$_List_simple_types@G@std@@@std@@U_Iterator_base0@2@@0@0AEAV<lambda_7d307f2f13ff8b1e3aefe51bfe3be748>@@@Z 0000000064069bb0 f i rsrc.obj
 0001:00068d40       ??$_For_each@V?$_List_unchecked_const_iterator@V?$_List_val@U?$_List_simple_types@VRsrcId@@@std@@@std@@U_Iterator_base0@2@@std@@V<lambda_014b099dbaec3db53c3a2da8aecfc35e>@@@std@@YAXV?$_List_unchecked_const_iterator@V?$_List_val@U?$_List_simple_types@VRsrcId@@@std@@@std@@U_Iterator_base0@2@@0@0AEAV<lambda_014b099dbaec3db53c3a2da8aecfc35e>@@@Z 0000000064069d40 f i rsrc.obj
 0001:00068e70       ??$_For_each@V?$_List_unchecked_const_iterator@V?$_List_val@U?$_List_simple_types@UIconImageRsrc@@@std@@@std@@U_Iterator_base0@2@@std@@V<lambda_5315ae300c8a7c2eac3918c2cc5428f3>@@@std@@YAXV?$_List_unchecked_const_iterator@V?$_List_val@U?$_List_simple_types@UIconImageRsrc@@@std@@@std@@U_Iterator_base0@2@@0@0AEAV<lambda_5315ae300c8a7c2eac3918c2cc5428f3>@@@Z 0000000064069e70 f i rsrc.obj
 0001:00068f30       ??$_For_each@V?$_List_unchecked_const_iterator@V?$_List_val@U?$_List_simple_types@UIconRsrc@@@std@@@std@@U_Iterator_base0@2@@std@@V<lambda_ddb1424f293dc9652d5e626a17a49f05>@@@std@@YAXV?$_List_unchecked_const_iterator@V?$_List_val@U?$_List_simple_types@UIconRsrc@@@std@@@std@@U_Iterator_base0@2@@0@0AEAV<lambda_ddb1424f293dc9652d5e626a17a49f05>@@@Z 0000000064069f30 f i rsrc.obj
 0001:00069050       ??$_For_each@V?$_List_unchecked_const_iterator@V?$_List_val@U?$_List_simple_types@UIconImage@@@std@@@std@@U_Iterator_base0@2@@std@@V<lambda_7d8a7d8ef281078b4a4568c198bd763a>@@@std@@YAXV?$_List_unchecked_const_iterator@V?$_List_val@U?$_List_simple_types@UIconImage@@@std@@@std@@U_Iterator_base0@2@@0@0AEAV<lambda_7d8a7d8ef281078b4a4568c198bd763a>@@@Z 000000006406a050 f i rsrc.obj
 0001:000691c0       ??$_For_each@V?$_List_unchecked_iterator@V?$_List_val@U?$_List_simple_types@UIconRsrc@@@std@@@std@@@std@@V<lambda_7ec0c4ac0afe4f1b3db6d0331669470a>@@@std@@YAXV?$_List_unchecked_iterator@V?$_List_val@U?$_List_simple_types@UIconRsrc@@@std@@@std@@@0@0AEAV<lambda_7ec0c4ac0afe4f1b3db6d0331669470a>@@@Z 000000006406a1c0 f i rsrc.obj
 0001:000692b0       ??$_For_each@V?$_List_unchecked_const_iterator@V?$_List_val@U?$_List_simple_types@UIconImageRsrc@@@std@@@std@@U_Iterator_base0@2@@std@@V<lambda_e7b410aa814071c122b1fa20fa1dcb1f>@@@std@@YAXV?$_List_unchecked_const_iterator@V?$_List_val@U?$_List_simple_types@UIconImageRsrc@@@std@@@std@@U_Iterator_base0@2@@0@0AEAV<lambda_e7b410aa814071c122b1fa20fa1dcb1f>@@@Z 000000006406a2b0 f i rsrc.obj
 0001:000693d0       ??$_For_each@V?$_List_unchecked_const_iterator@V?$_List_val@U?$_List_simple_types@UIconRsrc@@@std@@@std@@U_Iterator_base0@2@@std@@V<lambda_120421bfcb1cf462d41136abea364246>@@@std@@YAXV?$_List_unchecked_const_iterator@V?$_List_val@U?$_List_simple_types@UIconRsrc@@@std@@@std@@U_Iterator_base0@2@@0@0AEAV<lambda_120421bfcb1cf462d41136abea364246>@@@Z 000000006406a3d0 f i rsrc.obj
 0001:00069550       ??$_Insert@PEBE@?$vector@EV?$allocator@E@std@@@std@@QEAAXV?$_Vector_const_iterator@V?$_Vector_val@U?$_Simple_types@E@std@@@std@@@1@PEBE1Uforward_iterator_tag@1@@Z 000000006406a550 f i rsrc.obj
 0001:000696b0       ??$_For_each@V?$_List_unchecked_iterator@V?$_List_val@U?$_List_simple_types@G@std@@@std@@@std@@V<lambda_ecdb214d1947b8e481e482dbd5ca12c8>@@@std@@YAXV?$_List_unchecked_iterator@V?$_List_val@U?$_List_simple_types@G@std@@@std@@@0@0AEAV<lambda_ecdb214d1947b8e481e482dbd5ca12c8>@@@Z 000000006406a6b0 f i rsrc.obj
 0001:00069860       ??$_For_each@V?$_List_unchecked_iterator@V?$_List_val@U?$_List_simple_types@VRsrcId@@@std@@@std@@@std@@V<lambda_41bfe42483dd29d95e499ed2586d4d62>@@@std@@YAXV?$_List_unchecked_iterator@V?$_List_val@U?$_List_simple_types@VRsrcId@@@std@@@std@@@0@0AEAV<lambda_41bfe42483dd29d95e499ed2586d4d62>@@@Z 000000006406a860 f i rsrc.obj
 0001:00069970       ??$_For_each@V?$_Tree_unchecked_const_iterator@V?$_Tree_val@U?$_Tree_simple_types@U?$pair@$$CBV?$basic_string@_WU?$char_traits@_W@std@@V?$allocator@_W@2@@std@@V12@@std@@@std@@@std@@U_Iterator_base0@2@@std@@V<lambda_75068fcb0d9a48bceaffde5b06f348b5>@@@std@@YAXV?$_Tree_unchecked_const_iterator@V?$_Tree_val@U?$_Tree_simple_types@U?$pair@$$CBV?$basic_string@_WU?$char_traits@_W@std@@V?$allocator@_W@2@@std@@V12@@std@@@std@@@std@@U_Iterator_base0@2@@0@0AEAV<lambda_75068fcb0d9a48bceaffde5b06f348b5>@@@Z 000000006406a970 f i rsrc.obj
 0001:00069ba0       ??$_For_each@V?$_List_unchecked_const_iterator@V?$_List_val@U?$_List_simple_types@UIdLang@@@std@@@std@@U_Iterator_base0@2@@std@@V<lambda_17d23741ab926580c1de605bfdc986f2>@@@std@@YAXV?$_List_unchecked_const_iterator@V?$_List_val@U?$_List_simple_types@UIdLang@@@std@@@std@@U_Iterator_base0@2@@0@0AEAV<lambda_17d23741ab926580c1de605bfdc986f2>@@@Z 000000006406aba0 f i rsrc.obj
 0001:00069c80       ??$_Buynode@AEBUIdLang@@@?$_List_buy@UIdLang@@V?$allocator@UIdLang@@@std@@@std@@QEAAPEAU?$_List_node@UIdLang@@PEAX@1@PEAU21@0AEBUIdLang@@@Z 000000006406ac80 f i rsrc.obj
 0001:00069cd0       ??$_Buynode@AEBUIconRsrc@@@?$_List_buy@UIconRsrc@@V?$allocator@UIconRsrc@@@std@@@std@@QEAAPEAU?$_List_node@UIconRsrc@@PEAX@1@PEAU21@0AEBUIconRsrc@@@Z 000000006406acd0 f i rsrc.obj
 0001:00069d30       ??$_Buynode@UIconRsrc@@@?$_List_buy@UIconRsrc@@V?$allocator@UIconRsrc@@@std@@@std@@QEAAPEAU?$_List_node@UIconRsrc@@PEAX@1@PEAU21@0$$QEAUIconRsrc@@@Z 000000006406ad30 f i rsrc.obj
 0001:00069d90       ??$_Buynode@AEBG@?$_List_buy@GV?$allocator@G@std@@@std@@QEAAPEAU?$_List_node@GPEAX@1@PEAU21@0AEBG@Z 000000006406ad90 f i rsrc.obj
 0001:00069dc0       ??$_Buynode@VRsrcId@@@?$_List_buy@VRsrcId@@V?$allocator@VRsrcId@@@std@@@std@@QEAAPEAU?$_List_node@VRsrcId@@PEAX@1@PEAU21@0$$QEAVRsrcId@@@Z 000000006406adc0 f i rsrc.obj
 0001:00069e20       ??$_Buynode@AEBUIconImageRsrc@@@?$_List_buy@UIconImageRsrc@@V?$allocator@UIconImageRsrc@@@std@@@std@@QEAAPEAU?$_List_node@UIconImageRsrc@@PEAX@1@PEAU21@0AEBUIconImageRsrc@@@Z 000000006406ae20 f i rsrc.obj
 0001:00069ec0       ??$_Buynode@AEBUIconImage@@@?$_List_buy@UIconImage@@V?$allocator@UIconImage@@@std@@@std@@QEAAPEAU?$_List_node@UIconImage@@PEAX@1@PEAU21@0AEBUIconImage@@@Z 000000006406aec0 f i rsrc.obj
 0001:00069f40       ??$construct@UIdLang@@AEBU1@@?$_Wrap_alloc@V?$allocator@U?$_List_node@UIdLang@@PEAX@std@@@std@@@std@@QEAAXPEAUIdLang@@AEBU2@@Z 000000006406af40 f i rsrc.obj
 0001:00069fc0       ??$_Rotate@PEAE@std@@YAPEAEPEAE00Urandom_access_iterator_tag@0@@Z 000000006406afc0 f i rsrc.obj
 0001:0006a070       ??0IconRsrc@@QEAA@AEBU0@@Z 000000006406b070 f i rsrc.obj
 0001:0006a0f0       ??0?$list@UIconImageRsrc@@V?$allocator@UIconImageRsrc@@@std@@@std@@QEAA@AEBV01@@Z 000000006406b0f0 f i rsrc.obj
 0001:0006a150       ??$_Insert_range@V?$_List_const_iterator@V?$_List_val@U?$_List_simple_types@UIconImageRsrc@@@std@@@std@@@std@@@?$list@UIconImageRsrc@@V?$allocator@UIconImageRsrc@@@std@@@std@@QEAAXV?$_List_unchecked_const_iterator@V?$_List_val@U?$_List_simple_types@UIconImageRsrc@@@std@@@std@@U_Iterator_base0@2@@1@V?$_List_const_iterator@V?$_List_val@U?$_List_simple_types@UIconImageRsrc@@@std@@@std@@@1@1Uforward_iterator_tag@1@@Z 000000006406b150 f i rsrc.obj
 0001:0006a200       ?dialog_proc@Dialog@Far@@MEAA_J_J0PEAX@Z 000000006406b200 f i farutils.obj
 0001:0006a210       ?init@Far@@YAXPEBUPluginStartupInfo@@@Z 000000006406b210 f   farutils.obj
 0001:0006a2f0       ?get_plugin_module_path@Far@@YA?AV?$basic_string@_WU?$char_traits@_W@std@@V?$allocator@_W@2@@std@@XZ 000000006406b2f0 f   farutils.obj
 0001:0006a3a0       ?get_msg@Far@@YA?AV?$basic_string@_WU?$char_traits@_W@std@@V?$allocator@_W@2@@std@@H@Z 000000006406b3a0 f   farutils.obj
 0001:0006a410       ?get_optimal_msg_width@Far@@YAIXZ 000000006406b410 f   farutils.obj
 0001:0006a460       ?message@Far@@YA_JAEBU_GUID@@AEBV?$basic_string@_WU?$char_traits@_W@std@@V?$allocator@_W@2@@std@@H_K@Z 000000006406b460 f   farutils.obj
 0001:0006a4b0       ?menu@Far@@YA_JAEBU_GUID@@AEBV?$basic_string@_WU?$char_traits@_W@std@@V?$allocator@_W@2@@std@@AEBVMenuItems@1@PEB_W@Z 000000006406b4b0 f   farutils.obj
 0001:0006a7c0       ?get_progress_bar_str@Far@@YA?AV?$basic_string@_WU?$char_traits@_W@std@@V?$allocator@_W@2@@std@@I_K0@Z 000000006406b7c0 f   farutils.obj
 0001:0006a880       ?post_macro@Far@@YA_NAEBV?$basic_string@_WU?$char_traits@_W@std@@V?$allocator@_W@2@@std@@@Z 000000006406b880 f   farutils.obj
 0001:0006a900       ?get_panel_dir@Far@@YA?AV?$basic_string@_WU?$char_traits@_W@std@@V?$allocator@_W@2@@std@@PEAX@Z 000000006406b900 f   farutils.obj
 0001:0006aae0       ?get_panel_item@Far@@YAXPEAXW4FILE_CONTROL_COMMANDS@@_KAEAV?$Buffer@E@@@Z 000000006406bae0 f   farutils.obj
 0001:0006ac40       ?get_panel_item@Far@@YA?AUPanelItem@1@PEAXW4FILE_CONTROL_COMMANDS@@_K@Z 000000006406bc40 f   farutils.obj
 0001:0006ad90       ?get_current_panel_item@Far@@YA?AUPanelItem@1@PEAX@Z 000000006406bd90 f   farutils.obj
 0001:0006adc0       ?get_selected_panel_item@Far@@YA?AUPanelItem@1@PEAX_K@Z 000000006406bdc0 f   farutils.obj
 0001:0006adf0       ?error_dlg@Far@@YAXAEBV?$basic_string@_WU?$char_traits@_W@std@@V?$allocator@_W@2@@std@@AEBUError@@@Z 000000006406bdf0 f   farutils.obj
 0001:0006b440       ?info_dlg@Far@@YAXAEBU_GUID@@AEBV?$basic_string@_WU?$char_traits@_W@std@@V?$allocator@_W@2@@std@@1@Z 000000006406c440 f   farutils.obj
 0001:0006b540       ?input_dlg@Far@@YA_NAEBU_GUID@@AEBV?$basic_string@_WU?$char_traits@_W@std@@V?$allocator@_W@2@@std@@1AEAV34@_K@Z 000000006406c540 f   farutils.obj
 0001:0006b650       ?frame@Dialog@Far@@AEAAXAEBV?$basic_string@_WU?$char_traits@_W@std@@V?$allocator@_W@2@@std@@@Z 000000006406c650 f   farutils.obj
 0001:0006b700       ?internal_dialog_proc@Dialog@Far@@CA_JPEAX_J10@Z 000000006406c700 f   farutils.obj
 0001:0006b7a0       ?separator@Dialog@Far@@QEAAIXZ 000000006406c7a0 f   farutils.obj
 0001:0006b820       ?separator@Dialog@Far@@QEAAIAEBV?$basic_string@_WU?$char_traits@_W@std@@V?$allocator@_W@2@@std@@@Z 000000006406c820 f   farutils.obj
 0001:0006b8e0       ?label@Dialog@Far@@QEAAIAEBV?$basic_string@_WU?$char_traits@_W@std@@V?$allocator@_W@2@@std@@_K1@Z 000000006406c8e0 f   farutils.obj
 0001:0006ba30       ?edit_box@Dialog@Far@@QEAAIAEBV?$basic_string@_WU?$char_traits@_W@std@@V?$allocator@_W@2@@std@@_K1@Z 000000006406ca30 f   farutils.obj
 0001:0006bb30       ?history_edit_box@Dialog@Far@@QEAAIAEBV?$basic_string@_WU?$char_traits@_W@std@@V?$allocator@_W@2@@std@@0_K1@Z 000000006406cb30 f   farutils.obj
 0001:0006bba0       ?pwd_edit_box@Dialog@Far@@QEAAIAEBV?$basic_string@_WU?$char_traits@_W@std@@V?$allocator@_W@2@@std@@_K1@Z 000000006406cba0 f   farutils.obj
 0001:0006bc90       ?button@Dialog@Far@@QEAAIAEBV?$basic_string@_WU?$char_traits@_W@std@@V?$allocator@_W@2@@std@@_K@Z 000000006406cc90 f   farutils.obj
 0001:0006bdb0       ?check_box@Dialog@Far@@QEAAIAEBV?$basic_string@_WU?$char_traits@_W@std@@V?$allocator@_W@2@@std@@H_K@Z 000000006406cdb0 f   farutils.obj
 0001:0006bee0       ?radio_button@Dialog@Far@@QEAAIAEBV?$basic_string@_WU?$char_traits@_W@std@@V?$allocator@_W@2@@std@@_N_K@Z 000000006406cee0 f   farutils.obj
 0001:0006c030       ?combo_box@Dialog@Far@@QEAAIAEBV?$vector@V?$basic_string@_WU?$char_traits@_W@std@@V?$allocator@_W@2@@std@@V?$allocator@V?$basic_string@_WU?$char_traits@_W@std@@V?$allocator@_W@2@@std@@@2@@std@@_K11@Z 000000006406d030 f   farutils.obj
 0001:0006c1d0       ?show@Dialog@Far@@QEAA_JXZ 000000006406d1d0 f   farutils.obj
 0001:0006c610       ?get_text@Dialog@Far@@QEBA?AV?$basic_string@_WU?$char_traits@_W@std@@V?$allocator@_W@2@@std@@I@Z 000000006406d610 f   farutils.obj
 0001:0006c710       ?get_check@Dialog@Far@@QEBA_NI@Z 000000006406d710 f   farutils.obj
 0001:0006c740       ?get_check3@Dialog@Far@@QEBA?AW4TriState@@I@Z 000000006406d740 f   farutils.obj
 0001:0006c780       ?set_list_pos@Dialog@Far@@QEAAXI_K@Z 000000006406d780 f   farutils.obj
 0001:0006c7e0       ?create@FileFilter@Far@@QEAA_NPEAXH@Z 000000006406d7e0 f   farutils.obj
 0001:0006c830       ?get_absolute_path@Far@@YA?AV?$basic_string@_WU?$char_traits@_W@std@@V?$allocator@_W@2@@std@@AEBV23@@Z 000000006406d830 f   farutils.obj
 0001:0006c970       ?panel_go_to_dir@Far@@YA_NPEAXAEBV?$basic_string@_WU?$char_traits@_W@std@@V?$allocator@_W@2@@std@@@Z 000000006406d970 f   farutils.obj
 0001:0006c9f0       ?panel_go_to_file@Far@@YA_NPEAXAEBV?$basic_string@_WU?$char_traits@_W@std@@V?$allocator@_W@2@@std@@@Z 000000006406d9f0 f   farutils.obj
 0001:0006ce60       ?get_lang_id@Far@@YAKXZ    000000006406de60 f   farutils.obj
 0001:0006cf40       ??1Settings@Far@@QEAA@XZ   000000006406df40 f   farutils.obj
 0001:0006cf90       ?set_dir@Settings@Far@@QEAA_NAEBV?$basic_string@_WU?$char_traits@_W@std@@V?$allocator@_W@2@@std@@@Z 000000006406df90 f   farutils.obj
 0001:0006d060       ?list_dir@Settings@Far@@QEAA_NAEAV?$vector@V?$basic_string@_WU?$char_traits@_W@std@@V?$allocator@_W@2@@std@@V?$allocator@V?$basic_string@_WU?$char_traits@_W@std@@V?$allocator@_W@2@@std@@@2@@std@@@Z 000000006406e060 f   farutils.obj
 0001:0006d2d0       ??1?$vector@UFarMenuItem@@V?$allocator@UFarMenuItem@@@std@@@std@@QEAA@XZ 000000006406e2d0 f i farutils.obj
 0001:0006d320       ?push_back@?$vector@UDialogItem@Far@@V?$allocator@UDialogItem@Far@@@std@@@std@@QEAAXAEBUDialogItem@Far@@@Z 000000006406e320 f i farutils.obj
 0001:0006d430       ?_Reserve@?$vector@UFarMenuItem@@V?$allocator@UFarMenuItem@@@std@@@std@@IEAAX_K@Z 000000006406e430 f i farutils.obj
 0001:0006d500       ?_Reallocate@?$vector@UFarMenuItem@@V?$allocator@UFarMenuItem@@@std@@@std@@IEAAX_K@Z 000000006406e500 f i farutils.obj
 0001:0006d5c0       ?_Reserve@?$vector@UDialogItem@Far@@V?$allocator@UDialogItem@Far@@@std@@@std@@IEAAX_K@Z 000000006406e5c0 f i farutils.obj
 0001:0006d690       ?_Reallocate@?$vector@UDialogItem@Far@@V?$allocator@UDialogItem@Far@@@std@@@std@@IEAAX_K@Z 000000006406e690 f i farutils.obj
 0001:0006d750       ?allocate@?$allocator@UDialogItem@Far@@@std@@QEAAPEAUDialogItem@Far@@_K@Z 000000006406e750 f i farutils.obj
 0001:0006d7d0       ??$_Uninitialized_move_al_unchecked1@PEAUDialogItem@Far@@PEAU12@V?$allocator@UDialogItem@Far@@@std@@@std@@YAPEAUDialogItem@Far@@PEAU12@00AEAU?$_Wrap_alloc@V?$allocator@UDialogItem@Far@@@std@@@0@U_General_ptr_iterator_tag@0@@Z 000000006406e7d0 f i farutils.obj
 0001:0006d830       ?long_path@@YA?AV?$basic_string@_WU?$char_traits@_W@std@@V?$allocator@_W@2@@std@@AEBV12@@Z 000000006406e830 f   pathutils.obj
 0001:0006dad0       ?add_trailing_slash@@YA?AV?$basic_string@_WU?$char_traits@_W@std@@V?$allocator@_W@2@@std@@AEBV12@@Z 000000006406ead0 f   pathutils.obj
 0001:0006db40       ?locate_path_root@@YAXAEBV?$basic_string@_WU?$char_traits@_W@std@@V?$allocator@_W@2@@std@@AEA_KAEA_N@Z 000000006406eb40 f   pathutils.obj
 0001:0006dd60       ?extract_file_name@@YA?AV?$basic_string@_WU?$char_traits@_W@std@@V?$allocator@_W@2@@std@@AEBV12@@Z 000000006406ed60 f   pathutils.obj
 0001:0006de10       ?extract_file_path@@YA?AV?$basic_string@_WU?$char_traits@_W@std@@V?$allocator@_W@2@@std@@AEBV12@@Z 000000006406ee10 f   pathutils.obj
 0001:0006df40       ?extract_file_ext@@YA?AV?$basic_string@_WU?$char_traits@_W@std@@V?$allocator@_W@2@@std@@AEBV12@@Z 000000006406ef40 f   pathutils.obj
 0001:0006e010       ?is_root_path@@YA_NAEBV?$basic_string@_WU?$char_traits@_W@std@@V?$allocator@_W@2@@std@@@Z 000000006406f010 f   pathutils.obj
 0001:0006e060       ?is_absolute_path@@YA_NAEBV?$basic_string@_WU?$char_traits@_W@std@@V?$allocator@_W@2@@std@@@Z 000000006406f060 f   pathutils.obj
 0001:0006e130       ?remove_path_root@@YA?AV?$basic_string@_WU?$char_traits@_W@std@@V?$allocator@_W@2@@std@@AEBV12@@Z 000000006406f130 f   pathutils.obj
 0001:0006e1b0       ?substr_match@@YA_NAEBV?$basic_string@_WU?$char_traits@_W@std@@V?$allocator@_W@2@@std@@_KPEB_W@Z 000000006406f1b0 f   strutils.obj
 0001:0006e230       ?word_wrap@@YA?AV?$basic_string@_WU?$char_traits@_W@std@@V?$allocator@_W@2@@std@@AEBV12@_K@Z 000000006406f230 f   strutils.obj
 0001:0006e440       ?fit_str@@YA?AV?$basic_string@_WU?$char_traits@_W@std@@V?$allocator@_W@2@@std@@AEBV12@_K@Z 000000006406f440 f   strutils.obj
 0001:0006e550       ?strip@@YA?AV?$basic_string@_WU?$char_traits@_W@std@@V?$allocator@_W@2@@std@@AEBV12@@Z 000000006406f550 f   strutils.obj
 0001:0006e570       ?int_to_str@@YA?AV?$basic_string@_WU?$char_traits@_W@std@@V?$allocator@_W@2@@std@@H@Z 000000006406f570 f   strutils.obj
 0001:0006e610       ?str_to_uint@@YA_KAEBV?$basic_string@_WU?$char_traits@_W@std@@V?$allocator@_W@2@@std@@@Z 000000006406f610 f   strutils.obj
 0001:0006e690       ?uint_to_str@@YA?AV?$basic_string@_WU?$char_traits@_W@std@@V?$allocator@_W@2@@std@@_K@Z 000000006406f690 f   strutils.obj
 0001:0006e780       ?widen@@YA?AV?$basic_string@_WU?$char_traits@_W@std@@V?$allocator@_W@2@@std@@AEBV?$basic_string@DU?$char_traits@D@std@@V?$allocator@D@2@@2@@Z 000000006406f780 f   strutils.obj
 0001:0006e800       ?split@@YA?AV?$list@V?$basic_string@_WU?$char_traits@_W@std@@V?$allocator@_W@2@@std@@V?$allocator@V?$basic_string@_WU?$char_traits@_W@std@@V?$allocator@_W@2@@std@@@2@@std@@AEBV?$basic_string@_WU?$char_traits@_W@std@@V?$allocator@_W@2@@2@_W@Z 000000006406f800 f   strutils.obj
 0001:0006e9b0       ?format_data_size@@YA?AV?$basic_string@_WU?$char_traits@_W@std@@V?$allocator@_W@2@@std@@_KQEAPEB_W@Z 000000006406f9b0 f   strutils.obj
 0001:0006ec00       ?unquote@@YA?AV?$basic_string@_WU?$char_traits@_W@std@@V?$allocator@_W@2@@std@@AEBV12@@Z 000000006406fc00 f   strutils.obj
 0001:0006eca0       ?search_and_replace@@YA?AV?$basic_string@_WU?$char_traits@_W@std@@V?$allocator@_W@2@@std@@AEBV12@00@Z 000000006406fca0 f   strutils.obj
 0001:0006ee80       ??$strip@_W@@YA?AV?$basic_string@_WU?$char_traits@_W@std@@V?$allocator@_W@2@@std@@AEBV01@@Z 000000006406fe80 f i strutils.obj
 0001:0006ef30       ??_ECriticalSection@@UEAAPEAXI@Z 000000006406ff30 f i * CIL library *:* CIL module *
 0001:0006ef30       ??_GCriticalSection@@UEAAPEAXI@Z 000000006406ff30 f i sysutils.obj
 0001:0006ef80       ?get_system_message@@YA?AV?$basic_string@_WU?$char_traits@_W@std@@V?$allocator@_W@2@@std@@JK@Z 000000006406ff80 f   sysutils.obj
 0001:0006f340       ?get_console_title@@YA?AV?$basic_string@_WU?$char_traits@_W@std@@V?$allocator@_W@2@@std@@XZ 0000000064070340 f   sysutils.obj
 0001:0006f3f0       ?ansi_to_unicode@@YA?AV?$basic_string@_WU?$char_traits@_W@std@@V?$allocator@_W@2@@std@@AEBV?$basic_string@DU?$char_traits@D@std@@V?$allocator@D@2@@2@I@Z 00000000640703f0 f   sysutils.obj
 0001:0006f580       ?unicode_to_ansi@@YA?AV?$basic_string@DU?$char_traits@D@std@@V?$allocator@D@2@@std@@AEBV?$basic_string@_WU?$char_traits@_W@std@@V?$allocator@_W@2@@2@I@Z 0000000064070580 f   sysutils.obj
 0001:0006f700       ?expand_env_vars@@YA?AV?$basic_string@_WU?$char_traits@_W@std@@V?$allocator@_W@2@@std@@AEBV12@@Z 0000000064070700 f   sysutils.obj
 0001:0006f870       ??1File@@QEAA@XZ           0000000064070870 f   sysutils.obj
 0001:0006f8e0       ?open@File@@QEAAXAEBV?$basic_string@_WU?$char_traits@_W@std@@V?$allocator@_W@2@@std@@KKKK@Z 00000000640708e0 f   sysutils.obj
 0001:0006f990       ?open_nt@File@@QEAA_NAEBV?$basic_string@_WU?$char_traits@_W@std@@V?$allocator@_W@2@@std@@KKKK@Z 0000000064070990 f   sysutils.obj
 0001:0006fab0       ?size@File@@QEAA_KXZ       0000000064070ab0 f   sysutils.obj
 0001:0006fb50       ?read@File@@QEAA_KPEAX_K@Z 0000000064070b50 f   sysutils.obj
 0001:0006fc00       ?write@File@@QEAA_KPEBX_K@Z 0000000064070c00 f   sysutils.obj
 0001:0006fcb0       ?set_time@File@@QEAAXAEBU_FILETIME@@00@Z 0000000064070cb0 f   sysutils.obj
 0001:0006fd50       ?set_pos@File@@QEAA_K_JK@Z 0000000064070d50 f   sysutils.obj
 0001:0006fe00       ?set_end@File@@QEAAXXZ     0000000064070e00 f   sysutils.obj
 0001:0006fea0       ?exists@File@@SA_NAEBV?$basic_string@_WU?$char_traits@_W@std@@V?$allocator@_W@2@@std@@@Z 0000000064070ea0 f   sysutils.obj
 0001:0006ff30       ?set_attr@File@@SAXAEBV?$basic_string@_WU?$char_traits@_W@std@@V?$allocator@_W@2@@std@@K@Z 0000000064070f30 f   sysutils.obj
 0001:0006ffc0       ?set_attr_nt@File@@SA_NAEBV?$basic_string@_WU?$char_traits@_W@std@@V?$allocator@_W@2@@std@@K@Z 0000000064070fc0 f   sysutils.obj
 0001:00070060       ?delete_file@File@@SAXAEBV?$basic_string@_WU?$char_traits@_W@std@@V?$allocator@_W@2@@std@@@Z 0000000064071060 f   sysutils.obj
 0001:000700f0       ?delete_file_nt@File@@SA_NAEBV?$basic_string@_WU?$char_traits@_W@std@@V?$allocator@_W@2@@std@@@Z 00000000640710f0 f   sysutils.obj
 0001:00070180       ?create_dir_nt@File@@SA_NAEBV?$basic_string@_WU?$char_traits@_W@std@@V?$allocator@_W@2@@std@@@Z 0000000064071180 f   sysutils.obj
 0001:00070210       ?remove_dir@File@@SAXAEBV?$basic_string@_WU?$char_traits@_W@std@@V?$allocator@_W@2@@std@@@Z 0000000064071210 f   sysutils.obj
 0001:000702a0       ?remove_dir_nt@File@@SA_NAEBV?$basic_string@_WU?$char_traits@_W@std@@V?$allocator@_W@2@@std@@@Z 00000000640712a0 f   sysutils.obj
 0001:00070330       ?move_file@File@@SAXAEBV?$basic_string@_WU?$char_traits@_W@std@@V?$allocator@_W@2@@std@@0K@Z 0000000064071330 f   sysutils.obj
 0001:000703c0       ?move_file_nt@File@@SA_NAEBV?$basic_string@_WU?$char_traits@_W@std@@V?$allocator@_W@2@@std@@0K@Z 00000000640713c0 f   sysutils.obj
 0001:000704e0       ?get_find_data@File@@SA?AUFindData@@AEBV?$basic_string@_WU?$char_traits@_W@std@@V?$allocator@_W@2@@std@@@Z 00000000640714e0 f   sysutils.obj
 0001:00070590       ?get_find_data_nt@File@@SA_NAEBV?$basic_string@_WU?$char_traits@_W@std@@V?$allocator@_W@2@@std@@AEAUFindData@@@Z 0000000064071590 f   sysutils.obj
 0001:00070630       ??1Key@@QEAA@XZ            0000000064071630 f   sysutils.obj
 0001:00070660       ?query_str_nt@Key@@QEAA_NAEAV?$basic_string@_WU?$char_traits@_W@std@@V?$allocator@_W@2@@std@@PEB_W@Z 0000000064071660 f   sysutils.obj
 0001:00070750       ?next@FileEnum@@QEAA_NXZ   0000000064071750 f   sysutils.obj
 0001:000707f0       ?next_nt@FileEnum@@QEAA_NAEA_N@Z 00000000640717f0 f   sysutils.obj
 0001:000708e0       ??0DirList@@QEAA@AEBV?$basic_string@_WU?$char_traits@_W@std@@V?$allocator@_W@2@@std@@@Z 00000000640718e0 f   sysutils.obj
 0001:000709c0       ?get_temp_path@@YA?AV?$basic_string@_WU?$char_traits@_W@std@@V?$allocator@_W@2@@std@@XZ 00000000640719c0 f   sysutils.obj
 0001:00070b60       ??0TempFile@@QEAA@XZ       0000000064071b60 f   sysutils.obj
 0001:00070d10       ??1TempFile@@QEAA@XZ       0000000064071d10 f   sysutils.obj
 0001:00070d70       ?format_file_time@@YA?AV?$basic_string@_WU?$char_traits@_W@std@@V?$allocator@_W@2@@std@@AEBU_FILETIME@@@Z 0000000064071d70 f   sysutils.obj
 0001:000710c0       ?upcase@@YA?AV?$basic_string@_WU?$char_traits@_W@std@@V?$allocator@_W@2@@std@@AEBV12@@Z 00000000640720c0 f   sysutils.obj
 0001:000711a0       ?search_path@@YA?AV?$basic_string@_WU?$char_traits@_W@std@@V?$allocator@_W@2@@std@@AEBV12@@Z 00000000640721a0 f   sysutils.obj
 0001:000713d0       ??6?$basic_ostream@_WU?$char_traits@_W@std@@@std@@QEAAAEAV01@J@Z 00000000640723d0 f i sysutils.obj
 0001:00071580       ?GetOEMCP@patched@@SAIXZ   0000000064072580 f i Patch7zCP.obj
 0001:00071590       ?GetACP@patched@@SAIXZ     0000000064072590 f i Patch7zCP.obj
 0001:000715a0       ?MultiByteToWideChar@patched@@SAHIKPEBDHPEA_WH@Z 00000000640725a0 f i Patch7zCP.obj
 0001:000715d0       ?WideCharToMultiByte@patched@@SAHIKPEB_WHPEADHPEBDPEAH@Z 00000000640725d0 f i Patch7zCP.obj
 0001:000718e0       ?SetCP@Patch7zCP@@SAXII@Z  00000000640728e0 f   Patch7zCP.obj
 0001:000719b4       ??0bad_alloc@std@@QEAA@AEBV01@@Z 00000000640729b4 f i libcpmt:xthrow.obj
 0001:000719f4       ??0bad_alloc@std@@QEAA@XZ  00000000640729f4 f i libcpmt:xthrow.obj
 0001:00071a14       ??0length_error@std@@QEAA@AEBV01@@Z 0000000064072a14 f i libcpmt:xthrow.obj
 0001:00071a54       ??0length_error@std@@QEAA@PEBD@Z 0000000064072a54 f i libcpmt:xthrow.obj
 0001:00071aa0       ??0logic_error@std@@QEAA@AEBV01@@Z 0000000064072aa0 f i libcpmt:xthrow.obj
 0001:00071ae0       ??0out_of_range@std@@QEAA@AEBV01@@Z 0000000064072ae0 f i libcpmt:xthrow.obj
 0001:00071b20       ??0out_of_range@std@@QEAA@PEBD@Z 0000000064072b20 f i libcpmt:xthrow.obj
 0001:00071b6c       ?_Xlength_error@std@@YAXPEBD@Z 0000000064072b6c f   libcpmt:xthrow.obj
 0001:00071b90       ?_Xout_of_range@std@@YAXPEBD@Z 0000000064072b90 f   libcpmt:xthrow.obj
 0001:00071bb4       ?_Ios_base_dtor@ios_base@std@@CAXPEAV12@@Z 0000000064072bb4 f   libcpmt:ios.obj
 0001:00071bf8       ?_Tidy@ios_base@std@@AEAAXXZ 0000000064072bf8 f i libcpmt:ios.obj
 0001:00071c88       ?uncaught_exception@std@@YA_NXZ 0000000064072c88 f   libcpmt:uncaught.obj
 0001:00071c90       _Mbrtowc                   0000000064072c90 f   libcpmt:xmbtowc.obj
 0001:00071e64       ??4?$_Yarn@D@std@@QEAAAEAV01@PEBD@Z 0000000064072e64 f i libcpmt:locale0.obj
 0001:00071edc       ??_G_Fac_node@std@@QEAAPEAXI@Z 0000000064072edc f i libcpmt:locale0.obj
 0001:00071f68       ??_E_Locimp@locale@std@@MEAAPEAXI@Z 0000000064072f68 f i libcpmt:locale0.obj
 0001:00071f68       ??_G_Locimp@locale@std@@MEAAPEAXI@Z 0000000064072f68 f i libcpmt:locale0.obj
 0001:00071fd4       ?_Facet_Register@std@@YAXPEAV_Facet_base@1@@Z 0000000064072fd4 f   libcpmt:locale0.obj
 0001:0007200c       ?_Getgloballocale@locale@std@@CAPEAV_Locimp@12@XZ 000000006407300c f   libcpmt:locale0.obj
 0001:00072014       ?_Init@locale@std@@CAPEAV_Locimp@12@_N@Z 0000000064073014 f   libcpmt:locale0.obj
 0001:000720d0       ?_Locimp_dtor@_Locimp@locale@std@@CAXPEAV123@@Z 00000000640730d0 f   libcpmt:locale0.obj
 0001:00072178       ?_Locinfo_ctor@_Locinfo@std@@SAXPEAV12@PEBD@Z 0000000064073178 f   libcpmt:locale0.obj
 0001:000721e4       ?_Locinfo_dtor@_Locinfo@std@@SAXPEAV12@@Z 00000000640731e4 f   libcpmt:locale0.obj
 0001:00072208       ?_New_Locimp@_Locimp@locale@std@@CAPEAV123@_N@Z 0000000064073208 f   libcpmt:locale0.obj
 0001:00072278       ?_Setgloballocale@locale@std@@CAXPEAX@Z 0000000064073278 f   libcpmt:locale0.obj
 0001:000722ac       _Deletegloballocale        00000000640732ac f   libcpmt:locale0.obj
 0001:00072334       ?_Syserror_map@std@@YAPEBDH@Z 0000000064073334 f   libcpmt:syserror.obj
 0001:0007235c       ??0_Init_locks@std@@QEAA@XZ 000000006407335c f   libcpmt:xlock.obj
 0001:000723a8       ??0_Lockit@std@@QEAA@H@Z   00000000640733a8 f   libcpmt:xlock.obj
 0001:000723e4       ??1_Init_locks@std@@QEAA@XZ 00000000640733e4 f   libcpmt:xlock.obj
 0001:00072428       ??1_Lockit@std@@QEAA@XZ    0000000064073428 f   libcpmt:xlock.obj
 0001:0007245c       _Getcvt                    000000006407345c f   libcpmt:xwctomb.obj
 0001:000724ec       _Wcrtomb                   00000000640734ec f   libcpmt:xwctomb.obj
 0001:00072568       _Getctype                  0000000064073568 f   libcpmt:_tolower.obj
 0001:00072628       _Towupper                  0000000064073628 f   libcpmt:xtowupper.obj
 0001:000726a0       _Towlower                  00000000640736a0 f   libcpmt:xtowlower.obj
 0001:00072714       _Getwctype                 0000000064073714 f   libcpmt:xgetwctype.obj
 0001:00072748       _Getwctypes                0000000064073748 f   libcpmt:xgetwctype.obj
 0001:00072778       ?setw@std@@YA?AU?$_Smanip@_J@1@_J@Z 0000000064073778 f   libcpmt:iomanip.obj
 0001:00072794       ?_Atexit@@YAXP6AXXZ@Z      0000000064073794 f   libcpmt:iosptrs.obj
 0001:000727d4       _Mtxdst                    00000000640737d4 f   libcpmt:xmtx.obj
 0001:000727dc       _Mtxinit                   00000000640737dc f   libcpmt:xmtx.obj
 0001:000727ec       _Mtxlock                   00000000640737ec f   libcpmt:xmtx.obj
 0001:000727f4       _Mtxunlock                 00000000640737f4 f   libcpmt:xmtx.obj
 0001:000727fc       __crtLCMapStringW          00000000640737fc f   libcpmt:StlLCMapStringW.obj
 0001:00072d28       __crtInitializeCriticalSectionEx 0000000064073d28 f   libcpmt:winapisupp.obj
 0001:00072d88       GetTableIndexFromLocaleName 0000000064073d88 f   libcpmt:winapinls.obj
 0001:00072e14       __crtDownlevelLocaleNameToLCID 0000000064073e14 f   libcpmt:winapinls.obj
 0001:00072e48       __crtLCMapStringEx         0000000064073e48 f   libcpmt:winapinls.obj
 0001:00072f04       __wcsnicmp_ascii           0000000064073f04 f   libcpmt:winapinls.obj
 0001:00072f70       __security_check_cookie    0000000064073f70 f   LIBCMT:_amdsecgs_.obj
 0001:00072f94       ??3@YAXPEAX@Z              0000000064073f94 f   LIBCMT:delete_scalar.obj
 0001:00072f9c       ??2@YAPEAX_K@Z             0000000064073f9c f   LIBCMT:new_scalar.obj
 0001:00072fd8       ??_Gtype_info@@UEAAPEAXI@Z 0000000064073fd8 f i LIBCMT:std_type_info_static.obj
 0001:00072fd8       ??_Etype_info@@UEAAPEAXI@Z 0000000064073fd8 f i LIBCMT:std_type_info_static.obj
 0001:00073004       __scrt_acquire_startup_lock 0000000064074004 f   LIBCMT:utility.obj
 0001:00073040       __scrt_dllmain_after_initialize_c 0000000064074040 f   LIBCMT:utility.obj
 0001:00073074       __scrt_dllmain_before_initialize_c 0000000064074074 f   LIBCMT:utility.obj
 0001:0007308c       __scrt_dllmain_crt_thread_attach 000000006407408c f   LIBCMT:utility.obj
 0001:000730b4       __scrt_dllmain_crt_thread_detach 00000000640740b4 f   LIBCMT:utility.obj
 0001:000730cc       __scrt_dllmain_exception_filter 00000000640740cc f   LIBCMT:utility.obj
 0001:00073130       __scrt_dllmain_uninitialize_c 0000000064074130 f   LIBCMT:utility.obj
 0001:00073160       __scrt_dllmain_uninitialize_critical 0000000064074160 f   LIBCMT:utility.obj
 0001:00073174       __scrt_initialize_crt      0000000064074174 f   LIBCMT:utility.obj
 0001:000731c0       __scrt_initialize_onexit_tables 00000000640741c0 f   LIBCMT:utility.obj
 0001:0007328c       __scrt_is_nonwritable_in_current_image 000000006407428c f   LIBCMT:utility.obj
 0001:00073328       __scrt_release_startup_lock 0000000064074328 f   LIBCMT:utility.obj
 0001:0007334c       __scrt_uninitialize_crt    000000006407434c f   LIBCMT:utility.obj
 0001:00073378       _onexit                    0000000064074378 f   LIBCMT:utility.obj
 0001:000733c8       atexit                     00000000640743c8 f   LIBCMT:utility.obj
 0001:000733e0       ??3@YAXPEAX_K@Z            00000000640743e0 f   LIBCMT:delete_scalar_size.obj
 0001:000733e0       ??_V@YAXPEAX@Z             00000000640743e0 f   LIBCMT:delete_array.obj
 0001:000733e8       ??_U@YAPEAX_K@Z            00000000640743e8 f   LIBCMT:new_array.obj
 0001:000733f0       ?__scrt_initialize_type_info@@YAXXZ 00000000640743f0 f   LIBCMT:tncleanup.obj
 0001:00073400       ?__scrt_uninitialize_type_info@@YAXXZ 0000000064074400 f   LIBCMT:tncleanup.obj
 0001:0007340c       ??_L@YAXPEAX_K1P6AX0@Z2@Z  000000006407440c f   LIBCMT:ehvecctr.obj
 0001:0007347c       ??_M@YAXPEAX_K1P6AX0@Z@Z   000000006407447c f   LIBCMT:ehvecdtr.obj
 0001:000734e8       ?__ArrayUnwind@@YAXPEAX_K1P6AX0@Z@Z 00000000640744e8 f   LIBCMT:ehvecdtr.obj
 0001:000738bc       _DllMainCRTStartup         00000000640748bc f   LIBCMT:dll_dllmain.obj
 0001:000738fc       _guard_check_icall         00000000640748fc f i LIBCMT:checkcfg.obj
 0001:00073904       __GSHandlerCheck           0000000064074904 f   LIBCMT:_gshandler_.obj
 0001:00073924       __GSHandlerCheckCommon     0000000064074924 f   LIBCMT:_gshandler_.obj
 0001:00073980       __GSHandlerCheck_EH        0000000064074980 f   LIBCMT:gshandlereh.obj
 0001:00073a20       _alloca_probe              0000000064074a20 f   LIBCMT:_chkstk_.obj
 0001:00073a20       __chkstk                   0000000064074a20 f   LIBCMT:_chkstk_.obj
 0001:00073a74       __raise_securityfailure    0000000064074a74 f   LIBCMT:gs_report.obj
 0001:00073aa8       __report_gsfailure         0000000064074aa8 f   LIBCMT:gs_report.obj
 0001:00073b7c       __report_rangecheckfailure 0000000064074b7c f   LIBCMT:gs_report.obj
 0001:00073b90       __report_securityfailure   0000000064074b90 f   LIBCMT:gs_report.obj
 0001:00073d10       ??0bad_array_new_length@std@@QEAA@AEBV01@@Z 0000000064074d10 f i LIBCMT:throw_bad_alloc.obj
 0001:00073d50       ??0bad_array_new_length@std@@QEAA@XZ 0000000064074d50 f i LIBCMT:throw_bad_alloc.obj
 0001:00073d70       ?_Xbad_alloc@std@@YAXXZ    0000000064074d70 f   libcpmt:xthrow.obj
 0001:00073d70       ?__scrt_throw_std_bad_alloc@@YAXXZ 0000000064074d70 f   LIBCMT:throw_bad_alloc.obj
 0001:00073d90       ?__scrt_throw_std_bad_array_new_length@@YAXXZ 0000000064074d90 f   LIBCMT:throw_bad_alloc.obj
 0001:00073db0       __isa_available_init       0000000064074db0 f   LIBCMT:_cpu_disp_.obj
 0001:00073f74       __scrt_is_ucrt_dll_in_use  0000000064074f74 f   LIBCMT:ucrt_detection.obj
 0001:00073f80       __crt_debugger_hook        0000000064074f80 f   LIBCMT:utility_desktop.obj
 0001:00073f88       __scrt_fastfail            0000000064074f88 f   LIBCMT:utility_desktop.obj
 0001:000740d0       __security_init_cookie     00000000640750d0 f   LIBCMT:gs_support.obj
 0001:0007417c       _get_startup_argv_mode     000000006407517c f   LIBCMT:argv_mode.obj
 0001:0007417c       ?length@charNode@@UEBAHXZ  000000006407517c f   libvcruntime:undname.obj
 0001:0007417c       DllMain                    000000006407517c f   LIBCMT:dll_dllmain_stub.obj
 0001:00074184       __local_stdio_scanf_options 0000000064075184 f i LIBCMT:default_local_stdio_options.obj
 0001:0007418c       __scrt_initialize_default_local_stdio_options 000000006407518c f   LIBCMT:default_local_stdio_options.obj
 0001:000741a8       __scrt_get_dyn_tls_init_callback 00000000640751a8 f   LIBCMT:dyn_tls_init.obj
 0001:000741b0       _RTC_Initialize            00000000640751b0 f   LIBCMT:_initsect_.obj
 0001:000741fc       _RTC_Terminate             00000000640751fc f   LIBCMT:_initsect_.obj
 0001:00074250       IsProcessorFeaturePresent  0000000064075250 f   kernel32:KERNEL32.dll
 0001:00074258       __DestructExceptionObject  0000000064075258 f   libvcruntime:frame.obj
 0001:000742e0       ??0bad_exception@std@@QEAA@AEBV01@@Z 00000000640752e0 f i libvcruntime:frame.obj
 0001:00074320       ??0bad_exception@std@@QEAA@XZ 0000000064075320 f i libvcruntime:frame.obj
 0001:00074c80       ?_CallMemberFunction0@@YAXPEAXP6AX0@Z@Z 0000000064075c80 f i libvcruntime:frame.obj
 0001:00074c84       ?_CallMemberFunction1@@YAXPEAXP6AX0@Z0@Z 0000000064075c84 f i libvcruntime:frame.obj
 0001:00074c90       ?_CallMemberFunction2@@YAXPEAXP6AX0@Z0H@Z 0000000064075c90 f i libvcruntime:frame.obj
 0001:00074ca0       __AdjustPointer            0000000064075ca0 f   libvcruntime:frame.obj
 0001:00074cc4       __BuildCatchObject         0000000064075cc4 f   libvcruntime:frame.obj
 0001:00074d8c       __BuildCatchObjectHelper   0000000064075d8c f   libvcruntime:frame.obj
 0001:00074f70       __CxxCallCatchBlock        0000000064075f70 f   libvcruntime:frame.obj
 0001:0007515c       __FrameUnwindFilter        000000006407615c f   libvcruntime:frame.obj
 0001:000751a8       __FrameUnwindToState       00000000640761a8 f   libvcruntime:frame.obj
 0001:0007533c       __InternalCxxFrameHandler  000000006407633c f   libvcruntime:frame.obj
 0001:00075594       __TypeMatch                0000000064076594 f   libvcruntime:frame.obj
 0001:000756d4       __std_terminate            00000000640766d4 f   libvcruntime:frame.obj
 0001:000756e0       __uncaught_exception       00000000640766e0 f   libvcruntime:frame.obj
 0001:00075710       memcpy                     0000000064076710 f   libvcruntime:memcpy.obj
 0001:00075710       memmove                    0000000064076710 f   libvcruntime:memcpy.obj
 0001:00075b48       _purecall                  0000000064076b48 f   libvcruntime:purevirt.obj
 0001:00075b84       __std_type_info_compare    0000000064076b84 f   libvcruntime:std_type_info.obj
 0001:00075bac       __std_type_info_destroy_list 0000000064076bac f   libvcruntime:std_type_info.obj
 0001:00075bd8       __std_type_info_name       0000000064076bd8 f   libvcruntime:std_type_info.obj
 0001:00075cf4       ??0__non_rtti_object@std@@QEAA@AEBV01@@Z 0000000064076cf4 f i libvcruntime:rtti.obj
 0001:00075d34       ??0bad_typeid@std@@QEAA@AEBV01@@Z 0000000064076d34 f i libvcruntime:rtti.obj
 0001:00075d74       ?__construct_from_string_literal@__non_rtti_object@std@@SA?AV12@QEBD@Z 0000000064076d74 f i libvcruntime:rtti.obj
 0001:00075d8c       ?__construct_from_string_literal@bad_typeid@std@@SA?AV12@QEBD@Z 0000000064076d8c f i libvcruntime:rtti.obj
 0001:00075da4       __RTtypeid                 0000000064076da4 f   libvcruntime:rtti.obj
 0001:00075e54       __std_exception_copy       0000000064076e54 f   libvcruntime:std_exception.obj
 0001:00075ee4       __std_exception_destroy    0000000064076ee4 f   libvcruntime:std_exception.obj
 0001:00075f0c       _CxxThrowException         0000000064076f0c f   libvcruntime:throw.obj
 0001:00075fe4       ?_GetEstablisherFrame@@YAPEA_KPEA_KPEAU_xDISPATCHER_CONTEXT@@PEBU_s_FuncInfo@@0@Z 0000000064076fe4 f   libvcruntime:trnsctrl.obj
 0001:000760b0       ?_GetRangeOfTrysToCheck@@YAPEBU_s_TryBlockMapEntry@@PEA_KPEBU_s_FuncInfo@@HHPEAI2PEAU_xDISPATCHER_CONTEXT@@@Z 00000000640770b0 f   libvcruntime:trnsctrl.obj
 0001:000761dc       ?__FrameUnwindToEmptyState@@YAXPEA_KPEAU_xDISPATCHER_CONTEXT@@PEBU_s_FuncInfo@@@Z 00000000640771dc f   libvcruntime:trnsctrl.obj
 0001:00076270       ?__SehTransFilter@@YAHPEAU_EXCEPTION_POINTERS@@PEAUEHExceptionRecord@@PEA_KPEAU_CONTEXT@@PEAU_xDISPATCHER_CONTEXT@@PEBU_s_FuncInfo@@PEAH@Z 0000000064077270 f   libvcruntime:trnsctrl.obj
 0001:00076308       _CallSETranslator          0000000064077308 f   libvcruntime:trnsctrl.obj
 0001:00076360       _CreateFrameInfo           0000000064077360 f   libvcruntime:trnsctrl.obj
 0001:0007639c       _FindAndUnlinkFrame        000000006407739c f   libvcruntime:trnsctrl.obj
 0001:000763f4       _GetImageBase              00000000640773f4 f   libvcruntime:trnsctrl.obj
 0001:00076408       _GetThrowImageBase         0000000064077408 f   libvcruntime:trnsctrl.obj
 0001:0007641c       _IsExceptionObjectToBeDestroyed 000000006407741c f   libvcruntime:trnsctrl.obj
 0001:0007644c       _SetImageBase              000000006407744c f   libvcruntime:trnsctrl.obj
 0001:00076464       _SetThrowImageBase         0000000064077464 f   libvcruntime:trnsctrl.obj
 0001:0007647c       _UnwindNestedFrames        000000006407747c f   libvcruntime:trnsctrl.obj
 0001:000765a0       __CxxFrameHandler3         00000000640775a0 f   libvcruntime:trnsctrl.obj
 0001:00076630       memset                     0000000064077630 f   libvcruntime:memset.obj
 0001:000767e0       memcmp                     00000000640777e0 f   libvcruntime:memcmp.obj
 0001:000768a8       __vcrt_initialize          00000000640778a8 f   libvcruntime:initialization.obj
 0001:000768e0       __vcrt_thread_attach       00000000640778e0 f   libvcruntime:initialization.obj
 0001:000768f4       __vcrt_thread_detach       00000000640778f4 f   libvcruntime:initialization.obj
 0001:00076908       __vcrt_uninitialize        0000000064077908 f   libvcruntime:initialization.obj
 0001:00076934       __vcrt_uninitialize_critical 0000000064077934 f   libvcruntime:initialization.obj
 0001:00076944       __C_specific_handler       0000000064077944 f   libvcruntime:_chandler_.obj
 0001:00076b44       __telemetry_main_invoke_trigger 0000000064077b44 f   libvcruntime:telemetry.obj
 0001:00076c5c       __telemetry_main_return_trigger 0000000064077c5c f   libvcruntime:telemetry.obj
 0001:00076d74       __vcrt_initialize_telemetry_provider 0000000064077d74 f   libvcruntime:telemetry.obj
 0001:00076d88       __vcrt_uninitialize_telemetry_provider 0000000064077d88 f   libvcruntime:telemetry.obj
 0001:00076da8       __vcrt_freefls             0000000064077da8 f   libvcruntime:per_thread_data.obj
 0001:00076dc8       __vcrt_freeptd             0000000064077dc8 f   libvcruntime:per_thread_data.obj
 0001:00076e18       __vcrt_getptd              0000000064077e18 f   libvcruntime:per_thread_data.obj
 0001:00076e34       __vcrt_getptd_noexit       0000000064077e34 f   libvcruntime:per_thread_data.obj
 0001:00076eec       __vcrt_initialize_ptd      0000000064077eec f   libvcruntime:per_thread_data.obj
 0001:00076f2c       __vcrt_uninitialize_ptd    0000000064077f2c f   libvcruntime:per_thread_data.obj
 0001:00076f50       ?__GetCurrentState@@YAHPEA_KPEAU_xDISPATCHER_CONTEXT@@PEBU_s_FuncInfo@@@Z 0000000064077f50 f   libvcruntime:ehstate.obj
 0001:00076f78       ?__GetUnwindTryBlock@@YAHPEA_KPEAU_xDISPATCHER_CONTEXT@@PEBU_s_FuncInfo@@@Z 0000000064077f78 f   libvcruntime:ehstate.obj
 0001:00076fa4       ?__SetState@@YAXPEA_KPEAU_xDISPATCHER_CONTEXT@@PEBU_s_FuncInfo@@H@Z 0000000064077fa4 f   libvcruntime:ehstate.obj
 0001:00076fb0       ?__SetUnwindTryBlock@@YAXPEA_KPEAU_xDISPATCHER_CONTEXT@@PEBU_s_FuncInfo@@H@Z 0000000064077fb0 f   libvcruntime:ehstate.obj
 0001:00076fec       ?__StateFromControlPc@@YAHPEBU_s_FuncInfo@@PEAU_xDISPATCHER_CONTEXT@@@Z 0000000064077fec f   libvcruntime:ehstate.obj
 0001:00076ff4       ?__StateFromIp@@YAHPEBU_s_FuncInfo@@PEAU_xDISPATCHER_CONTEXT@@_J@Z 0000000064077ff4 f   libvcruntime:ehstate.obj
 0001:00077070       _CallSettingFrame          0000000064078070 f   libvcruntime:handlers.obj
 0001:000770c0       _local_unwind              00000000640780c0 f   libvcruntime:_jmpuwind_.obj
 0001:000770f0       _NLG_Notify                00000000640780f0 f   libvcruntime:_jmpuwind_.obj
 0001:00077110       __NLG_Dispatch2            0000000064078110 f   libvcruntime:_jmpuwind_.obj
 0001:00077120       __NLG_Return2              0000000064078120 f   libvcruntime:_jmpuwind_.obj
 0001:00077124       __vcrt_initialize_pure_virtual_call_handler 0000000064078124 f   libvcruntime:purevirt_data.obj
 0001:00077148       ??0DName@@QEAA@AEAPEBDD@Z  0000000064078148 f   libvcruntime:undname.obj
 0001:00077228       ??0DName@@QEAA@AEBV0@@Z    0000000064078228 f i libvcruntime:undname.obj
 0001:00077234       ??0DName@@QEAA@D@Z         0000000064078234 f   libvcruntime:undname.obj
 0001:0007726c       ??0DName@@QEAA@PEAV0@@Z    000000006407826c f   libvcruntime:undname.obj
 0001:000772f4       ??0DName@@QEAA@PEBD@Z      00000000640782f4 f   libvcruntime:undname.obj
 0001:0007733c       ??0DName@@QEAA@W4DNameStatus@@@Z 000000006407833c f   libvcruntime:undname.obj
 0001:0007738c       ??0DName@@QEAA@_J@Z        000000006407838c f   libvcruntime:undname.obj
 0001:00077438       ??0DName@@QEAA@_K@Z        0000000064078438 f   libvcruntime:undname.obj
 0001:000774c8       ??0UnDecorator@@QEAA@PEADPEBDHP6APEADJ@ZK@Z 00000000640784c8 f i libvcruntime:undname.obj
 0001:0007753c       ??0pcharNode@@QEAA@PEBDH@Z 000000006407853c f   libvcruntime:undname.obj
 0001:000775c4       ??4DName@@QEAAAEAV0@PEBD@Z 00000000640785c4 f   libvcruntime:undname.obj
 0001:00077604       ??4DName@@QEAAAEAV0@W4DNameStatus@@@Z 0000000064078604 f   libvcruntime:undname.obj
 0001:00077640       ??AReplicator@@QEBA?AVDName@@H@Z 0000000064078640 f   libvcruntime:undname.obj
 0001:00077688       ??BUnDecorator@@QEAAPEADXZ 0000000064078688 f i libvcruntime:undname.obj
 0001:0007789c       ??YDName@@QEAAAEAV0@AEBV0@@Z 000000006407889c f   libvcruntime:undname.obj
 0001:000778dc       ??YDName@@QEAAAEAV0@D@Z    00000000640788dc f   libvcruntime:undname.obj
 0001:00077960       ??YDName@@QEAAAEAV0@PEBD@Z 0000000064078960 f   libvcruntime:undname.obj
 0001:000779ec       ??YDName@@QEAAAEAV0@W4DNameStatus@@@Z 00000000640789ec f   libvcruntime:undname.obj
 0001:00077a30       ??YReplicator@@QEAAAEAV0@AEBVDName@@@Z 0000000064078a30 f   libvcruntime:undname.obj
 0001:00077a90       ?append@DName@@AEAAXPEAVDNameNode@@@Z 0000000064078a90 f   libvcruntime:undname.obj
 0001:00077af4       ?composeDeclaration@UnDecorator@@CA?AVDName@@AEBV2@@Z 0000000064078af4 f i libvcruntime:undname.obj
 0001:0007886c       ?doPchar@DName@@AEAAXPEBDH@Z 000000006407986c f   libvcruntime:undname.obj
 0001:0007891c       ?getArgumentList@UnDecorator@@CA?AVDName@@XZ 000000006407991c f   libvcruntime:undname.obj
 0001:00078a60       ?getArgumentTypes@UnDecorator@@CA?AVDName@@XZ 0000000064079a60 f   libvcruntime:undname.obj
 0001:00078b5c       ?getArrayType@UnDecorator@@CA?AVDName@@AEBV2@@Z 0000000064079b5c f i libvcruntime:undname.obj
 0001:00078d98       ?getBasedType@UnDecorator@@CA?AVDName@@XZ 0000000064079d98 f   libvcruntime:undname.obj
 0001:00078e58       ?getBasicDataType@UnDecorator@@CA?AVDName@@AEBV2@@Z 0000000064079e58 f   libvcruntime:undname.obj
 0001:00079290       ?getCallingConvention@UnDecorator@@CA?AVDName@@XZ 000000006407a290 f   libvcruntime:undname.obj
 0001:00079390       ?getDataIndirectType@UnDecorator@@CA?AVDName@@AEBV2@PEBD0H@Z 000000006407a390 f   libvcruntime:undname.obj
 0001:00079ac8       ?getDataType@UnDecorator@@CA?AVDName@@PEAV2@@Z 000000006407aac8 f   libvcruntime:undname.obj
 0001:00079bac       ?getDecoratedName@UnDecorator@@CA?AVDName@@XZ 000000006407abac f   libvcruntime:undname.obj
 0001:00079e20       ?getDimension@UnDecorator@@CA?AVDName@@_N@Z 000000006407ae20 f   libvcruntime:undname.obj
 0001:00079f7c       ?getDispatchTarget@UnDecorator@@CA?AVDName@@XZ 000000006407af7c f   libvcruntime:undname.obj
 0001:00079fe0       ?getECSUDataType@UnDecorator@@CA?AVDName@@XZ 000000006407afe0 f   libvcruntime:undname.obj
 0001:0007a144       ?getEnumType@UnDecorator@@CA?AVDName@@XZ 000000006407b144 f i libvcruntime:undname.obj
 0001:0007a22c       ?getExtendedDataIndirectType@UnDecorator@@CA?AVDName@@AEAPEBDAEA_NH@Z 000000006407b22c f   libvcruntime:undname.obj
 0001:0007a470       ?getExternalDataType@UnDecorator@@CA?AVDName@@AEBV2@@Z 000000006407b470 f i libvcruntime:undname.obj
 0001:0007a544       ?getFunctionIndirectType@UnDecorator@@CA?AVDName@@AEBV2@@Z 000000006407b544 f   libvcruntime:undname.obj
 0001:0007aa64       ?getLastChar@DNameStatusNode@@UEBADXZ 000000006407ba64 f i libvcruntime:undname.obj
 0001:0007aa70       ?getLastChar@charNode@@UEBADXZ 000000006407ba70 f i libvcruntime:undname.obj
 0001:0007aa74       ?getLastChar@pDNameNode@@UEBADXZ 000000006407ba74 f i libvcruntime:undname.obj
 0001:0007aab0       ?getLastChar@pairNode@@UEBADXZ 000000006407bab0 f i libvcruntime:undname.obj
 0001:0007ab08       ?getLastChar@pcharNode@@UEBADXZ 000000006407bb08 f i libvcruntime:undname.obj
 0001:0007ab20       ?getMemory@_HeapManager@@QEAAPEAX_KH@Z 000000006407bb20 f   libvcruntime:undname.obj
 0001:0007abdc       ?getNumberOfDimensions@UnDecorator@@CAHXZ 000000006407bbdc f   libvcruntime:undname.obj
 0001:0007ac50       ?getOperatorName@UnDecorator@@CA?AVDName@@_NPEA_N@Z 000000006407bc50 f i libvcruntime:undname.obj
 0001:0007b3a0       ?getPrimaryDataType@UnDecorator@@CA?AVDName@@AEBV2@@Z 000000006407c3a0 f   libvcruntime:undname.obj
 0001:0007b5e4       ?getPtrRefDataType@UnDecorator@@CA?AVDName@@AEBV2@H@Z 000000006407c5e4 f   libvcruntime:undname.obj
 0001:0007b70c       ?getPtrRefType@UnDecorator@@CA?AVDName@@AEBV2@0PEBD@Z 000000006407c70c f   libvcruntime:undname.obj
 0001:0007b840       ?getRestrictionSpec@UnDecorator@@CA?AVDName@@XZ 000000006407c840 f   libvcruntime:undname.obj
 0001:0007b96c       ?getReturnType@UnDecorator@@CA?AVDName@@PEAV2@@Z 000000006407c96c f   libvcruntime:undname.obj
 0001:0007b9a0       ?getScope@UnDecorator@@CA?AVDName@@XZ 000000006407c9a0 f   libvcruntime:undname.obj
 0001:0007be4c       ?getScopedName@UnDecorator@@CA?AVDName@@XZ 000000006407ce4c f   libvcruntime:undname.obj
 0001:0007bf64       ?getSignedDimension@UnDecorator@@CA?AVDName@@XZ 000000006407cf64 f   libvcruntime:undname.obj
 0001:0007bfe0       ?getString@DName@@QEBAPEADPEADH@Z 000000006407cfe0 f i libvcruntime:undname.obj
 0001:0007c090       ?getString@DNameStatusNode@@UEBAPEADPEAD0@Z 000000006407d090 f i libvcruntime:undname.obj
 0001:0007c0d4       ?getString@charNode@@UEBAPEADPEAD0@Z 000000006407d0d4 f i libvcruntime:undname.obj
 0001:0007c0e8       ?getString@pDNameNode@@UEBAPEADPEAD0@Z 000000006407d0e8 f i libvcruntime:undname.obj
 0001:0007c148       ?getString@pairNode@@UEBAPEADPEAD0@Z 000000006407d148 f i libvcruntime:undname.obj
 0001:0007c1cc       ?getString@pcharNode@@UEBAPEADPEAD0@Z 000000006407d1cc f i libvcruntime:undname.obj
 0001:0007c204       ?getStringEncoding@UnDecorator@@CA?AVDName@@PEADH@Z 000000006407d204 f   libvcruntime:undname.obj
 0001:0007c2c4       ?getSymbolName@UnDecorator@@CA?AVDName@@XZ 000000006407d2c4 f i libvcruntime:undname.obj
 0001:0007c310       ?getTemplateArgumentList@UnDecorator@@CA?AVDName@@XZ 000000006407d310 f   libvcruntime:undname.obj
 0001:0007c5e8       ?getTemplateConstant@UnDecorator@@CA?AVDName@@XZ 000000006407d5e8 f   libvcruntime:undname.obj
 0001:0007c990       ?getTemplateName@UnDecorator@@CA?AVDName@@_N@Z 000000006407d990 f   libvcruntime:undname.obj
 0001:0007cb6c       ?getThrowTypes@UnDecorator@@CA?AVDName@@XZ 000000006407db6c f   libvcruntime:undname.obj
 0001:0007cc30       ?getTypeEncoding@UnDecorator@@CAHXZ 000000006407dc30 f i libvcruntime:undname.obj
 0001:0007d11c       ?getVfTableType@UnDecorator@@CA?AVDName@@AEBV2@@Z 000000006407e11c f i libvcruntime:undname.obj
 0001:0007d2ec       ?getZName@UnDecorator@@CA?AVDName@@_N0@Z 000000006407e2ec f   libvcruntime:undname.obj
 0001:0007d588       ?length@DNameStatusNode@@UEBAHXZ 000000006407e588 f i libvcruntime:undname.obj
 0001:0007d58c       ?length@pDNameNode@@UEBAHXZ 000000006407e58c f i libvcruntime:undname.obj
 0001:0007d5c8       ?length@pairNode@@UEBAHXZ  000000006407e5c8 f i libvcruntime:undname.obj
 0001:0007d634       ?length@pcharNode@@UEBAHXZ 000000006407e634 f i libvcruntime:undname.obj
 0001:0007d638       ?make@DNameStatusNode@@SAPEAV1@W4DNameStatus@@@Z 000000006407e638 f i libvcruntime:undname.obj
 0001:0007d6c0       __unDName                  000000006407e6c0 f   libvcruntime:undname.obj
 0001:0007d7b8       __vcrt_initialize_locks    000000006407e7b8 f   libvcruntime:locks.obj
 0001:0007d800       __vcrt_lock                000000006407e800 f   libvcruntime:locks.obj
 0001:0007d81c       __vcrt_uninitialize_locks  000000006407e81c f   libvcruntime:locks.obj
 0001:0007d854       __vcrt_unlock              000000006407e854 f   libvcruntime:locks.obj
 0001:0007da38       __vcrt_EventRegister       000000006407ea38 f   libvcruntime:winapi_downlevel.obj
 0001:0007dabc       __vcrt_EventSetInformation 000000006407eabc f   libvcruntime:winapi_downlevel.obj
 0001:0007db40       __vcrt_EventUnregister     000000006407eb40 f   libvcruntime:winapi_downlevel.obj
 0001:0007db94       __vcrt_EventWriteTransfer  000000006407eb94 f   libvcruntime:winapi_downlevel.obj
 0001:0007dc2c       __vcrt_FlsAlloc            000000006407ec2c f   libvcruntime:winapi_downlevel.obj
 0001:0007dc80       __vcrt_FlsFree             000000006407ec80 f   libvcruntime:winapi_downlevel.obj
 0001:0007dcd4       __vcrt_FlsGetValue         000000006407ecd4 f   libvcruntime:winapi_downlevel.obj
 0001:0007dd28       __vcrt_FlsSetValue         000000006407ed28 f   libvcruntime:winapi_downlevel.obj
 0001:0007dd90       __vcrt_InitializeCriticalSectionEx 000000006407ed90 f   libvcruntime:winapi_downlevel.obj
 0001:0007de08       __vcrt_initialize_winapi_thunks 000000006407ee08 f   libvcruntime:winapi_downlevel.obj
 0001:0007de40       __vcrt_uninitialize_winapi_thunks 000000006407ee40 f   libvcruntime:winapi_downlevel.obj
 0001:0007de80       __acrt_call_reportfault    000000006407ee80 f   libucrt:invalid_parameter.obj
 0001:0007dfdc       __acrt_initialize_invalid_parameter_handler 000000006407efdc f   libucrt:invalid_parameter.obj
 0001:0007dfe4       _invalid_parameter         000000006407efe4 f   libucrt:invalid_parameter.obj
 0001:0007e08c       _invalid_parameter_noinfo  000000006407f08c f   libucrt:invalid_parameter.obj
 0001:0007e0ac       _invalid_parameter_noinfo_noreturn 000000006407f0ac f   libucrt:invalid_parameter.obj
 0001:0007e0dc       _invoke_watson             000000006407f0dc f   libucrt:invalid_parameter.obj
 0001:0007e124       wcscpy_s                   000000006407f124 f   libucrt:wcscpy_s.obj
 0001:0007e18c       ??0_LocaleUpdate@@QEAA@QEAU__crt_locale_pointers@@@Z 000000006407f18c f i libucrt:wcsicmp.obj
 0001:0007e21c       _wcsicmp                   000000006407f21c f   libucrt:wcsicmp.obj
 0001:0007e2a4       _wcsicmp_l                 000000006407f2a4 f   libucrt:wcsicmp.obj
 0001:0007e53c       ??$ensure_buffer_is_big_enough@D@formatting_buffer@__crt_stdio_output@@QEAA_N_K@Z 000000006407f53c f i libucrt:output.obj
 0001:0007e5e8       ??$is_wide_character_specifier@D@__crt_stdio_output@@YA_N_KDW4length_modifier@0@@Z 000000006407f5e8 f i libucrt:output.obj
 0001:0007e618       ??$type_case_integer_parse_into_buffer@I@?$output_processor@DV?$string_output_adapter@D@__crt_stdio_output@@V?$format_validation_base@DV?$string_output_adapter@D@__crt_stdio_output@@@2@@__crt_stdio_output@@AEAAXII_N@Z 000000006407f618 f i libucrt:output.obj
 0001:0007e6b4       ??$type_case_integer_parse_into_buffer@_K@?$output_processor@DV?$string_output_adapter@D@__crt_stdio_output@@V?$format_validation_base@DV?$string_output_adapter@D@__crt_stdio_output@@@2@@__crt_stdio_output@@AEAAX_KI_N@Z 000000006407f6b4 f i libucrt:output.obj
 0001:0007e750       ??$write_multiple_characters@V?$string_output_adapter@D@__crt_stdio_output@@D@__crt_stdio_output@@YAXAEBV?$string_output_adapter@D@0@DHQEAH@Z 000000006407f750 f i libucrt:output.obj
 0001:0007e7ac       ??0?$output_processor@DV?$string_output_adapter@D@__crt_stdio_output@@V?$format_validation_base@DV?$string_output_adapter@D@__crt_stdio_output@@@2@@__crt_stdio_output@@QEAA@AEBV?$string_output_adapter@D@1@_KQEBDQEAU__crt_locale_pointers@@QEAD@Z 000000006407f7ac f i libucrt:output.obj
 0001:0007e828       ?force_decimal_point@__crt_stdio_output@@YAXPEADQEAU__crt_locale_pointers@@@Z 000000006407f828 f i libucrt:output.obj
 0001:0007e898       ?parse_int_from_format_string@?$output_processor@DV?$string_output_adapter@D@__crt_stdio_output@@V?$format_validation_base@DV?$string_output_adapter@D@__crt_stdio_output@@@2@@__crt_stdio_output@@AEAA_NQEAH@Z 000000006407f898 f i libucrt:output.obj
 0001:0007e91c       ?process@?$output_processor@DV?$string_output_adapter@D@__crt_stdio_output@@V?$format_validation_base@DV?$string_output_adapter@D@__crt_stdio_output@@@2@@__crt_stdio_output@@QEAAHXZ 000000006407f91c f i libucrt:output.obj
 0001:0007eb30       ?state_case_normal@?$output_processor@DV?$string_output_adapter@D@__crt_stdio_output@@V?$format_validation_base@DV?$string_output_adapter@D@__crt_stdio_output@@@2@@__crt_stdio_output@@AEAA_NXZ 000000006407fb30 f i libucrt:output.obj
 0001:0007eba4       ?state_case_normal_tchar@?$output_processor@DV?$string_output_adapter@D@__crt_stdio_output@@V?$format_validation_base@DV?$string_output_adapter@D@__crt_stdio_output@@@2@@__crt_stdio_output@@AEAA_ND@Z 000000006407fba4 f i libucrt:output.obj
 0001:0007ec3c       ?state_case_size@?$output_processor@DV?$string_output_adapter@D@__crt_stdio_output@@V?$format_validation_base@DV?$string_output_adapter@D@__crt_stdio_output@@@2@@__crt_stdio_output@@AEAA_NXZ 000000006407fc3c f i libucrt:output.obj
 0001:0007edb8       ?state_case_type@?$output_processor@DV?$string_output_adapter@D@__crt_stdio_output@@V?$format_validation_base@DV?$string_output_adapter@D@__crt_stdio_output@@@2@@__crt_stdio_output@@AEAA_NXZ 000000006407fdb8 f i libucrt:output.obj
 0001:0007f034       ?type_case_Z@?$output_processor@DV?$string_output_adapter@D@__crt_stdio_output@@V?$format_validation_base@DV?$string_output_adapter@D@__crt_stdio_output@@@2@@__crt_stdio_output@@AEAA_NXZ 0000000064080034 f i libucrt:output.obj
 0001:0007f0b4       ?type_case_a@?$output_processor@DV?$string_output_adapter@D@__crt_stdio_output@@V?$format_validation_base@DV?$string_output_adapter@D@__crt_stdio_output@@@2@@__crt_stdio_output@@AEAA_NXZ 00000000640800b4 f i libucrt:output.obj
 0001:0007f2d0       ?type_case_c_tchar@?$output_processor@DV?$string_output_adapter@D@__crt_stdio_output@@V?$format_validation_base@DV?$string_output_adapter@D@__crt_stdio_output@@@2@@__crt_stdio_output@@AEAA_ND@Z 00000000640802d0 f i libucrt:output.obj
 0001:0007f384       ?type_case_integer@?$output_processor@DV?$string_output_adapter@D@__crt_stdio_output@@V?$format_validation_base@DV?$string_output_adapter@D@__crt_stdio_output@@@2@@__crt_stdio_output@@AEAA_NI_N@Z 0000000064080384 f i libucrt:output.obj
 0001:0007f524       ?type_case_n@?$output_processor@DV?$string_output_adapter@D@__crt_stdio_output@@V?$format_validation_base@DV?$string_output_adapter@D@__crt_stdio_output@@@2@@__crt_stdio_output@@AEAA_NXZ 0000000064080524 f i libucrt:output.obj
 0001:0007f600       ?type_case_s@?$output_processor@DV?$string_output_adapter@D@__crt_stdio_output@@V?$format_validation_base@DV?$string_output_adapter@D@__crt_stdio_output@@@2@@__crt_stdio_output@@AEAA_NXZ 0000000064080600 f i libucrt:output.obj
 0001:0007f690       ?write_stored_string_tchar@?$output_processor@DV?$string_output_adapter@D@__crt_stdio_output@@V?$format_validation_base@DV?$string_output_adapter@D@__crt_stdio_output@@@2@@__crt_stdio_output@@AEAA_ND@Z 0000000064080690 f i libucrt:output.obj
 0001:0007f768       ?write_string@?$string_output_adapter@D@__crt_stdio_output@@QEBAXQEBDHQEAH1@Z 0000000064080768 f i libucrt:output.obj
 0001:0007f824       __stdio_common_vsprintf_s  0000000064080824 f   libucrt:output.obj
 0001:0007f888       frexp                      0000000064080888 f   libucrt:frexp.obj
 0001:0007f980       strcspn                    0000000064080980 f   libucrt:strcspn.obj
 0001:0007fa20       localeconv                 0000000064080a20 f   libucrt:localeconv.obj
 0001:0007fa54       free                       0000000064080a54 f   libucrt:free.obj
 0001:0007fa5c       calloc                     0000000064080a5c f   libucrt:calloc.obj
 0001:0007fcb8       _i64tow_s                  0000000064080cb8 f   libucrt:xtoa.obj
 0001:0007fcdc       _itow_s                    0000000064080cdc f   libucrt:xtoa.obj
 0001:0007fcfc       _ui64tow_s                 0000000064080cfc f   libucrt:xtoa.obj
 0001:0007fd60       _tolower_l                 0000000064080d60 f   libucrt:tolower_toupper.obj
 0001:0007fea0       tolower                    0000000064080ea0 f   libucrt:tolower_toupper.obj
 0001:0007fecc       ??$is_overflow_condition@K@__crt_strtox@@YA_NIK@Z 0000000064080ecc f i libucrt:atox.obj
 0001:0007fef8       ??$make_c_string_character_source@DPEAPEAD@__crt_strtox@@YA?AV?$c_string_character_source@D@0@QEBDQEAPEAD@Z 0000000064080ef8 f i libucrt:strtod.obj
 0001:0007fef8       ??$make_c_string_character_source@D$$T@__crt_strtox@@YA?AV?$c_string_character_source@D@0@QEBD$$T@Z 0000000064080ef8 f i libucrt:atox.obj
 0001:0007fef8       ??$make_c_string_character_source@_W$$T@__crt_strtox@@YA?AV?$c_string_character_source@_W@0@QEB_W$$T@Z 0000000064080ef8 f i libucrt:atox.obj
 0001:0007ff0c       ??$parse_integer@KV?$c_string_character_source@D@__crt_strtox@@@__crt_strtox@@YAKQEAU__crt_locale_pointers@@V?$c_string_character_source@D@0@H_N@Z 0000000064080f0c f i libucrt:atox.obj
 0001:00080220       ??$parse_integer@KV?$c_string_character_source@_W@__crt_strtox@@@__crt_strtox@@YAKQEAU__crt_locale_pointers@@V?$c_string_character_source@_W@0@H_N@Z 0000000064081220 f i libucrt:atox.obj
 0001:000808f4       _wtol                      00000000640818f4 f   libucrt:atox.obj
 0001:000808f4       _wtoi                      00000000640818f4 f   libucrt:atox.obj
 0001:00080920       atol                       0000000064081920 f   libucrt:atox.obj
 0001:0008094c       __acrt_initialize_heap     000000006408194c f   libucrt:heap_handle.obj
 0001:00080968       __acrt_uninitialize_heap   0000000064081968 f   libucrt:heap_handle.obj
 0001:00080974       _get_heap_handle           0000000064081974 f   libucrt:heap_handle.obj
 0001:0008097c       __ascii_memicmp            000000006408197c f   libucrt:memicmp.obj
 0001:000809c8       _memicmp                   00000000640819c8 f   libucrt:memicmp.obj
 0001:00080a1c       _memicmp_l                 0000000064081a1c f   libucrt:memicmp.obj
 0001:00080afc       __acrt_errno_from_os_error 0000000064081afc f   libucrt:errno.obj
 0001:00080b44       __acrt_errno_map_os_error  0000000064081b44 f   libucrt:errno.obj
 0001:00080b94       __doserrno                 0000000064081b94 f   libucrt:errno.obj
 0001:00080bb4       _errno                     0000000064081bb4 f   libucrt:errno.obj
 0001:00080bd4       malloc                     0000000064081bd4 f   libucrt:malloc.obj
 0001:00080cc4       setlocale                  0000000064081cc4 f   libucrt:setlocale.obj
 0001:00080e90       __acrt_initialize_locks    0000000064081e90 f   libucrt:locks.obj
 0001:00080ed8       __acrt_lock                0000000064081ed8 f   libucrt:locks.obj
 0001:00080ef4       __acrt_uninitialize_locks  0000000064081ef4 f   libucrt:locks.obj
 0001:00080f2c       __acrt_unlock              0000000064081f2c f   libucrt:locks.obj
 0001:00080f48       _lock_locales              0000000064081f48 f   libucrt:locks.obj
 0001:00080f58       _unlock_locales            0000000064081f58 f   libucrt:locks.obj
 0001:00080f68       ___lc_codepage_func        0000000064081f68 f   libucrt:initctype.obj
 0001:00080f98       ___lc_locale_name_func     0000000064081f98 f   libucrt:initctype.obj
 0001:00080fcc       ___mb_cur_max_func         0000000064081fcc f   libucrt:initctype.obj
 0001:00080ffc       __acrt_locale_initialize_ctype 0000000064081ffc f   libucrt:initctype.obj
 0001:00081648       _ismbblead                 0000000064082648 f   libucrt:ismbbyte.obj
 0001:0008165c       _calloc_base               000000006408265c f   libucrt:calloc_base.obj
 0001:000816d4       __pctype_func              00000000640826d4 f   libucrt:ctype.obj
 0001:00081704       isdigit                    0000000064082704 f i libucrt:_ctype.obj
 0001:00081778       _wcsdup                    0000000064082778 f   libucrt:wcsdup.obj
 0001:000817fc       abort                      00000000640827fc f   libucrt:abort.obj
 0001:00081854       _malloc_base               0000000064082854 f   libucrt:malloc_base.obj
 0001:000818b4       _realloc_base              00000000640828b4 f   libucrt:realloc_base.obj
 0001:00081940       ?divide@__crt_strtox@@YA_KAEAUbig_integer@1@AEBU21@@Z 0000000064082940 f i libucrt:strtod.obj
 0001:00081e10       pow                        0000000064082e10 f   libucrt:pow.obj
 0001:000834b0       powf                       00000000640844b0 f   libucrt:powf.obj
 0001:00084378       __strncnt                  0000000064085378 f   libucrt:strncnt.obj
 0001:00084390       _free_base                 0000000064085390 f   libucrt:free_base.obj
 0001:000843d0       strnlen                    00000000640853d0 f   libucrt:strnlen.obj
 0001:0008452c       wcsnlen                    000000006408552c f   libucrt:strnlen.obj
 0001:0008471c       __acrt_initialize_new_handler 000000006408571c f   libucrt:new_handler.obj
 0001:00084724       _callnewh                  0000000064085724 f   libucrt:new_handler.obj
 0001:00084764       _query_new_handler         0000000064085764 f   libucrt:new_handler.obj
 0001:00084798       _seh_filter_dll            0000000064085798 f   libucrt:exception_filter.obj
 0001:000847ac       _seh_filter_exe            00000000640857ac f   libucrt:exception_filter.obj
 0001:00084b6c       __acrt_initialize_thread_local_exit_callback 0000000064085b6c f   libucrt:exit.obj
 0001:00084b74       _cexit                     0000000064085b74 f   libucrt:exit.obj
 0001:00084b84       _exit                      0000000064085b84 f   libucrt:exit.obj
 0001:00084b90       _is_c_termination_complete 0000000064085b90 f   libucrt:exit.obj
 0001:00084d54       __acrt_allocate_buffer_for_argv 0000000064085d54 f   libucrt:argv_parsing.obj
 0001:00084db8       _configure_narrow_argv     0000000064085db8 f   libucrt:argv_parsing.obj
 0001:00085114       __dcrt_uninitialize_environments_nolock 0000000064086114 f   libucrt:environment_initialization.obj
 0001:0008514c       _initialize_narrow_environment 000000006408614c f   libucrt:environment_initialization.obj
 0001:00085154       ??$?RV<lambda_b8c45f8f788dd370798f47cfe8ac3a86>@@AEAV<lambda_4e60a939b0d047cfe11ddc22648dfba9>@@V<lambda_332c3edc96d0294ec56c57d38c1cdfd5>@@@?$__crt_seh_guarded_call@H@@QEAAH$$QEAV<lambda_b8c45f8f788dd370798f47cfe8ac3a86>@@AEAV<lambda_4e60a939b0d047cfe11ddc22648dfba9>@@$$QEAV<lambda_332c3edc96d0294ec56c57d38c1cdfd5>@@@Z 0000000064086154 f i libucrt:onexit.obj
 0001:00085190       ??$?RV<lambda_e24bbb7b643b32fcea6fa61b31d4c984>@@AEAV<lambda_275893d493268fdec8709772e3fcec0e>@@V<lambda_9d71df4d7cf3f480f8d633942495c3b0>@@@?$__crt_seh_guarded_call@H@@QEAAH$$QEAV<lambda_e24bbb7b643b32fcea6fa61b31d4c984>@@AEAV<lambda_275893d493268fdec8709772e3fcec0e>@@$$QEAV<lambda_9d71df4d7cf3f480f8d633942495c3b0>@@@Z 0000000064086190 f i libucrt:onexit.obj
 0001:0008550c       _crt_atexit                000000006408650c f   libucrt:onexit.obj
 0001:0008551c       _execute_onexit_table      000000006408651c f   libucrt:onexit.obj
 0001:00085558       _initialize_onexit_table   0000000064086558 f   libucrt:onexit.obj
 0001:00085598       _register_onexit_function  0000000064086598 f   libucrt:onexit.obj
 0001:00085618       __acrt_uninitialize_command_line 0000000064086618 f   libucrt:argv_data.obj
 0001:00085718       __acrt_initialize          0000000064086718 f   libucrt:initialization.obj
 0001:0008572c       __acrt_thread_attach       000000006408672c f   libucrt:initialization.obj
 0001:00085740       __acrt_thread_detach       0000000064086740 f   libucrt:initialization.obj
 0001:00085750       __acrt_uninitialize        0000000064086750 f   libucrt:initialization.obj
 0001:00085764       __acrt_uninitialize_critical 0000000064086764 f   libucrt:initialization.obj
 0001:00085774       terminate                  0000000064086774 f   libucrt:terminate.obj
 0001:0008579c       _initterm                  000000006408679c f   libucrt:initterm.obj
 0001:00085814       _initterm_e                0000000064086814 f   libucrt:initterm.obj
 0001:00085860       strcpy_s                   0000000064086860 f   libucrt:strcpy_s.obj
 0001:000858c0       ??$?RV<lambda_46352004c1216016012b18bd6f87e700>@@AEAV<lambda_3bd07e1a1191394380780325891bf33f>@@V<lambda_334532d3f185bcaa59b5be82d7d22bff>@@@?$__crt_seh_guarded_call@X@@QEAAX$$QEAV<lambda_46352004c1216016012b18bd6f87e700>@@AEAV<lambda_3bd07e1a1191394380780325891bf33f>@@$$QEAV<lambda_334532d3f185bcaa59b5be82d7d22bff>@@@Z 00000000640868c0 f i libucrt:per_thread_data.obj
 0001:00085920       ??$?RV<lambda_5e887d1dcbef67a5eb4283622ba103bf>@@AEAV<lambda_4466841279450cc726390878d4a41900>@@V<lambda_341c25c0346d94847f1f3c463c57e077>@@@?$__crt_seh_guarded_call@X@@QEAAX$$QEAV<lambda_5e887d1dcbef67a5eb4283622ba103bf>@@AEAV<lambda_4466841279450cc726390878d4a41900>@@$$QEAV<lambda_341c25c0346d94847f1f3c463c57e077>@@@Z 0000000064086920 f i libucrt:per_thread_data.obj
 0001:00085968       ??$?RV<lambda_72d1df2b273a38828b1ce30cbf4cdab5>@@AEAV<lambda_876a65b173b8412d3a47c70a915b0cf4>@@V<lambda_41932305e351933ebe8f8be3ed8bb5dc>@@@?$__crt_seh_guarded_call@X@@QEAAX$$QEAV<lambda_72d1df2b273a38828b1ce30cbf4cdab5>@@AEAV<lambda_876a65b173b8412d3a47c70a915b0cf4>@@$$QEAV<lambda_41932305e351933ebe8f8be3ed8bb5dc>@@@Z 0000000064086968 f i libucrt:per_thread_data.obj
 0001:000859a8       ??$?RV<lambda_fb3a7dec4e47f37f22dae91bb15c9095>@@AEAV<lambda_698284760c8add0bfb0756c19673e34b>@@V<lambda_dfb8eca1e75fef3034a8fb18dd509707>@@@?$__crt_seh_guarded_call@X@@QEAAX$$QEAV<lambda_fb3a7dec4e47f37f22dae91bb15c9095>@@AEAV<lambda_698284760c8add0bfb0756c19673e34b>@@$$QEAV<lambda_dfb8eca1e75fef3034a8fb18dd509707>@@@Z 00000000640869a8 f i libucrt:per_thread_data.obj
 0001:00085c38       __acrt_freeptd             0000000064086c38 f   libucrt:per_thread_data.obj
 0001:00085c7c       __acrt_getptd              0000000064086c7c f   libucrt:per_thread_data.obj
 0001:00085d10       __acrt_getptd_noexit       0000000064086d10 f   libucrt:per_thread_data.obj
 0001:00085db0       __acrt_initialize_ptd      0000000064086db0 f   libucrt:per_thread_data.obj
 0001:00085dec       __acrt_uninitialize_ptd    0000000064086dec f   libucrt:per_thread_data.obj
 0001:00085e10       _towlower_l                0000000064086e10 f   libucrt:towlower.obj
 0001:00085ed4       __acrt_update_locale_info  0000000064086ed4 f   libucrt:locale_update.obj
 0001:00085f08       __acrt_update_multibyte_info 0000000064086f08 f   libucrt:locale_update.obj
 0001:00085f3c       ??$?RV<lambda_5df02c53a8f32f81fd64e5bbb78039f1>@@AEAV<lambda_2af78c5f5901b1372d98f9ab3177dfa6>@@AEAV<lambda_f51fe5fd7c79a33db34fc9310f277369>@@@?$__crt_seh_guarded_call@X@@QEAAX$$QEAV<lambda_5df02c53a8f32f81fd64e5bbb78039f1>@@AEAV<lambda_2af78c5f5901b1372d98f9ab3177dfa6>@@AEAV<lambda_f51fe5fd7c79a33db34fc9310f277369>@@@Z 0000000064086f3c f i libucrt:wsetlocale.obj
 0001:00085f68       ??$?RV<lambda_d67e8342c384adda8f857579ab50b2ae>@@AEAV<lambda_30712929f77e709619002f448b6a9510>@@V<lambda_4525336fd7e478d965fb7ca7a337cad8>@@@?$__crt_seh_guarded_call@X@@QEAAX$$QEAV<lambda_d67e8342c384adda8f857579ab50b2ae>@@AEAV<lambda_30712929f77e709619002f448b6a9510>@@$$QEAV<lambda_4525336fd7e478d965fb7ca7a337cad8>@@@Z 0000000064086f68 f i libucrt:wsetlocale.obj
 0001:00086134       __acrt_copy_locale_name    0000000064087134 f   libucrt:wsetlocale.obj
 0001:000861b8       __acrt_set_locale_changed  00000000640871b8 f   libucrt:wsetlocale.obj
 0001:000861c4       __acrt_uninitialize_locale 00000000640871c4 f   libucrt:wsetlocale.obj
 0001:0008620c       __lc_lctowcs               000000006408720c f   libucrt:wsetlocale.obj
 0001:000862b0       __lc_wcstolc               00000000640872b0 f   libucrt:wsetlocale.obj
 0001:00086528       _expandlocale              0000000064087528 f   libucrt:wsetlocale.obj
 0001:00086924       _wcscats                   0000000064087924 f   libucrt:wsetlocale.obj
 0001:0008698c       _wsetlocale                000000006408798c f   libucrt:wsetlocale.obj
 0001:000871d8       strtol                     00000000640881d8 f   libucrt:strtox.obj
 0001:00087208       _mbtowc_l                  0000000064088208 f   libucrt:mbtowc.obj
 0001:00087350       mbtowc                     0000000064088350 f   libucrt:mbtowc.obj
 0001:00087358       _wctomb_s_l                0000000064088358 f   libucrt:wctomb.obj
 0001:000874dc       wctomb_s                   00000000640884dc f   libucrt:wctomb.obj
 0001:000874f0       ?__acrt_fp_classify@@YA?AW4__acrt_fp_class@@AEBN@Z 00000000640884f0 f i libucrt:cvt.obj
 0001:00087f28       __acrt_fp_format           0000000064088f28 f   libucrt:cvt.obj
 0001:0008816c       _fileno                    000000006408916c f   libucrt:fileno.obj
 0001:00088194       __acrt_initialize_stdio    0000000064089194 f   libucrt:_file.obj
 0001:000882b4       __acrt_uninitialize_stdio  00000000640892b4 f   libucrt:_file.obj
 0001:00088310       _lock_file                 0000000064089310 f   libucrt:_file.obj
 0001:0008831c       _unlock_file               000000006408931c f   libucrt:_file.obj
 0001:00088328       _get_printf_count_output   0000000064089328 f   libucrt:printf_count_output.obj
 0001:00088528       __acrt_initialize_lowio    0000000064089528 f   libucrt:ioinit.obj
 0001:00088564       __acrt_uninitialize_lowio  0000000064089564 f   libucrt:ioinit.obj
 0001:000885a4       _dsign                     00000000640895a4 f   libucrt:nan.obj
 0001:000885bc       _errcode                   00000000640895bc f   libucrt:fpexcept.obj
 0001:00088600       _except1                   0000000064089600 f   libucrt:fpexcept.obj
 0001:000886f4       _handle_exc                00000000640896f4 f   libucrt:fpexcept.obj
 0001:0008895c       _raise_exc                 000000006408995c f   libucrt:fpexcept.obj
 0001:00088984       _raise_exc_ex              0000000064089984 f   libucrt:fpexcept.obj
 0001:00088c8c       _raise_excf                0000000064089c8c f   libucrt:fpexcept.obj
 0001:00088cb8       _set_errno_from_matherr    0000000064089cb8 f   libucrt:fpexcept.obj
 0001:00088ce8       _umatherr                  0000000064089ce8 f   libucrt:fpexcept.obj
 0001:00088dbc       _decomp                    0000000064089dbc f   libucrt:util.obj
 0001:00088ef0       _sptype                    0000000064089ef0 f   libucrt:util.obj
 0001:00088f64       _clrfp                     0000000064089f64 f   libucrt:fpctrl.obj
 0001:00088f84       _ctrlfp                    0000000064089f84 f   libucrt:fpctrl.obj
 0001:00089000       _set_statfp                000000006408a000 f   libucrt:fpctrl.obj
 0001:00089020       _statfp                    000000006408a020 f   libucrt:fpctrl.obj
 0001:00089034       _isleadbyte_l              000000006408a034 f i libucrt:_wctype.obj
 0001:00089074       _isctype_l                 000000006408a074 f   libucrt:isctype.obj
 0001:000894e0       __acrt_LCMapStringA        000000006408a4e0 f   libucrt:lcmapstringa.obj
 0001:00089578       iswctype                   000000006408a578 f   libucrt:iswctype.obj
 0001:000897c4       _mbstowcs_s_l              000000006408a7c4 f   libucrt:mbstowcs.obj
 0001:000898f4       mbstowcs_s                 000000006408a8f4 f   libucrt:mbstowcs.obj
 0001:00089c48       _wcstombs_s_l              000000006408ac48 f   libucrt:wcstombs.obj
 0001:00089d78       ??$?RV<lambda_630b2aca97f6d20d5b5ea6529ea6b6af>@@AEAV<lambda_af91936f1d075d609f72d9d8cba980af>@@V<lambda_e82fa975f615b5c7c7b0e4d178fdae67>@@@?$__crt_seh_guarded_call@H@@QEAAH$$QEAV<lambda_630b2aca97f6d20d5b5ea6529ea6b6af>@@AEAV<lambda_af91936f1d075d609f72d9d8cba980af>@@$$QEAV<lambda_e82fa975f615b5c7c7b0e4d178fdae67>@@@Z 000000006408ad78 f i libucrt:winapi_thunks.obj
 0001:00089fb0       __acrt_EnumSystemLocalesEx 000000006408afb0 f   libucrt:winapi_thunks.obj
 0001:0008a058       __acrt_FlsAlloc            000000006408b058 f   libucrt:winapi_thunks.obj
 0001:0008a0b0       __acrt_FlsFree             000000006408b0b0 f   libucrt:winapi_thunks.obj
 0001:0008a108       __acrt_FlsGetValue         000000006408b108 f   libucrt:winapi_thunks.obj
 0001:0008a160       __acrt_FlsSetValue         000000006408b160 f   libucrt:winapi_thunks.obj
 0001:0008a1c8       __acrt_GetLocaleInfoEx     000000006408b1c8 f   libucrt:winapi_thunks.obj
 0001:0008a260       __acrt_GetUserDefaultLocaleName 000000006408b260 f   libucrt:winapi_thunks.obj
 0001:0008a2d4       __acrt_InitializeCriticalSectionEx 000000006408b2d4 f   libucrt:winapi_thunks.obj
 0001:0008a34c       __acrt_IsValidLocaleName   000000006408b34c f   libucrt:winapi_thunks.obj
 0001:0008a3b4       __acrt_LCIDToLocaleName    000000006408b3b4 f   libucrt:winapi_thunks.obj
 0001:0008a440       __acrt_LCMapStringEx       000000006408b440 f   libucrt:winapi_thunks.obj
 0001:0008a530       __acrt_LocaleNameToLCID    000000006408b530 f   libucrt:winapi_thunks.obj
 0001:0008a598       __acrt_can_use_vista_locale_apis 000000006408b598 f   libucrt:winapi_thunks.obj
 0001:0008a5c8       __acrt_initialize_winapi_thunks 000000006408b5c8 f   libucrt:winapi_thunks.obj
 0001:0008a600       __acrt_is_packaged_app     000000006408b600 f   libucrt:winapi_thunks.obj
 0001:0008a688       __acrt_uninitialize_winapi_thunks 000000006408b688 f   libucrt:winapi_thunks.obj
 0001:0008a86c       __acrt_GetLocaleInfoA      000000006408b86c f   libucrt:getlocaleinfoa.obj
 0001:0008aa34       __acrt_GetStringTypeA      000000006408ba34 f   libucrt:getstringtypea.obj
 0001:0008abe8       _query_new_mode            000000006408bbe8 f   libucrt:new_mode.obj
 0001:0008abf0       ??$?RV<lambda_c36588078e9f5dfd39652860aa6b3aaf>@@AEAV<lambda_ec61778202f4f5fc7e7711acc23c3bca>@@V<lambda_dc9d2797ccde5d239b4a0efae8ebd7db>@@@?$__crt_seh_guarded_call@P6AXH@Z@@QEAAP6AXH@Z$$QEAV<lambda_c36588078e9f5dfd39652860aa6b3aaf>@@AEAV<lambda_ec61778202f4f5fc7e7711acc23c3bca>@@$$QEAV<lambda_dc9d2797ccde5d239b4a0efae8ebd7db>@@@Z 000000006408bbf0 f i libucrt:signal.obj
 0001:0008ac38       __acrt_get_sigabrt_handler 000000006408bc38 f   libucrt:signal.obj
 0001:0008ac68       __acrt_initialize_signal_handlers 000000006408bc68 f   libucrt:signal.obj
 0001:0008ac88       raise                      000000006408bc88 f   libucrt:signal.obj
 0001:0008af30       __acrt_initialize_fma3     000000006408bf30 f   libucrt:fma3_available.obj
 0001:0008afa0       _pow_special               000000006408bfa0 f   libucrt:pow_special.obj
 0001:0008b0c4       _powf_special              000000006408c0c4 f   libucrt:pow_special.obj
 0001:0008b250       __acrt_initialize_timeset  000000006408c250 f   libucrt:timeset.obj
 0001:0008b75c       ?expand_if_necessary@?$argument_list@D@?A0xca0879c4@@AEAAHXZ 000000006408c75c f i libucrt:argv_wildcards.obj
 0001:0008b824       __acrt_expand_narrow_argv_wildcards 000000006408c824 f   libucrt:argv_wildcards.obj
 0001:0008b82c       ??$?RV<lambda_99476a1ad63dd22509b5d3e65b0ffc95>@@AEAV<lambda_ad1ced32f4ac17aa236e5ef05d6b3b7c>@@V<lambda_f7424dd8d45958661754dc4f2697e9c3>@@@?$__crt_seh_guarded_call@X@@QEAAX$$QEAV<lambda_99476a1ad63dd22509b5d3e65b0ffc95>@@AEAV<lambda_ad1ced32f4ac17aa236e5ef05d6b3b7c>@@$$QEAV<lambda_f7424dd8d45958661754dc4f2697e9c3>@@@Z 000000006408c82c f i libucrt:mbctype.obj
 0001:0008bf28       __acrt_initialize_multibyte 000000006408cf28 f   libucrt:mbctype.obj
 0001:0008bf50       __acrt_update_thread_multibyte_data 000000006408cf50 f   libucrt:mbctype.obj
 0001:0008c010       _setmbcp_nolock            000000006408d010 f   libucrt:mbctype.obj
 0001:0008c2b8       __acrt_initialize_command_line 000000006408d2b8 f   libucrt:argv_data.obj
 0001:0008c2e0       __dcrt_get_narrow_environment_from_os 000000006408d2e0 f   libucrt:get_environment_from_os.obj
 0001:0008c3e4       _recalloc                  000000006408d3e4 f   libucrt:recalloc.obj
 0001:0008c3ec       _recalloc_base             000000006408d3ec f   libucrt:recalloc.obj
 0001:0008c484       __acrt_execute_initializers 000000006408d484 f   libucrt:shared_initialization.obj
 0001:0008c518       __acrt_execute_uninitializers 000000006408d518 f   libucrt:shared_initialization.obj
 0001:0008c568       __acrt_has_user_matherr    000000006408d568 f   libucrt:matherr.obj
 0001:0008c588       __acrt_initialize_user_matherr 000000006408d588 f   libucrt:matherr.obj
 0001:0008c590       __acrt_invoke_user_matherr 000000006408d590 f   libucrt:matherr.obj
 0001:0008c5d8       __acrt_add_locale_ref      000000006408d5d8 f   libucrt:locale_refcounting.obj
 0001:0008c664       __acrt_free_locale         000000006408d664 f   libucrt:locale_refcounting.obj
 0001:0008c7dc       __acrt_locale_add_lc_time_reference 000000006408d7dc f   libucrt:locale_refcounting.obj
 0001:0008c804       __acrt_locale_free_lc_time_if_unreferenced 000000006408d804 f   libucrt:locale_refcounting.obj
 0001:0008c83c       __acrt_locale_release_lc_time_reference 000000006408d83c f   libucrt:locale_refcounting.obj
 0001:0008c864       __acrt_release_locale_ref  000000006408d864 f   libucrt:locale_refcounting.obj
 0001:0008c90c       __acrt_update_thread_locale_data 000000006408d90c f   libucrt:locale_refcounting.obj
 0001:0008c97c       _updatetlocinfoEx_nolock   000000006408d97c f   libucrt:locale_refcounting.obj
 0001:0008c9e4       __acrt_LCMapStringW        000000006408d9e4 f   libucrt:lcmapstringw.obj
 0001:0008ca6c       __acrt_locale_free_monetary 000000006408da6c f   libucrt:initmon.obj
 0001:0008cb78       __acrt_locale_initialize_monetary 000000006408db78 f   libucrt:initmon.obj
 0001:0008d0b0       __acrt_locale_free_numeric 000000006408e0b0 f   libucrt:initnum.obj
 0001:0008d11c       __acrt_locale_initialize_numeric 000000006408e11c f   libucrt:initnum.obj
 0001:0008d7a0       __acrt_locale_free_time    000000006408e7a0 f   libucrt:inittime.obj
 0001:0008d8a8       __acrt_locale_initialize_time 000000006408e8a8 f   libucrt:inittime.obj
 0001:0008d93c       wcscat_s                   000000006408e93c f   libucrt:wcscat_s.obj
 0001:0008d9bc       wcsncpy_s                  000000006408e9bc f   libucrt:wcsncpy_s.obj
 0001:0008daa0       wcscspn                    000000006408eaa0 f   libucrt:wcscspn.obj
 0001:0008dae0       wcsncmp                    000000006408eae0 f   libucrt:wcsncmp.obj
 0001:0008db0c       wcspbrk                    000000006408eb0c f   libucrt:wcspbrk.obj
 0001:0008e3b0       __acrt_get_qualified_locale 000000006408f3b0 f   libucrt:get_qualified_locale.obj
 0001:0008ed9c       __acrt_get_qualified_locale_downlevel 000000006408fd9c f   libucrt:getqloc_downlevel.obj
 0001:0008f02c       __acrt_fp_strflt_to_string 000000006409002c f   libucrt:_fptostr.obj
 0001:0008f0ec       __acrt_fltout              00000000640900ec f   libucrt:cfout.obj
 0001:000904e0       _fcloseall                 00000000640914e0 f   libucrt:closeall.obj
 0001:00090594       __acrt_stdio_flush_nolock  0000000064091594 f   libucrt:fflush.obj
 0001:0009060c       _fflush_nolock             000000006409160c f   libucrt:fflush.obj
 0001:00090658       _flushall                  0000000064091658 f   libucrt:fflush.obj
 0001:00090748       __acrt_stdio_free_buffer_nolock 0000000064091748 f   libucrt:_freebuf.obj
 0001:00090788       _isatty                    0000000064091788 f   libucrt:isatty.obj
 0001:000907e8       __acrt_lowio_create_handle_array 00000000640917e8 f   libucrt:osfinfo.obj
 0001:00090880       __acrt_lowio_destroy_handle_array 0000000064091880 f   libucrt:osfinfo.obj
 0001:000908d0       __acrt_lowio_ensure_fh_exists 00000000640918d0 f   libucrt:osfinfo.obj
 0001:00090988       __acrt_lowio_lock_fh       0000000064091988 f   libucrt:osfinfo.obj
 0001:000909ac       __acrt_lowio_unlock_fh     00000000640919ac f   libucrt:osfinfo.obj
 0001:000909d0       _free_osfhnd               00000000640919d0 f   libucrt:osfinfo.obj
 0001:00090a8c       _get_osfhandle             0000000064091a8c f   libucrt:osfinfo.obj
 0001:00090b20       _get_fpsr                  0000000064091b20 f   libucrt:fpsr.obj
 0001:00090b30       _set_fpsr                  0000000064091b30 f   libucrt:fpsr.obj
 0001:00090b3a       _fclrf                     0000000064091b3a f   libucrt:fpsr.obj
 0001:00090b4e       _frnd                      0000000064091b4e f   libucrt:fpsr.obj
 0001:00090c38       __acrt_DownlevelLCIDToLocaleName 0000000064091c38 f   libucrt:lcidtoname_downlevel.obj
 0001:00090d1c       __acrt_DownlevelLocaleNameToLCID 0000000064091d1c f   libucrt:lcidtoname_downlevel.obj
 0001:00090d50       strncpy_s                  0000000064091d50 f   libucrt:strncpy_s.obj
 0001:00090e24       _getfpcontrolword          0000000064091e24 f   libucrt:_fenvutils.obj
 0001:00090e3c       _getfpstatusword           0000000064091e3c f   libucrt:_fenvutils.obj
 0001:00090e50       _setfpcontrolword          0000000064091e50 f   libucrt:_fenvutils.obj
 0001:00090e5c       _setfpstatusword           0000000064091e5c f   libucrt:_fenvutils.obj
 0001:00090fd0       _handle_error              0000000064091fd0 f   libucrt:libm_error.obj
 0001:000910f8       _handle_errorf             00000000640920f8 f   libucrt:libm_error.obj
 0001:0009122c       _handle_nan                000000006409222c f   libucrt:libm_error.obj
 0001:00091248       _handle_nanf               0000000064092248 f   libucrt:libm_error.obj
 0001:00091330       qsort                      0000000064092330 f   libucrt:qsort.obj
 0001:00091664       strpbrk                    0000000064092664 f   libucrt:strpbrk.obj
 0001:00091704       _mbsdec                    0000000064092704 f   libucrt:mbsdec.obj
 0001:0009170c       _mbsdec_l                  000000006409270c f   libucrt:mbsdec.obj
 0001:000917bc       _msize                     00000000640927bc f   libucrt:msize.obj
 0001:000917f8       _wcsnicmp                  00000000640927f8 f   libucrt:wcsnicmp.obj
 0001:00091894       _wcsnicmp_l                0000000064092894 f   libucrt:wcsnicmp.obj
 0001:000919ac       wcscmp                     00000000640929ac f   libucrt:wcscmp.obj
 0001:000919e4       fegetenv                   00000000640929e4 f   libucrt:fegetenv.obj
 0001:00091a04       fesetenv                   0000000064092a04 f   libucrt:fesetenv.obj
 0001:00091a50       feholdexcept               0000000064092a50 f   libucrt:feholdexcept.obj
 0001:00091aa0       ceil                       0000000064092aa0 f   libucrt:ceil.obj
 0001:00091b70       log10                      0000000064092b70 f   libucrt:log10.obj
 0001:000926bc       _write                     00000000640936bc f   libucrt:write.obj
 0001:000927a8       _write_nolock              00000000640937a8 f   libucrt:write.obj
 0001:00092b28       _lseeki64_nolock           0000000064093b28 f   libucrt:lseek.obj
 0001:00092b30       _fclose_nolock             0000000064093b30 f   libucrt:fclose.obj
 0001:00092bb4       fclose                     0000000064093bb4 f   libucrt:fclose.obj
 0001:00092c20       ??$?RV<lambda_b521505b218e5242e90febf6bfebc422>@@AEAV<lambda_6978c1fb23f02e42e1d9e99668cc68aa>@@V<lambda_314360699dd331753a4119843814e9a7>@@@?$__crt_seh_guarded_call@H@@QEAAH$$QEAV<lambda_b521505b218e5242e90febf6bfebc422>@@AEAV<lambda_6978c1fb23f02e42e1d9e99668cc68aa>@@$$QEAV<lambda_314360699dd331753a4119843814e9a7>@@@Z 0000000064093c20 f i libucrt:commit.obj
 0001:00092cac       _commit                    0000000064093cac f   libucrt:commit.obj
 0001:00092d40       _query_app_type            0000000064093d40 f   libucrt:report_runtime_error.obj
 0001:00092d48       _clearfp                   0000000064093d48 f   libucrt:ieee.obj
 0001:00092d9c       _controlfp                 0000000064093d9c f   libucrt:ieee.obj
 0001:00092da8       _statusfp                  0000000064093da8 f   libucrt:ieee.obj
 0001:00093090       _log10_special             0000000064094090 f   libucrt:log_special.obj
 0001:00093148       _putwch_nolock             0000000064094148 f   libucrt:putwch.obj
 0001:000931a4       ??$?RV<lambda_bfedae4ebbf01fab1bb6dcc6a9e276e0>@@AEAV<lambda_2fe9b910cf3cbf4a0ab98a02ba45b3ec>@@V<lambda_237c231691f317818eb88cc1d5d642d6>@@@?$__crt_seh_guarded_call@H@@QEAAH$$QEAV<lambda_bfedae4ebbf01fab1bb6dcc6a9e276e0>@@AEAV<lambda_2fe9b910cf3cbf4a0ab98a02ba45b3ec>@@$$QEAV<lambda_237c231691f317818eb88cc1d5d642d6>@@@Z 00000000640941a4 f i libucrt:close.obj
 0001:00093218       _close                     0000000064094218 f   libucrt:close.obj
 0001:000932bc       _close_nolock              00000000640942bc f   libucrt:close.obj
 0001:00093378       ?__acrt_stdio_free_stream@@YAXV__crt_stdio_stream@@@Z 0000000064094378 f   libucrt:stream.obj
 0001:000933bc       __dcrt_lowio_initialize_console_output 00000000640943bc f   libucrt:initcon.obj
 0001:000933f8       __dcrt_terminate_console_output 00000000640943f8 f   libucrt:initcon.obj
 0001:00093418       SystemFunction036          0000000064094418 f   advapi32:ADVAPI32.dll
 0001:00093420       _FindPESection             0000000064094420 f   LIBCMT:pesect.obj
 0001:00093470       _IsNonwritableInCurrentImage 0000000064094470 f   LIBCMT:pesect.obj
 0001:000934c0       _ValidateImageBase         00000000640944c0 f   LIBCMT:pesect.obj
 0001:000934ee       RtlUnwindEx                00000000640944ee f   kernel32:KERNEL32.dll
 0001:000934f4       strrchr                    00000000640944f4 f   libvcruntime:strrchr.obj
 0001:00093638       wcschr                     0000000064094638 f   libvcruntime:wcschr.obj
 0001:000936e0       _guard_dispatch_icall_nop  00000000640946e0 f   LIBCMT:_guard_dispatch_.obj
 0001:000a0790       ??__Fbatch_options@?1??extract@Plugin@@QEAAXAEBVPluginPanelItemAccessor@1@AEAV?$basic_string@_WU?$char_traits@_W@std@@V?$allocator@_W@2@@std@@_N_K@Z@YAXXZ 00000000640a1790 f i plugin.obj
 0001:000a07c0       ??__F_Static@?1???$_Immortalize@V_Iostream_error_category@std@@@std@@YAAEAV_Iostream_error_category@0@XZ@YAXXZ 00000000640a17c0 f i ui.obj
 0002:00000000       __imp_SystemFunction036    00000000640a2000     advapi32:ADVAPI32.dll
 0002:00000008       __imp_RegCloseKey          00000000640a2008     advapi32:ADVAPI32.dll
 0002:00000010       __imp_RegOpenKeyExW        00000000640a2010     advapi32:ADVAPI32.dll
 0002:00000018       __imp_RegQueryValueExW     00000000640a2018     advapi32:ADVAPI32.dll
 0002:00000020       \177ADVAPI32_NULL_THUNK_DATA 00000000640a2020     advapi32:ADVAPI32.dll
 0002:00000028       __imp_WriteConsoleW        00000000640a2028     kernel32:KERNEL32.dll
 0002:00000030       __imp_FlushFileBuffers     00000000640a2030     kernel32:KERNEL32.dll
 0002:00000038       __imp_GetConsoleMode       00000000640a2038     kernel32:KERNEL32.dll
 0002:00000040       __imp_GetConsoleCP         00000000640a2040     kernel32:KERNEL32.dll
 0002:00000048       __imp_HeapSize             00000000640a2048     kernel32:KERNEL32.dll
 0002:00000050       __imp_SetStdHandle         00000000640a2050     kernel32:KERNEL32.dll
 0002:00000058       __imp_FreeEnvironmentStringsW 00000000640a2058     kernel32:KERNEL32.dll
 0002:00000060       __imp_GetEnvironmentStringsW 00000000640a2060     kernel32:KERNEL32.dll
 0002:00000068       __imp_GetCommandLineW      00000000640a2068     kernel32:KERNEL32.dll
 0002:00000070       __imp_GetCommandLineA      00000000640a2070     kernel32:KERNEL32.dll
 0002:00000078       __imp_FreeLibrary          00000000640a2078     kernel32:KERNEL32.dll
 0002:00000080       __imp_LoadLibraryW         00000000640a2080     kernel32:KERNEL32.dll
 0002:00000088       __imp_GetProcAddress       00000000640a2088     kernel32:KERNEL32.dll
 0002:00000090       __imp_lstrcmpiW            00000000640a2090     kernel32:KERNEL32.dll
 0002:00000098       __imp_QueryPerformanceCounter 00000000640a2098     kernel32:KERNEL32.dll
 0002:000000a0       __imp_QueryPerformanceFrequency 00000000640a20a0     kernel32:KERNEL32.dll
 0002:000000a8       __imp_GetPriorityClass     00000000640a20a8     kernel32:KERNEL32.dll
 0002:000000b0       __imp_GetCurrentProcess    00000000640a20b0     kernel32:KERNEL32.dll
 0002:000000b8       __imp_SetConsoleTitleW     00000000640a20b8     kernel32:KERNEL32.dll
 0002:000000c0       __imp_GetStdHandle         00000000640a20c0     kernel32:KERNEL32.dll
 0002:000000c8       __imp_PeekConsoleInputW    00000000640a20c8     kernel32:KERNEL32.dll
 0002:000000d0       __imp_ReadConsoleInputW    00000000640a20d0     kernel32:KERNEL32.dll
 0002:000000d8       __imp_SetPriorityClass     00000000640a20d8     kernel32:KERNEL32.dll
 0002:000000e0       __imp_CompareFileTime      00000000640a20e0     kernel32:KERNEL32.dll
 0002:000000e8       __imp_EnterCriticalSection 00000000640a20e8     kernel32:KERNEL32.dll
 0002:000000f0       __imp_LeaveCriticalSection 00000000640a20f0     kernel32:KERNEL32.dll
 0002:000000f8       __imp_SetThreadExecutionState 00000000640a20f8     kernel32:KERNEL32.dll
 0002:00000100       __imp_GlobalMemoryStatus   00000000640a2100     kernel32:KERNEL32.dll
 0002:00000108       __imp_VirtualAlloc         00000000640a2108     kernel32:KERNEL32.dll
 0002:00000110       __imp_GetLastError         00000000640a2110     kernel32:KERNEL32.dll
 0002:00000118       __imp_VirtualFree          00000000640a2118     kernel32:KERNEL32.dll
 0002:00000120       __imp_GetDiskFreeSpaceW    00000000640a2120     kernel32:KERNEL32.dll
 0002:00000128       __imp_DeviceIoControl      00000000640a2128     kernel32:KERNEL32.dll
 0002:00000130       __imp_GetSystemTime        00000000640a2130     kernel32:KERNEL32.dll
 0002:00000138       __imp_SystemTimeToFileTime 00000000640a2138     kernel32:KERNEL32.dll
 0002:00000140       __imp_FileTimeToLocalFileTime 00000000640a2140     kernel32:KERNEL32.dll
 0002:00000148       __imp_FileTimeToSystemTime 00000000640a2148     kernel32:KERNEL32.dll
 0002:00000150       __imp_GetDateFormatW       00000000640a2150     kernel32:KERNEL32.dll
 0002:00000158       __imp_GetTimeFormatW       00000000640a2158     kernel32:KERNEL32.dll
 0002:00000160       __imp_FindResourceExW      00000000640a2160     kernel32:KERNEL32.dll
 0002:00000168       __imp_LoadResource         00000000640a2168     kernel32:KERNEL32.dll
 0002:00000170       __imp_LockResource         00000000640a2170     kernel32:KERNEL32.dll
 0002:00000178       __imp_EnumResourceNamesW   00000000640a2178     kernel32:KERNEL32.dll
 0002:00000180       __imp_EnumResourceLanguagesW 00000000640a2180     kernel32:KERNEL32.dll
 0002:00000188       __imp_LoadLibraryExW       00000000640a2188     kernel32:KERNEL32.dll
 0002:00000190       __imp_BeginUpdateResourceW 00000000640a2190     kernel32:KERNEL32.dll
 0002:00000198       __imp_EndUpdateResourceW   00000000640a2198     kernel32:KERNEL32.dll
 0002:000001a0       __imp_UpdateResourceW      00000000640a21a0     kernel32:KERNEL32.dll
 0002:000001a8       __imp_InitializeCriticalSection 00000000640a21a8     kernel32:KERNEL32.dll
 0002:000001b0       __imp_DeleteCriticalSection 00000000640a21b0     kernel32:KERNEL32.dll
 0002:000001b8       __imp_FormatMessageW       00000000640a21b8     kernel32:KERNEL32.dll
 0002:000001c0       __imp_GetModuleHandleW     00000000640a21c0     kernel32:KERNEL32.dll
 0002:000001c8       __imp_LocalFree            00000000640a21c8     kernel32:KERNEL32.dll
 0002:000001d0       __imp_GetConsoleTitleW     00000000640a21d0     kernel32:KERNEL32.dll
 0002:000001d8       __imp_MultiByteToWideChar  00000000640a21d8     kernel32:KERNEL32.dll
 0002:000001e0       __imp_WideCharToMultiByte  00000000640a21e0     kernel32:KERNEL32.dll
 0002:000001e8       __imp_ExpandEnvironmentStringsW 00000000640a21e8     kernel32:KERNEL32.dll
 0002:000001f0       __imp_CreateFileW          00000000640a21f0     kernel32:KERNEL32.dll
 0002:000001f8       __imp_CloseHandle          00000000640a21f8     kernel32:KERNEL32.dll
 0002:00000200       __imp_GetFileSizeEx        00000000640a2200     kernel32:KERNEL32.dll
 0002:00000208       __imp_ReadFile             00000000640a2208     kernel32:KERNEL32.dll
 0002:00000210       __imp_WriteFile            00000000640a2210     kernel32:KERNEL32.dll
 0002:00000218       __imp_SetFileTime          00000000640a2218     kernel32:KERNEL32.dll
 0002:00000220       __imp_SetFilePointerEx     00000000640a2220     kernel32:KERNEL32.dll
 0002:00000228       __imp_SetEndOfFile         00000000640a2228     kernel32:KERNEL32.dll
 0002:00000230       __imp_GetFileInformationByHandle 00000000640a2230     kernel32:KERNEL32.dll
 0002:00000238       __imp_GetFileAttributesW   00000000640a2238     kernel32:KERNEL32.dll
 0002:00000240       __imp_SetFileAttributesW   00000000640a2240     kernel32:KERNEL32.dll
 0002:00000248       __imp_CreateDirectoryW     00000000640a2248     kernel32:KERNEL32.dll
 0002:00000250       __imp_RemoveDirectoryW     00000000640a2250     kernel32:KERNEL32.dll
 0002:00000258       __imp_MoveFileExW          00000000640a2258     kernel32:KERNEL32.dll
 0002:00000260       __imp_FindFirstFileW       00000000640a2260     kernel32:KERNEL32.dll
 0002:00000268       __imp_FindClose            00000000640a2268     kernel32:KERNEL32.dll
 0002:00000270       __imp_SetLastError         00000000640a2270     kernel32:KERNEL32.dll
 0002:00000278       __imp_FindNextFileW        00000000640a2278     kernel32:KERNEL32.dll
 0002:00000280       __imp_GetTempPathW         00000000640a2280     kernel32:KERNEL32.dll
 0002:00000288       __imp_GetTempFileNameW     00000000640a2288     kernel32:KERNEL32.dll
 0002:00000290       __imp_HeapSetInformation   00000000640a2290     kernel32:KERNEL32.dll
 0002:00000298       __imp_SearchPathW          00000000640a2298     kernel32:KERNEL32.dll
 0002:000002a0       __imp_VirtualQuery         00000000640a22a0     kernel32:KERNEL32.dll
 0002:000002a8       __imp_VirtualProtect       00000000640a22a8     kernel32:KERNEL32.dll
 0002:000002b0       __imp_GetModuleHandleA     00000000640a22b0     kernel32:KERNEL32.dll
 0002:000002b8       __imp_GetCPInfo            00000000640a22b8     kernel32:KERNEL32.dll
 0002:000002c0       __imp_GetOEMCP             00000000640a22c0     kernel32:KERNEL32.dll
 0002:000002c8       __imp_GetACP               00000000640a22c8     kernel32:KERNEL32.dll
 0002:000002d0       __imp_GetStringTypeW       00000000640a22d0     kernel32:KERNEL32.dll
 0002:000002d8       __imp_EncodePointer        00000000640a22d8     kernel32:KERNEL32.dll
 0002:000002e0       __imp_DecodePointer        00000000640a22e0     kernel32:KERNEL32.dll
 0002:000002e8       __imp_InitializeCriticalSectionAndSpinCount 00000000640a22e8     kernel32:KERNEL32.dll
 0002:000002f0       __imp_TlsAlloc             00000000640a22f0     kernel32:KERNEL32.dll
 0002:000002f8       __imp_TlsGetValue          00000000640a22f8     kernel32:KERNEL32.dll
 0002:00000300       __imp_TlsSetValue          00000000640a2300     kernel32:KERNEL32.dll
 0002:00000308       __imp_TlsFree              00000000640a2308     kernel32:KERNEL32.dll
 0002:00000310       __imp_GetSystemTimeAsFileTime 00000000640a2310     kernel32:KERNEL32.dll
 0002:00000318       __imp_LCMapStringW         00000000640a2318     kernel32:KERNEL32.dll
 0002:00000320       __imp_GetLocaleInfoW       00000000640a2320     kernel32:KERNEL32.dll
 0002:00000328       __imp_InitializeSListHead  00000000640a2328     kernel32:KERNEL32.dll
 0002:00000330       __imp_RtlCaptureContext    00000000640a2330     kernel32:KERNEL32.dll
 0002:00000338       __imp_RtlLookupFunctionEntry 00000000640a2338     kernel32:KERNEL32.dll
 0002:00000340       __imp_RtlVirtualUnwind     00000000640a2340     kernel32:KERNEL32.dll
 0002:00000348       __imp_UnhandledExceptionFilter 00000000640a2348     kernel32:KERNEL32.dll
 0002:00000350       __imp_SetUnhandledExceptionFilter 00000000640a2350     kernel32:KERNEL32.dll
 0002:00000358       __imp_TerminateProcess     00000000640a2358     kernel32:KERNEL32.dll
 0002:00000360       __imp_IsProcessorFeaturePresent 00000000640a2360     kernel32:KERNEL32.dll
 0002:00000368       __imp_IsDebuggerPresent    00000000640a2368     kernel32:KERNEL32.dll
 0002:00000370       __imp_GetStartupInfoW      00000000640a2370     kernel32:KERNEL32.dll
 0002:00000378       __imp_GetCurrentProcessId  00000000640a2378     kernel32:KERNEL32.dll
 0002:00000380       __imp_GetCurrentThreadId   00000000640a2380     kernel32:KERNEL32.dll
 0002:00000388       __imp_DeleteFileW          00000000640a2388     kernel32:KERNEL32.dll
 0002:00000390       __imp_RtlPcToFileHeader    00000000640a2390     kernel32:KERNEL32.dll
 0002:00000398       __imp_RaiseException       00000000640a2398     kernel32:KERNEL32.dll
 0002:000003a0       __imp_InterlockedPushEntrySList 00000000640a23a0     kernel32:KERNEL32.dll
 0002:000003a8       __imp_InterlockedFlushSList 00000000640a23a8     kernel32:KERNEL32.dll
 0002:000003b0       __imp_RtlUnwindEx          00000000640a23b0     kernel32:KERNEL32.dll
 0002:000003b8       __imp_GetModuleFileNameW   00000000640a23b8     kernel32:KERNEL32.dll
 0002:000003c0       __imp_GetProcessHeap       00000000640a23c0     kernel32:KERNEL32.dll
 0002:000003c8       __imp_HeapAlloc            00000000640a23c8     kernel32:KERNEL32.dll
 0002:000003d0       __imp_HeapReAlloc          00000000640a23d0     kernel32:KERNEL32.dll
 0002:000003d8       __imp_HeapFree             00000000640a23d8     kernel32:KERNEL32.dll
 0002:000003e0       __imp_ExitProcess          00000000640a23e0     kernel32:KERNEL32.dll
 0002:000003e8       __imp_GetModuleHandleExW   00000000640a23e8     kernel32:KERNEL32.dll
 0002:000003f0       __imp_GetModuleFileNameA   00000000640a23f0     kernel32:KERNEL32.dll
 0002:000003f8       __imp_GetFileType          00000000640a23f8     kernel32:KERNEL32.dll
 0002:00000400       __imp_IsValidLocale        00000000640a2400     kernel32:KERNEL32.dll
 0002:00000408       __imp_GetUserDefaultLCID   00000000640a2408     kernel32:KERNEL32.dll
 0002:00000410       __imp_EnumSystemLocalesW   00000000640a2410     kernel32:KERNEL32.dll
 0002:00000418       __imp_FindFirstFileExA     00000000640a2418     kernel32:KERNEL32.dll
 0002:00000420       __imp_FindNextFileA        00000000640a2420     kernel32:KERNEL32.dll
 0002:00000428       __imp_IsValidCodePage      00000000640a2428     kernel32:KERNEL32.dll
 0002:00000430       \177KERNEL32_NULL_THUNK_DATA 00000000640a2430     kernel32:KERNEL32.dll
 0002:00000438       __imp_SysAllocStringLen    00000000640a2438     oleaut32:OLEAUT32.dll
 0002:00000440       __imp_SysFreeString        00000000640a2440     oleaut32:OLEAUT32.dll
 0002:00000448       __imp_SysStringByteLen     00000000640a2448     oleaut32:OLEAUT32.dll
 0002:00000450       __imp_SysStringLen         00000000640a2450     oleaut32:OLEAUT32.dll
 0002:00000458       \177OLEAUT32_NULL_THUNK_DATA 00000000640a2458     oleaut32:OLEAUT32.dll
 0002:00000460       __imp_CharUpperBuffW       00000000640a2460     user32:USER32.dll
 0002:00000468       \177USER32_NULL_THUNK_DATA 00000000640a2468     user32:USER32.dll
 0002:00000470       __imp_GetFileVersionInfoSizeW 00000000640a2470     version:VERSION.dll
 0002:00000478       __imp_GetFileVersionInfoW  00000000640a2478     version:VERSION.dll
 0002:00000480       __imp_VerQueryValueW       00000000640a2480     version:VERSION.dll
 0002:00000488       \177VERSION_NULL_THUNK_DATA 00000000640a2488     version:VERSION.dll
 0002:00000490       __imp_CoCreateGuid         00000000640a2490     ole32:ole32.dll
 0002:00000498       __imp_PropVariantClear     00000000640a2498     ole32:ole32.dll
 0002:000004a0       __imp_StringFromGUID2      00000000640a24a0     ole32:ole32.dll
 0002:000004a8       __imp_PropVariantCopy      00000000640a24a8     ole32:ole32.dll
 0002:000004b0       \177ole32_NULL_THUNK_DATA  00000000640a24b0     ole32:ole32.dll
 0002:000004b8       __guard_check_icall_fptr   00000000640a24b8     LIBCMT:guard_support.obj
 0002:000004c0       __guard_dispatch_icall_fptr 00000000640a24c0     LIBCMT:guard_support.obj
 0002:000004c8       __xc_a                     00000000640a24c8     LIBCMT:initializers.obj
 0002:00000570       __xc_z                     00000000640a2570     LIBCMT:initializers.obj
 0002:00000578       __xi_a                     00000000640a2578     LIBCMT:initializers.obj
 0002:00000588       __acrt_stdio_initializer   00000000640a2588     libucrt:stdio_initializer.obj
 0002:00000590       __acrt_tran_fma3_initializer 00000000640a2590     libucrt:fma3_initializer.obj
 0002:00000598       __acrt_timeset_initializer 00000000640a2598     libucrt:timeset_initializer.obj
 0002:000005a0       __acrt_multibyte_initializer 00000000640a25a0     libucrt:multibyte_initializer.obj
 0002:000005a8       __xi_z                     00000000640a25a8     LIBCMT:initializers.obj
 0002:000005b0       __xp_a                     00000000640a25b0     LIBCMT:initializers.obj
 0002:000005b8       __acrt_locale_terminator   00000000640a25b8     libucrt:locale_initializer.obj
 0002:000005c0       __dcrt_console_output_terminator 00000000640a25c0     libucrt:console_output_initializer.obj
 0002:000005c8       __acrt_stdio_terminator    00000000640a25c8     libucrt:stdio_initializer.obj
 0002:000005d0       __xp_z                     00000000640a25d0     LIBCMT:initializers.obj
 0002:000005d8       __xt_a                     00000000640a25d8     LIBCMT:initializers.obj
 0002:000005e0       __xt_z                     00000000640a25e0     LIBCMT:initializers.obj
 0002:000005f0       IID_IUnknown               00000000640a25f0     uuid:unknwn_i.obj
 0002:00000608       ??_7exception@std@@6B@     00000000640a2608     libcpmt:xthrow.obj
 0002:00000620       ??_7bad_alloc@std@@6B@     00000000640a2620     libcpmt:xthrow.obj
 0002:00000630       ??_C@_0P@GHFPNOJB@bad?5allocation?$AA@ 00000000640a2630     libcpmt:xthrow.obj
 0002:00000648       ??_7logic_error@std@@6B@   00000000640a2648     libcpmt:xthrow.obj
 0002:00000660       ??_7length_error@std@@6B@  00000000640a2660     libcpmt:xthrow.obj
 0002:00000678       ??_7out_of_range@std@@6B@  00000000640a2678     libcpmt:xthrow.obj
 0002:00000690       ??_7runtime_error@std@@6B@ 00000000640a2690     libcpmt:xthrow.obj
 0002:000006a0       ?_BADOFF@std@@3_JB         00000000640a26a0     libcpmt:ios.obj
 0002:00000778       ??_7_Facet_base@std@@6B@   00000000640a2778     libcpmt:locale0.obj
 0002:00000798       ??_7_Locimp@locale@std@@6B@ 00000000640a2798     libcpmt:locale0.obj
 0002:000007b0       ??_C@_01NBENCBCI@?$CK?$AA@ 00000000640a27b0     libcpmt:locale0.obj
 0002:000007b4       ??_C@_01GFHCPBMG@C?$AA@    00000000640a27b4     libcpmt:locale0.obj
 0002:00000ef0       ??_C@_0BN@LKKBCCDB@address?5family?5not?5supported?$AA@ 00000000640a2ef0     libcpmt:syserror.obj
 0002:00000f10       ??_C@_0P@LDMLAFHI@address?5in?5use?$AA@ 00000000640a2f10     libcpmt:syserror.obj
 0002:00000f20       ??_C@_0BG@DHPCNBJB@address?5not?5available?$AA@ 00000000640a2f20     libcpmt:syserror.obj
 0002:00000f38       ??_C@_0BC@DFIBIBIL@already?5connected?$AA@ 00000000640a2f38     libcpmt:syserror.obj
 0002:00000f50       ??_C@_0BH@CAKOHOMI@argument?5list?5too?5long?$AA@ 00000000640a2f50     libcpmt:syserror.obj
 0002:00000f68       ??_C@_0BH@CGIMPKIM@argument?5out?5of?5domain?$AA@ 00000000640a2f68     libcpmt:syserror.obj
 0002:00000f80       ??_C@_0M@KGHGGJGL@bad?5address?$AA@ 00000000640a2f80     libcpmt:syserror.obj
 0002:00000f90       ??_C@_0BE@MPJPGCEO@bad?5file?5descriptor?$AA@ 00000000640a2f90     libcpmt:syserror.obj
 0002:00000fa8       ??_C@_0M@PMMIEFCP@bad?5message?$AA@ 00000000640a2fa8     libcpmt:syserror.obj
 0002:00000fb8       ??_C@_0M@KPHOFDBE@broken?5pipe?$AA@ 00000000640a2fb8     libcpmt:syserror.obj
 0002:00000fc8       ??_C@_0BD@MGNDDEGM@connection?5aborted?$AA@ 00000000640a2fc8     libcpmt:syserror.obj
 0002:00000fe0       ??_C@_0BP@KAIHPOGN@connection?5already?5in?5progress?$AA@ 00000000640a2fe0     libcpmt:syserror.obj
 0002:00001000       ??_C@_0BD@PJLIIJEL@connection?5refused?$AA@ 00000000640a3000     libcpmt:syserror.obj
 0002:00001018       ??_C@_0BB@IECNJNOI@connection?5reset?$AA@ 00000000640a3018     libcpmt:syserror.obj
 0002:00001030       ??_C@_0BC@PPHBOELF@cross?5device?5link?$AA@ 00000000640a3030     libcpmt:syserror.obj
 0002:00001048       ??_C@_0BN@KDMIFEIP@destination?5address?5required?$AA@ 00000000640a3048     libcpmt:syserror.obj
 0002:00001068       ??_C@_0BI@NGCEHDD@device?5or?5resource?5busy?$AA@ 00000000640a3068     libcpmt:syserror.obj
 0002:00001080       ??_C@_0BE@JIDOCPHM@directory?5not?5empty?$AA@ 00000000640a3080     libcpmt:syserror.obj
 0002:00001098       ??_C@_0BI@BNCLIGPB@executable?5format?5error?$AA@ 00000000640a3098     libcpmt:syserror.obj
 0002:000010b0       ??_C@_0M@MIDIAGJP@file?5exists?$AA@ 00000000640a30b0     libcpmt:syserror.obj
 0002:000010c0       ??_C@_0P@DNAJLBJK@file?5too?5large?$AA@ 00000000640a30c0     libcpmt:syserror.obj
 0002:000010d0       ??_C@_0BC@EJHOMAAK@filename?5too?5long?$AA@ 00000000640a30d0     libcpmt:syserror.obj
 0002:000010e8       ??_C@_0BH@KEFGLDAF@function?5not?5supported?$AA@ 00000000640a30e8     libcpmt:syserror.obj
 0002:00001100       ??_C@_0BB@DHFDFGDM@host?5unreachable?$AA@ 00000000640a3100     libcpmt:syserror.obj
 0002:00001118       ??_C@_0BD@JPHBMONG@identifier?5removed?$AA@ 00000000640a3118     libcpmt:syserror.obj
 0002:00001130       ??_C@_0BG@CDNPAGJK@illegal?5byte?5sequence?$AA@ 00000000640a3130     libcpmt:syserror.obj
 0002:00001148       ??_C@_0CD@BNPLBMNA@inappropriate?5io?5control?5operati@ 00000000640a3148     libcpmt:syserror.obj
 0002:00001170       ??_C@_0M@EGEKIIMP@interrupted?$AA@ 00000000640a3170     libcpmt:syserror.obj
 0002:00001180       ??_C@_0BB@FCMFBGOM@invalid?5argument?$AA@ 00000000640a3180     libcpmt:syserror.obj
 0002:00001198       ??_C@_0N@OHAFKDEK@invalid?5seek?$AA@ 00000000640a3198     libcpmt:syserror.obj
 0002:000011a8       ??_C@_08GLNPIFBN@io?5error?$AA@ 00000000640a31a8     libcpmt:syserror.obj
 0002:000011b8       ??_C@_0P@FLLDBIDK@is?5a?5directory?$AA@ 00000000640a31b8     libcpmt:syserror.obj
 0002:000011c8       ??_C@_0N@IFLPBIOP@message?5size?$AA@ 00000000640a31c8     libcpmt:syserror.obj
 0002:000011d8       ??_C@_0N@KIIEAAIO@network?5down?$AA@ 00000000640a31d8     libcpmt:syserror.obj
 0002:000011e8       ??_C@_0O@FNPDBHEE@network?5reset?$AA@ 00000000640a31e8     libcpmt:syserror.obj
 0002:000011f8       ??_C@_0BE@IFNCKGE@network?5unreachable?$AA@ 00000000640a31f8     libcpmt:syserror.obj
 0002:00001210       ??_C@_0BA@PFFCAOFK@no?5buffer?5space?$AA@ 00000000640a3210     libcpmt:syserror.obj
 0002:00001220       ??_C@_0BB@IEPBLJHK@no?5child?5process?$AA@ 00000000640a3220     libcpmt:syserror.obj
 0002:00001238       ??_C@_07PLECNNKG@no?5link?$AA@ 00000000640a3238     libcpmt:syserror.obj
 0002:00001240       ??_C@_0BC@NJECKMKE@no?5lock?5available?$AA@ 00000000640a3240     libcpmt:syserror.obj
 0002:00001258       ??_C@_0BF@PBGGPKKE@no?5message?5available?$AA@ 00000000640a3258     libcpmt:syserror.obj
 0002:00001270       ??_C@_0L@EDOLMPAK@no?5message?$AA@ 00000000640a3270     libcpmt:syserror.obj
 0002:00001280       ??_C@_0BD@EAMBFIDF@no?5protocol?5option?$AA@ 00000000640a3280     libcpmt:syserror.obj
 0002:00001298       ??_C@_0BD@IJDJKDEA@no?5space?5on?5device?$AA@ 00000000640a3298     libcpmt:syserror.obj
 0002:000012b0       ??_C@_0BE@MKFDAFMP@no?5stream?5resources?$AA@ 00000000640a32b0     libcpmt:syserror.obj
 0002:000012c8       ??_C@_0BK@IMCPHCBI@no?5such?5device?5or?5address?$AA@ 00000000640a32c8     libcpmt:syserror.obj
 0002:000012e8       ??_C@_0P@FDINDDOK@no?5such?5device?$AA@ 00000000640a32e8     libcpmt:syserror.obj
 0002:000012f8       ??_C@_0BK@NDOCBPGE@no?5such?5file?5or?5directory?$AA@ 00000000640a32f8     libcpmt:syserror.obj
 0002:00001318       ??_C@_0BA@ENLPPKBN@no?5such?5process?$AA@ 00000000640a3318     libcpmt:syserror.obj
 0002:00001328       ??_C@_0BA@DOCPFFJG@not?5a?5directory?$AA@ 00000000640a3328     libcpmt:syserror.obj
 0002:00001338       ??_C@_0N@POEIPGGF@not?5a?5socket?$AA@ 00000000640a3338     libcpmt:syserror.obj
 0002:00001348       ??_C@_0N@LGAPMMPI@not?5a?5stream?$AA@ 00000000640a3348     libcpmt:syserror.obj
 0002:00001358       ??_C@_0O@GLMIBBEG@not?5connected?$AA@ 00000000640a3358     libcpmt:syserror.obj
 0002:00001368       ??_C@_0BC@ENOOLCNF@not?5enough?5memory?$AA@ 00000000640a3368     libcpmt:syserror.obj
 0002:00001380       ??_C@_0O@NHEDABJP@not?5supported?$AA@ 00000000640a3380     libcpmt:syserror.obj
 0002:00001390       ??_C@_0BD@MOLBPMEA@operation?5canceled?$AA@ 00000000640a3390     libcpmt:syserror.obj
 0002:000013a8       ??_C@_0BG@KDKHOPCO@operation?5in?5progress?$AA@ 00000000640a33a8     libcpmt:syserror.obj
 0002:000013c0       ??_C@_0BI@OHIEJAAB@operation?5not?5permitted?$AA@ 00000000640a33c0     libcpmt:syserror.obj
 0002:000013d8       ??_C@_0BI@LNEGIFLN@operation?5not?5supported?$AA@ 00000000640a33d8     libcpmt:syserror.obj
 0002:000013f0       ??_C@_0BG@OEMDKMEE@operation?5would?5block?$AA@ 00000000640a33f0     libcpmt:syserror.obj
 0002:00001408       ??_C@_0L@BLPOFLNJ@owner?5dead?$AA@ 00000000640a3408     libcpmt:syserror.obj
 0002:00001418       ??_C@_0BC@CIJDGCDI@permission?5denied?$AA@ 00000000640a3418     libcpmt:syserror.obj
 0002:00001430       ??_C@_0P@FNPOCJBE@protocol?5error?$AA@ 00000000640a3430     libcpmt:syserror.obj
 0002:00001440       ??_C@_0BH@JPPPLHJB@protocol?5not?5supported?$AA@ 00000000640a3440     libcpmt:syserror.obj
 0002:00001458       ??_C@_0BG@EICBIHDP@read?5only?5file?5system?$AA@ 00000000640a3458     libcpmt:syserror.obj
 0002:00001470       ??_C@_0BO@BJBOMOEJ@resource?5deadlock?5would?5occur?$AA@ 00000000640a3470     libcpmt:syserror.obj
 0002:00001490       ??_C@_0BP@LKNGHENJ@resource?5unavailable?5try?5again?$AA@ 00000000640a3490     libcpmt:syserror.obj
 0002:000014b0       ??_C@_0BE@GOIPJJHG@result?5out?5of?5range?$AA@ 00000000640a34b0     libcpmt:syserror.obj
 0002:000014c8       ??_C@_0BG@MPLKFPAE@state?5not?5recoverable?$AA@ 00000000640a34c8     libcpmt:syserror.obj
 0002:000014e0       ??_C@_0P@DIIFGFCG@stream?5timeout?$AA@ 00000000640a34e0     libcpmt:syserror.obj
 0002:000014f0       ??_C@_0P@IPFDMIFL@text?5file?5busy?$AA@ 00000000640a34f0     libcpmt:syserror.obj
 0002:00001500       ??_C@_09KJPPMAOI@timed?5out?$AA@ 00000000640a3500     libcpmt:syserror.obj
 0002:00001510       ??_C@_0BO@HACHBEKI@too?5many?5files?5open?5in?5system?$AA@ 00000000640a3510     libcpmt:syserror.obj
 0002:00001530       ??_C@_0BE@GHAFMPAH@too?5many?5files?5open?$AA@ 00000000640a3530     libcpmt:syserror.obj
 0002:00001548       ??_C@_0P@HCOMKFCC@too?5many?5links?$AA@ 00000000640a3548     libcpmt:syserror.obj
 0002:00001558       ??_C@_0BO@EFGOJEF@too?5many?5symbolic?5link?5levels?$AA@ 00000000640a3558     libcpmt:syserror.obj
 0002:00001578       ??_C@_0BA@KGKGOOJA@value?5too?5large?$AA@ 00000000640a3578     libcpmt:syserror.obj
 0002:00001588       ??_C@_0BE@MIEJDDNH@wrong?5protocol?5type?$AA@ 00000000640a3588     libcpmt:syserror.obj
 0002:000015a0       ??_C@_0O@BFJCFAAK@unknown?5error?$AA@ 00000000640a35a0     libcpmt:syserror.obj
 0002:000015e0       ??_7bad_cast@std@@6B@      00000000640a35e0     libcpmt:locale.obj
 0002:000015f8       ??_7?$ctype@_W@std@@6B@    00000000640a35f8     libcpmt:wlocale.obj
 0002:00001678       ??_7?$num_put@_WV?$ostreambuf_iterator@_WU?$char_traits@_W@std@@@std@@@std@@6B@ 00000000640a3678     libcpmt:wlocale.obj
 0002:000016d8       ??_7?$numpunct@_W@std@@6B@ 00000000640a36d8     libcpmt:wlocale.obj
 0002:00001718       ??_C@_01CLKCMJKC@?5?$AA@   00000000640a3718     libcpmt:wlocale.obj
 0002:0000171c       ??_C@_01JOAMLHOP@?9?$AA@   00000000640a371c     libcpmt:wlocale.obj
 0002:00001720       __xmm@80000000000000008000000000000000 00000000640a3720     libcpmt:wlocale.obj
 0002:000017d0       ??_C@_1BK@MGMFAEKH@?$AAk?$AAe?$AAr?$AAn?$AAe?$AAl?$AA3?$AA2?$AA?4?$AAd?$AAl?$AAl?$AA?$AA@ 00000000640a37d0     libcpmt:winapisupp.obj
 0002:000017f0       ??_C@_08KNHFBNJ@FlsAlloc?$AA@ 00000000640a37f0     libcpmt:winapisupp.obj
 0002:00001800       ??_C@_07PEJMOBNF@FlsFree?$AA@ 00000000640a3800     libcpmt:winapisupp.obj
 0002:00001808       ??_C@_0M@GDNOONDI@FlsGetValue?$AA@ 00000000640a3808     libcpmt:winapisupp.obj
 0002:00001818       ??_C@_0M@JCPCPOEF@FlsSetValue?$AA@ 00000000640a3818     libcpmt:winapisupp.obj
 0002:00001828       ??_C@_0BM@HCFOFFN@InitializeCriticalSectionEx?$AA@ 00000000640a3828     libcpmt:winapisupp.obj
 0002:00001848       ??_C@_0BE@GPLMMCMH@InitOnceExecuteOnce?$AA@ 00000000640a3848     libcpmt:winapisupp.obj
 0002:00001860       ??_C@_0P@DLHPPCNH@CreateEventExW?$AA@ 00000000640a3860     libcpmt:winapisupp.obj
 0002:00001870       ??_C@_0BB@MEFPJLHN@CreateSemaphoreW?$AA@ 00000000640a3870     libcpmt:winapisupp.obj
 0002:00001888       ??_C@_0BD@KIEEOEEH@CreateSemaphoreExW?$AA@ 00000000640a3888     libcpmt:winapisupp.obj
 0002:000018a0       ??_C@_0BG@OGFAJCKC@CreateThreadpoolTimer?$AA@ 00000000640a38a0     libcpmt:winapisupp.obj
 0002:000018b8       ??_C@_0BD@LPLEMMDI@SetThreadpoolTimer?$AA@ 00000000640a38b8     libcpmt:winapisupp.obj
 0002:000018d0       ??_C@_0CA@FMNJENH@WaitForThreadpoolTimerCallbacks?$AA@ 00000000640a38d0     libcpmt:winapisupp.obj
 0002:000018f0       ??_C@_0BF@DCFCCNOC@CloseThreadpoolTimer?$AA@ 00000000640a38f0     libcpmt:winapisupp.obj
 0002:00001908       ??_C@_0BF@FLABGKKM@CreateThreadpoolWait?$AA@ 00000000640a3908     libcpmt:winapisupp.obj
 0002:00001920       ??_C@_0BC@MGCOHNA@SetThreadpoolWait?$AA@ 00000000640a3920     libcpmt:winapisupp.obj
 0002:00001938       ??_C@_0BE@OCIOMIMP@CloseThreadpoolWait?$AA@ 00000000640a3938     libcpmt:winapisupp.obj
 0002:00001950       ??_C@_0BJ@LKGHFHBO@FlushProcessWriteBuffers?$AA@ 00000000640a3950     libcpmt:winapisupp.obj
 0002:00001970       ??_C@_0BP@KALKKPMO@FreeLibraryWhenCallbackReturns?$AA@ 00000000640a3970     libcpmt:winapisupp.obj
 0002:00001990       ??_C@_0BK@DFNBACLA@GetCurrentProcessorNumber?$AA@ 00000000640a3990     libcpmt:winapisupp.obj
 0002:000019b0       ??_C@_0BE@FKKLLFLM@CreateSymbolicLinkW?$AA@ 00000000640a39b0     libcpmt:winapisupp.obj
 0002:000019c8       ??_C@_0BE@JOGNEJCI@GetCurrentPackageId?$AA@ 00000000640a39c8     libcpmt:winapisupp.obj
 0002:000019e0       ??_C@_0P@CDHHOHKP@GetTickCount64?$AA@ 00000000640a39e0     libcpmt:winapisupp.obj
 0002:000019f0       ??_C@_0BN@NEEHBBPO@GetFileInformationByHandleEx?$AA@ 00000000640a39f0     libcpmt:winapisupp.obj
 0002:00001a10       ??_C@_0BL@KBBHGKCM@SetFileInformationByHandle?$AA@ 00000000640a3a10     libcpmt:winapisupp.obj
 0002:00001a30       ??_C@_0BP@FPNJPEJC@GetSystemTimePreciseAsFileTime?$AA@ 00000000640a3a30     libcpmt:winapisupp.obj
 0002:00001a50       ??_C@_0BM@HLJJNPAH@InitializeConditionVariable?$AA@ 00000000640a3a50     libcpmt:winapisupp.obj
 0002:00001a70       ??_C@_0BG@BFNILBLN@WakeConditionVariable?$AA@ 00000000640a3a70     libcpmt:winapisupp.obj
 0002:00001a88       ??_C@_0BJ@PGPPEPCC@WakeAllConditionVariable?$AA@ 00000000640a3a88     libcpmt:winapisupp.obj
 0002:00001aa8       ??_C@_0BJ@JEBJOJFJ@SleepConditionVariableCS?$AA@ 00000000640a3aa8     libcpmt:winapisupp.obj
 0002:00001ac8       ??_C@_0BC@MMLHEBPB@InitializeSRWLock?$AA@ 00000000640a3ac8     libcpmt:winapisupp.obj
 0002:00001ae0       ??_C@_0BI@OMNLIJDB@AcquireSRWLockExclusive?$AA@ 00000000640a3ae0     libcpmt:winapisupp.obj
 0002:00001af8       ??_C@_0BL@OGHFEMNA@TryAcquireSRWLockExclusive?$AA@ 00000000640a3af8     libcpmt:winapisupp.obj
 0002:00001b18       ??_C@_0BI@HMIEPCNJ@ReleaseSRWLockExclusive?$AA@ 00000000640a3b18     libcpmt:winapisupp.obj
 0002:00001b30       ??_C@_0BK@LGACAGIC@SleepConditionVariableSRW?$AA@ 00000000640a3b30     libcpmt:winapisupp.obj
 0002:00001b50       ??_C@_0BF@GGPHFPJA@CreateThreadpoolWork?$AA@ 00000000640a3b50     libcpmt:winapisupp.obj
 0002:00001b68       ??_C@_0BF@NHDAIMMO@SubmitThreadpoolWork?$AA@ 00000000640a3b68     libcpmt:winapisupp.obj
 0002:00001b80       ??_C@_0BE@NPHIPNPD@CloseThreadpoolWork?$AA@ 00000000640a3b80     libcpmt:winapisupp.obj
 0002:00001b98       ??_C@_0BA@IHGNDAEB@CompareStringEx?$AA@ 00000000640a3b98     libcpmt:winapisupp.obj
 0002:00001ba8       ??_C@_0BA@ONOKGCMP@GetLocaleInfoEx?$AA@ 00000000640a3ba8     libcpmt:winapisupp.obj
 0002:00001bb8       ??_C@_0O@KKBNKAPF@LCMapStringEx?$AA@ 00000000640a3bb8     libcpmt:winapisupp.obj
 0002:00001bc8       ??_C@_1M@PNMLOJDF@?$AAe?$AAt?$AA?9?$AAe?$AAe?$AA?$AA@ 00000000640a3bc8     libcpmt:winapinls.obj
 0002:00001bd8       ??_C@_1M@GHHLIKEI@?$AAe?$AAu?$AA?9?$AAe?$AAs?$AA?$AA@ 00000000640a3bd8     libcpmt:winapinls.obj
 0002:00001be8       ??_C@_1M@PBNONODE@?$AAf?$AAa?$AA?9?$AAi?$AAr?$AA?$AA@ 00000000640a3be8     libcpmt:winapinls.obj
 0002:00001bf8       ??_C@_1M@JEEHPMIL@?$AAf?$AAi?$AA?9?$AAf?$AAi?$AA?$AA@ 00000000640a3bf8     libcpmt:winapinls.obj
 0002:00001c08       ??_C@_1M@LMDCNDBA@?$AAf?$AAo?$AA?9?$AAf?$AAo?$AA?$AA@ 00000000640a3c08     libcpmt:winapinls.obj
 0002:00001c18       ??_C@_1M@JKEOHLDK@?$AAf?$AAr?$AA?9?$AAb?$AAe?$AA?$AA@ 00000000640a3c18     libcpmt:winapinls.obj
 0002:00001c28       ??_C@_1M@NOHADPMI@?$AAf?$AAr?$AA?9?$AAc?$AAa?$AA?$AA@ 00000000640a3c28     libcpmt:winapinls.obj
 0002:00001c38       ??_C@_1M@KDHIHAEC@?$AAf?$AAr?$AA?9?$AAc?$AAh?$AA?$AA@ 00000000640a3c38     libcpmt:winapinls.obj
 0002:00001c48       ??_C@_1M@MMBBFGAK@?$AAf?$AAr?$AA?9?$AAf?$AAr?$AA?$AA@ 00000000640a3c48     libcpmt:winapinls.obj
 0002:00001c58       ??_C@_1M@PAFNENNF@?$AAf?$AAr?$AA?9?$AAl?$AAu?$AA?$AA@ 00000000640a3c58     libcpmt:winapinls.obj
 0002:00001c68       ??_C@_1M@EOHDJGDD@?$AAf?$AAr?$AA?9?$AAm?$AAc?$AA?$AA@ 00000000640a3c68     libcpmt:winapinls.obj
 0002:00001c78       ??_C@_1M@FAPLLOPF@?$AAg?$AAl?$AA?9?$AAe?$AAs?$AA?$AA@ 00000000640a3c78     libcpmt:winapinls.obj
 0002:00001c88       ??_C@_1M@FOPBFLOO@?$AAg?$AAu?$AA?9?$AAi?$AAn?$AA?$AA@ 00000000640a3c88     libcpmt:winapinls.obj
 0002:00001c98       ??_C@_1M@KBMCINPM@?$AAh?$AAe?$AA?9?$AAi?$AAl?$AA?$AA@ 00000000640a3c98     libcpmt:winapinls.obj
 0002:00001ca8       ??_C@_1M@BBPHKFPJ@?$AAh?$AAi?$AA?9?$AAi?$AAn?$AA?$AA@ 00000000640a3ca8     libcpmt:winapinls.obj
 0002:00001cb8       ??_C@_1M@PMBNDPHD@?$AAh?$AAr?$AA?9?$AAb?$AAa?$AA?$AA@ 00000000640a3cb8     libcpmt:winapinls.obj
 0002:00001cc8       ??_C@_1M@BPCKOEGE@?$AAh?$AAr?$AA?9?$AAh?$AAr?$AA?$AA@ 00000000640a3cc8     libcpmt:winapinls.obj
 0002:00001cd8       ??_C@_1M@GACBMHKE@?$AAh?$AAu?$AA?9?$AAh?$AAu?$AA?$AA@ 00000000640a3cd8     libcpmt:winapinls.obj
 0002:00001ce8       ??_C@_1M@MILPAJJC@?$AAh?$AAy?$AA?9?$AAa?$AAm?$AA?$AA@ 00000000640a3ce8     libcpmt:winapinls.obj
 0002:00001cf8       ??_C@_1M@BABBICEC@?$AAi?$AAd?$AA?9?$AAi?$AAd?$AA?$AA@ 00000000640a3cf8     libcpmt:winapinls.obj
 0002:00001d08       ??_C@_1M@BIKNHHPF@?$AAi?$AAs?$AA?9?$AAi?$AAs?$AA?$AA@ 00000000640a3d08     libcpmt:winapinls.obj
 0002:00001d18       ??_C@_1M@NMPCJPHE@?$AAi?$AAt?$AA?9?$AAc?$AAh?$AA?$AA@ 00000000640a3d18     libcpmt:winapinls.obj
 0002:00001d28       ??_C@_1M@GHKGFEDF@?$AAi?$AAt?$AA?9?$AAi?$AAt?$AA?$AA@ 00000000640a3d28     libcpmt:winapinls.obj
 0002:00001d38       ??_C@_1M@NIEJCJJA@?$AAj?$AAa?$AA?9?$AAj?$AAp?$AA?$AA@ 00000000640a3d38     libcpmt:winapinls.obj
 0002:00001d48       ??_C@_1M@JILFNBIM@?$AAk?$AAa?$AA?9?$AAg?$AAe?$AA?$AA@ 00000000640a3d48     libcpmt:winapinls.obj
 0002:00001d58       ??_C@_1M@PACPMGPH@?$AAk?$AAk?$AA?9?$AAk?$AAz?$AA?$AA@ 00000000640a3d58     libcpmt:winapinls.obj
 0002:00001d68       ??_C@_1M@IELFGMHA@?$AAk?$AAn?$AA?9?$AAi?$AAn?$AA?$AA@ 00000000640a3d68     libcpmt:winapinls.obj
 0002:00001d78       ??_C@_1M@DMHAEOGC@?$AAk?$AAo?$AA?9?$AAk?$AAr?$AA?$AA@ 00000000640a3d78     libcpmt:winapinls.obj
 0002:00001d88       ??_C@_1O@IBBJHCH@?$AAk?$AAo?$AAk?$AA?9?$AAi?$AAn?$AA?$AA@ 00000000640a3d88     libcpmt:winapinls.obj
 0002:00001d98       ??_C@_1M@HBAHBIGA@?$AAk?$AAy?$AA?9?$AAk?$AAg?$AA?$AA@ 00000000640a3d98     libcpmt:winapinls.obj
 0002:00001da8       ??_C@_1M@KPMILCJG@?$AAl?$AAt?$AA?9?$AAl?$AAt?$AA?$AA@ 00000000640a3da8     libcpmt:winapinls.obj
 0002:00001db8       ??_C@_1M@BDEKKCA@?$AAl?$AAv?$AA?9?$AAl?$AAv?$AA?$AA@ 00000000640a3db8     libcpmt:winapinls.obj
 0002:00001dc8       ??_C@_1M@ELCKCCJJ@?$AAm?$AAi?$AA?9?$AAn?$AAz?$AA?$AA@ 00000000640a3dc8     libcpmt:winapinls.obj
 0002:00001dd8       ??_C@_1M@CBOOLAPA@?$AAm?$AAk?$AA?9?$AAm?$AAk?$AA?$AA@ 00000000640a3dd8     libcpmt:winapinls.obj
 0002:00001de8       ??_C@_1M@GPHNBJKN@?$AAm?$AAl?$AA?9?$AAi?$AAn?$AA?$AA@ 00000000640a3de8     libcpmt:winapinls.obj
 0002:00001df8       ??_C@_1M@PABJILIG@?$AAm?$AAn?$AA?9?$AAm?$AAn?$AA?$AA@ 00000000640a3df8     libcpmt:winapinls.obj
 0002:00001e08       ??_C@_1M@FGBKKIPG@?$AAm?$AAr?$AA?9?$AAi?$AAn?$AA?$AA@ 00000000640a3e08     libcpmt:winapinls.obj
 0002:00001e18       ??_C@_1M@NDBPDDAL@?$AAm?$AAs?$AA?9?$AAb?$AAn?$AA?$AA@ 00000000640a3e18     libcpmt:winapinls.obj
 0002:00001e28       ??_C@_1M@OPIHOOPI@?$AAm?$AAs?$AA?9?$AAm?$AAy?$AA?$AA@ 00000000640a3e28     libcpmt:winapinls.obj
 0002:00001e38       ??_C@_1M@PPDBCNFM@?$AAm?$AAt?$AA?9?$AAm?$AAt?$AA?$AA@ 00000000640a3e38     libcpmt:winapinls.obj
 0002:00001e48       ??_C@_1M@KDJDKMDD@?$AAn?$AAb?$AA?9?$AAn?$AAo?$AA?$AA@ 00000000640a3e48     libcpmt:winapinls.obj
 0002:00001e58       ??_C@_1M@KFCFLMJP@?$AAn?$AAl?$AA?9?$AAb?$AAe?$AA?$AA@ 00000000640a3e58     libcpmt:winapinls.obj
 0002:00001e68       ??_C@_1M@KPOPDDGO@?$AAn?$AAl?$AA?9?$AAn?$AAl?$AA?$AA@ 00000000640a3e68     libcpmt:winapinls.obj
 0002:00001e78       ??_C@_1M@LJKPEMLN@?$AAn?$AAn?$AA?9?$AAn?$AAo?$AA?$AA@ 00000000640a3e78     libcpmt:winapinls.obj
 0002:00001e88       ??_C@_1M@BDGHHBFL@?$AAn?$AAs?$AA?9?$AAz?$AAa?$AA?$AA@ 00000000640a3e88     libcpmt:winapinls.obj
 0002:00001e98       ??_C@_1M@IDEHOAP@?$AAp?$AAa?$AA?9?$AAi?$AAn?$AA?$AA@ 00000000640a3e98     libcpmt:winapinls.obj
 0002:00001ea8       ??_C@_1M@HDBKGOGH@?$AAp?$AAl?$AA?9?$AAp?$AAl?$AA?$AA@ 00000000640a3ea8     libcpmt:winapinls.obj
 0002:00001eb8       ??_C@_1M@LJLLCMEH@?$AAp?$AAt?$AA?9?$AAb?$AAr?$AA?$AA@ 00000000640a3eb8     libcpmt:winapinls.obj
 0002:00001ec8       ??_C@_1M@NCMONAAL@?$AAp?$AAt?$AA?9?$AAp?$AAt?$AA?$AA@ 00000000640a3ec8     libcpmt:winapinls.obj
 0002:00001ed8       ??_C@_1O@EAKMAJDN@?$AAq?$AAu?$AAz?$AA?9?$AAb?$AAo?$AA?$AA@ 00000000640a3ed8     libcpmt:winapinls.obj
 0002:00001ee8       ??_C@_1O@BHHPIGDN@?$AAq?$AAu?$AAz?$AA?9?$AAe?$AAc?$AA?$AA@ 00000000640a3ee8     libcpmt:winapinls.obj
 0002:00001ef8       ??_C@_1O@GBAPEKMJ@?$AAq?$AAu?$AAz?$AA?9?$AAp?$AAe?$AA?$AA@ 00000000640a3ef8     libcpmt:winapinls.obj
 0002:00001f08       ??_C@_1M@CLGLEFBO@?$AAr?$AAo?$AA?9?$AAr?$AAo?$AA?$AA@ 00000000640a3f08     libcpmt:winapinls.obj
 0002:00001f18       ??_C@_1M@CEEDODME@?$AAr?$AAu?$AA?9?$AAr?$AAu?$AA?$AA@ 00000000640a3f18     libcpmt:winapinls.obj
 0002:00001f28       ??_C@_1M@HPKKKMPP@?$AAs?$AAa?$AA?9?$AAi?$AAn?$AA?$AA@ 00000000640a3f28     libcpmt:winapinls.obj
 0002:00001f38       ??_C@_1M@BKMAIGOJ@?$AAs?$AAe?$AA?9?$AAf?$AAi?$AA?$AA@ 00000000640a3f38     libcpmt:winapinls.obj
 0002:00001f48       ??_C@_1M@NDPIFLFI@?$AAs?$AAe?$AA?9?$AAn?$AAo?$AA?$AA@ 00000000640a3f48     libcpmt:winapinls.obj
 0002:00001f58       ??_C@_1M@DANKKHJ@?$AAs?$AAe?$AA?9?$AAs?$AAe?$AA?$AA@ 00000000640a3f58     libcpmt:winapinls.obj
 0002:00001f68       ??_C@_1M@PNBLONPJ@?$AAs?$AAk?$AA?9?$AAs?$AAk?$AA?$AA@ 00000000640a3f68     libcpmt:winapinls.obj
 0002:00001f78       ??_C@_1M@LFMODOAL@?$AAs?$AAl?$AA?9?$AAs?$AAi?$AA?$AA@ 00000000640a3f78     libcpmt:winapinls.obj
 0002:00001f88       ??_C@_1O@DFKOMPG@?$AAs?$AAm?$AAa?$AA?9?$AAn?$AAo?$AA?$AA@ 00000000640a3f88     libcpmt:winapinls.obj
 0002:00001f98       ??_C@_1O@NDKPBNNH@?$AAs?$AAm?$AAa?$AA?9?$AAs?$AAe?$AA?$AA@ 00000000640a3f98     libcpmt:winapinls.obj
 0002:00001fa8       ??_C@_1O@PLLKBHAB@?$AAs?$AAm?$AAj?$AA?9?$AAn?$AAo?$AA?$AA@ 00000000640a3fa8     libcpmt:winapinls.obj
 0002:00001fb8       ??_C@_1O@CLEPOGCA@?$AAs?$AAm?$AAj?$AA?9?$AAs?$AAe?$AA?$AA@ 00000000640a3fb8     libcpmt:winapinls.obj
 0002:00001fc8       ??_C@_1O@DLGJGKMK@?$AAs?$AAm?$AAn?$AA?9?$AAf?$AAi?$AA?$AA@ 00000000640a3fc8     libcpmt:winapinls.obj
 0002:00001fd8       ??_C@_1O@OJDJGAJC@?$AAs?$AAm?$AAs?$AA?9?$AAf?$AAi?$AA?$AA@ 00000000640a3fd8     libcpmt:winapinls.obj
 0002:00001fe8       ??_C@_1M@BOFOGHPB@?$AAs?$AAq?$AA?9?$AAa?$AAl?$AA?$AA@ 00000000640a3fe8     libcpmt:winapinls.obj
 0002:00001ff8       ??_C@_1BG@LJBBIPGB@?$AAs?$AAr?$AA?9?$AAb?$AAa?$AA?9?$AAc?$AAy?$AAr?$AAl?$AA?$AA@ 00000000640a3ff8     libcpmt:winapinls.obj
 0002:00002010       ??_C@_1BG@JLBENFOE@?$AAs?$AAr?$AA?9?$AAb?$AAa?$AA?9?$AAl?$AAa?$AAt?$AAn?$AA?$AA@ 00000000640a4010     libcpmt:winapinls.obj
 0002:00002028       ??_C@_1BG@KODPNHE@?$AAs?$AAr?$AA?9?$AAs?$AAp?$AA?9?$AAc?$AAy?$AAr?$AAl?$AA?$AA@ 00000000640a4028     libcpmt:winapinls.obj
 0002:00002040       ??_C@_1BG@CIOGKHPB@?$AAs?$AAr?$AA?9?$AAs?$AAp?$AA?9?$AAl?$AAa?$AAt?$AAn?$AA?$AA@ 00000000640a4040     libcpmt:winapinls.obj
 0002:00002058       ??_C@_1M@NGFJLMAC@?$AAs?$AAv?$AA?9?$AAf?$AAi?$AA?$AA@ 00000000640a4058     libcpmt:winapinls.obj
 0002:00002068       ??_C@_1M@MPJEJAJC@?$AAs?$AAv?$AA?9?$AAs?$AAe?$AA?$AA@ 00000000640a4068     libcpmt:winapinls.obj
 0002:00002078       ??_C@_1M@MPNDHLFK@?$AAs?$AAw?$AA?9?$AAk?$AAe?$AA?$AA@ 00000000640a4078     libcpmt:winapinls.obj
 0002:00002088       ??_C@_1O@KOHBJJI@?$AAs?$AAy?$AAr?$AA?9?$AAs?$AAy?$AA?$AA@ 00000000640a4088     libcpmt:winapinls.obj
 0002:00002098       ??_C@_1M@LDCEFHA@?$AAt?$AAa?$AA?9?$AAi?$AAn?$AA?$AA@ 00000000640a4098     libcpmt:winapinls.obj
 0002:000020a8       ??_C@_1M@CNJOFAK@?$AAt?$AAe?$AA?9?$AAi?$AAn?$AA?$AA@ 00000000640a40a8     libcpmt:winapinls.obj
 0002:000020b8       ??_C@_1M@GNAECACD@?$AAt?$AAh?$AA?9?$AAt?$AAh?$AA?$AA@ 00000000640a40b8     libcpmt:winapinls.obj
 0002:000020c8       ??_C@_1M@CHBIHOJO@?$AAt?$AAn?$AA?9?$AAz?$AAa?$AA?$AA@ 00000000640a40c8     libcpmt:winapinls.obj
 0002:000020d8       ??_C@_1M@GCCMIGPJ@?$AAt?$AAr?$AA?9?$AAt?$AAr?$AA?$AA@ 00000000640a40d8     libcpmt:winapinls.obj
 0002:000020e8       ??_C@_1M@CELMCNBK@?$AAt?$AAt?$AA?9?$AAr?$AAu?$AA?$AA@ 00000000640a40e8     libcpmt:winapinls.obj
 0002:000020f8       ??_C@_1M@KLMCELGA@?$AAu?$AAk?$AA?9?$AAu?$AAa?$AA?$AA@ 00000000640a40f8     libcpmt:winapinls.obj
 0002:00002108       ??_C@_1M@EPAJJAJF@?$AAu?$AAr?$AA?9?$AAp?$AAk?$AA?$AA@ 00000000640a4108     libcpmt:winapinls.obj
 0002:00002118       ??_C@_1BG@GEGPMCDJ@?$AAu?$AAz?$AA?9?$AAu?$AAz?$AA?9?$AAc?$AAy?$AAr?$AAl?$AA?$AA@ 00000000640a4118     libcpmt:winapinls.obj
 0002:00002130       ??_C@_1BG@EGGKJILM@?$AAu?$AAz?$AA?9?$AAu?$AAz?$AA?9?$AAl?$AAa?$AAt?$AAn?$AA?$AA@ 00000000640a4130     libcpmt:winapinls.obj
 0002:00002148       ??_C@_1M@GFOCLFF@?$AAv?$AAi?$AA?9?$AAv?$AAn?$AA?$AA@ 00000000640a4148     libcpmt:winapinls.obj
 0002:00002158       ??_C@_1M@CPAMEDFI@?$AAx?$AAh?$AA?9?$AAz?$AAa?$AA?$AA@ 00000000640a4158     libcpmt:winapinls.obj
 0002:00002168       ??_C@_1O@EBKIFIGN@?$AAz?$AAh?$AA?9?$AAc?$AAh?$AAs?$AA?$AA@ 00000000640a4168     libcpmt:winapinls.obj
 0002:00002178       ??_C@_1O@NMHPGANE@?$AAz?$AAh?$AA?9?$AAc?$AAh?$AAt?$AA?$AA@ 00000000640a4178     libcpmt:winapinls.obj
 0002:00002188       ??_C@_1M@LPINJOMC@?$AAz?$AAh?$AA?9?$AAc?$AAn?$AA?$AA@ 00000000640a4188     libcpmt:winapinls.obj
 0002:00002198       ??_C@_1M@OCJEJODD@?$AAz?$AAh?$AA?9?$AAh?$AAk?$AA?$AA@ 00000000640a4198     libcpmt:winapinls.obj
 0002:000021a8       ??_C@_1M@DNDLJINH@?$AAz?$AAh?$AA?9?$AAm?$AAo?$AA?$AA@ 00000000640a41a8     libcpmt:winapinls.obj
 0002:000021b8       ??_C@_1M@MBFDNDND@?$AAz?$AAh?$AA?9?$AAs?$AAg?$AA?$AA@ 00000000640a41b8     libcpmt:winapinls.obj
 0002:000021c8       ??_C@_1M@IMEPLEPE@?$AAz?$AAh?$AA?9?$AAt?$AAw?$AA?$AA@ 00000000640a41c8     libcpmt:winapinls.obj
 0002:000021d8       ??_C@_1M@BBGHNHJP@?$AAz?$AAu?$AA?9?$AAz?$AAa?$AA?$AA@ 00000000640a41d8     libcpmt:winapinls.obj
 0002:00003e70       ??_C@_15EMKDOKLE@?$AAa?$AAr?$AA?$AA@ 00000000640a5e70     libcpmt:winapinls.obj
 0002:00003e78       ??_C@_15KNPADPLH@?$AAb?$AAg?$AA?$AA@ 00000000640a5e78     libcpmt:winapinls.obj
 0002:00003e80       ??_C@_15EDMHLDMO@?$AAc?$AAa?$AA?$AA@ 00000000640a5e80     libcpmt:winapinls.obj
 0002:00003e88       ??_C@_1O@BPEAJADD@?$AAz?$AAh?$AA?9?$AAC?$AAH?$AAS?$AA?$AA@ 00000000640a5e88     libcpmt:winapinls.obj
 0002:00003e98       ??_C@_15LJNHCMNK@?$AAc?$AAs?$AA?$AA@ 00000000640a5e98     libcpmt:winapinls.obj
 0002:00003ea0       ??_C@_15NBKABECB@?$AAd?$AAe?$AA?$AA@ 00000000640a5ea0     libcpmt:winapinls.obj
 0002:00003ea8       ??_C@_15GHPEIIAO@?$AAe?$AAl?$AA?$AA@ 00000000640a5ea8     libcpmt:winapinls.obj
 0002:00003eb0       ??_C@_15MNPNEAIF@?$AAe?$AAn?$AA?$AA@ 00000000640a5eb0     libcpmt:winapinls.obj
 0002:00003eb8       ??_C@_15GPIOMPMH@?$AAe?$AAs?$AA?$AA@ 00000000640a5eb8     libcpmt:winapinls.obj
 0002:00003ec0       ??_C@_15NGLOAKJC@?$AAf?$AAi?$AA?$AA@ 00000000640a5ec0     libcpmt:winapinls.obj
 0002:00003ec8       ??_C@_15FBKGNKAM@?$AAf?$AAr?$AA?$AA@ 00000000640a5ec8     libcpmt:winapinls.obj
 0002:00003ed0       ??_C@_15PGHLIDMF@?$AAh?$AAu?$AA?$AA@ 00000000640a5ed0     libcpmt:winapinls.obj
 0002:00003ed8       ??_C@_15BIEMAPLM@?$AAi?$AAs?$AA?$AA@ 00000000640a5ed8     libcpmt:winapinls.obj
 0002:00003ee0       ??_C@_15IFJLDHAF@?$AAi?$AAt?$AA?$AA@ 00000000640a5ee0     libcpmt:winapinls.obj
 0002:00003ee8       ??_C@_15GEMIOCAG@?$AAj?$AAa?$AA?$AA@ 00000000640a5ee8     libcpmt:winapinls.obj
 0002:00003ef0       ??_C@_15EPELEGJA@?$AAk?$AAo?$AA?$AA@ 00000000640a5ef0     libcpmt:winapinls.obj
 0002:00003ef8       ??_C@_15NDDHIMN@?$AAn?$AAl?$AA?$AA@ 00000000640a5ef8     libcpmt:winapinls.obj
 0002:00003f00       ??_C@_15DEOPBLCG@?$AAp?$AAl?$AA?$AA@ 00000000640a5f00     libcpmt:winapinls.obj
 0002:00003f08       ??_C@_15KBECGEFG@?$AAp?$AAt?$AA?$AA@ 00000000640a5f08     libcpmt:winapinls.obj
 0002:00003f10       ??_C@_15GLJCBFMD@?$AAr?$AAo?$AA?$AA@ 00000000640a5f10     libcpmt:winapinls.obj
 0002:00003f18       ??_C@_15GLKMLLHM@?$AAh?$AAr?$AA?$AA@ 00000000640a5f18     libcpmt:winapinls.obj
 0002:00003f20       ??_C@_15CPKMFBDB@?$AAs?$AAk?$AA?$AA@ 00000000640a5f20     libcpmt:winapinls.obj
 0002:00003f28       ??_C@_15BAAIOGMK@?$AAs?$AAq?$AA?$AA@ 00000000640a5f28     libcpmt:winapinls.obj
 0002:00003f30       ??_C@_15INNPNOHD@?$AAs?$AAv?$AA?$AA@ 00000000640a5f30     libcpmt:winapinls.obj
 0002:00003f38       ??_C@_15CABMMOGH@?$AAt?$AAh?$AA?$AA@ 00000000640a5f38     libcpmt:winapinls.obj
 0002:00003f40       ??_C@_15BPLIHJJM@?$AAt?$AAr?$AA?$AA@ 00000000640a5f40     libcpmt:winapinls.obj
 0002:00003f48       ??_C@_15NEOEKKDJ@?$AAu?$AAr?$AA?$AA@ 00000000640a5f48     libcpmt:winapinls.obj
 0002:00003f50       ??_C@_15NFICGAJK@?$AAi?$AAd?$AA?$AA@ 00000000640a5f50     libcpmt:winapinls.obj
 0002:00003f58       ??_C@_15PJPFLCCM@?$AAu?$AAk?$AA?$AA@ 00000000640a5f58     libcpmt:winapinls.obj
 0002:00003f60       ??_C@_15HPJPHDM@?$AAb?$AAe?$AA?$AA@ 00000000640a5f60     libcpmt:winapinls.obj
 0002:00003f68       ??_C@_15LCHLGJII@?$AAs?$AAl?$AA?$AA@ 00000000640a5f68     libcpmt:winapinls.obj
 0002:00003f70       ??_C@_15PCFJPHHO@?$AAe?$AAt?$AA?$AA@ 00000000640a5f70     libcpmt:winapinls.obj
 0002:00003f78       ??_C@_15HPFPGODN@?$AAl?$AAv?$AA?$AA@ 00000000640a5f78     libcpmt:winapinls.obj
 0002:00003f80       ??_C@_15NFFGKGLG@?$AAl?$AAt?$AA?$AA@ 00000000640a5f80     libcpmt:winapinls.obj
 0002:00003f88       ??_C@_15BDAKCCHN@?$AAf?$AAa?$AA?$AA@ 00000000640a5f88     libcpmt:winapinls.obj
 0002:00003f90       ??_C@_15NFGIAIAJ@?$AAv?$AAi?$AA?$AA@ 00000000640a5f90     libcpmt:winapinls.obj
 0002:00003f98       ??_C@_15LMKNDMHN@?$AAh?$AAy?$AA?$AA@ 00000000640a5f98     libcpmt:winapinls.obj
 0002:00003fa0       ??_C@_15IJBHMCFL@?$AAa?$AAz?$AA?$AA@ 00000000640a5fa0     libcpmt:winapinls.obj
 0002:00003fa8       ??_C@_15EKOFJABL@?$AAe?$AAu?$AA?$AA@ 00000000640a5fa8     libcpmt:winapinls.obj
 0002:00003fb0       ??_C@_15BGHADCNK@?$AAm?$AAk?$AA?$AA@ 00000000640a5fb0     libcpmt:winapinls.obj
 0002:00003fb8       ??_C@_15JDNICKHM@?$AAa?$AAf?$AA?$AA@ 00000000640a5fb8     libcpmt:winapinls.obj
 0002:00003fc0       ??_C@_15KPJEDBKD@?$AAk?$AAa?$AA?$AA@ 00000000640a5fc0     libcpmt:winapinls.obj
 0002:00003fc8       ??_C@_15PDNFFFEO@?$AAf?$AAo?$AA?$AA@ 00000000640a5fc8     libcpmt:winapinls.obj
 0002:00003fd0       ??_C@_15OMLEGLOC@?$AAh?$AAi?$AA?$AA@ 00000000640a5fd0     libcpmt:winapinls.obj
 0002:00003fd8       ??_C@_15IDNNENKK@?$AAm?$AAs?$AA?$AA@ 00000000640a5fd8     libcpmt:winapinls.obj
 0002:00003fe0       ??_C@_15MACJNBMH@?$AAk?$AAk?$AA?$AA@ 00000000640a5fe0     libcpmt:winapinls.obj
 0002:00003fe8       ??_C@_15DKDJEOND@?$AAk?$AAy?$AA?$AA@ 00000000640a5fe8     libcpmt:winapinls.obj
 0002:00003ff0       ??_C@_15DFGDLJBG@?$AAs?$AAw?$AA?$AA@ 00000000640a5ff0     libcpmt:winapinls.obj
 0002:00003ff8       ??_C@_15BBFAICNG@?$AAu?$AAz?$AA?$AA@ 00000000640a5ff8     libcpmt:winapinls.obj
 0002:00004000       ??_C@_15DKNDCGEA@?$AAt?$AAt?$AA?$AA@ 00000000640a6000     libcpmt:winapinls.obj
 0002:00004008       ??_C@_15MGIFMDPL@?$AAp?$AAa?$AA?$AA@ 00000000640a6008     libcpmt:winapinls.obj
 0002:00004010       ??_C@_15HCNDBBA@?$AAg?$AAu?$AA?$AA@ 00000000640a6010     libcpmt:winapinls.obj
 0002:00004018       ??_C@_15FNBEIBON@?$AAt?$AAa?$AA?$AA@ 00000000640a6018     libcpmt:winapinls.obj
 0002:00004020       ??_C@_15NCHGBGLK@?$AAt?$AAe?$AA?$AA@ 00000000640a6020     libcpmt:winapinls.obj
 0002:00004028       ??_C@_15PHPHCBPF@?$AAk?$AAn?$AA?$AA@ 00000000640a6028     libcpmt:winapinls.obj
 0002:00004030       ??_C@_15DLGBCKMP@?$AAm?$AAr?$AA?$AA@ 00000000640a6030     libcpmt:winapinls.obj
 0002:00004038       ??_C@_15EABBLBFF@?$AAs?$AAa?$AA?$AA@ 00000000640a6038     libcpmt:winapinls.obj
 0002:00004040       ??_C@_15CBKOMCOI@?$AAm?$AAn?$AA?$AA@ 00000000640a6040     libcpmt:winapinls.obj
 0002:00004048       ??_C@_15CKDMCJAF@?$AAg?$AAl?$AA?$AA@ 00000000640a6048     libcpmt:winapinls.obj
 0002:00004050       ??_C@_17CNJFBPG@?$AAk?$AAo?$AAk?$AA?$AA@ 00000000640a6050     libcpmt:winapinls.obj
 0002:00004058       ??_C@_17FFBJICPL@?$AAs?$AAy?$AAr?$AA?$AA@ 00000000640a6058     libcpmt:winapinls.obj
 0002:00004060       ??_C@_17KPNDCPAF@?$AAd?$AAi?$AAv?$AA?$AA@ 00000000640a6060     libcpmt:winapinls.obj
 0002:00004068       ??_C@_1M@OKAHONE@?$AAa?$AAr?$AA?9?$AAS?$AAA?$AA?$AA@ 00000000640a6068     libcpmt:winapinls.obj
 0002:00004078       ??_C@_1M@FFFIGIGK@?$AAb?$AAg?$AA?9?$AAB?$AAG?$AA?$AA@ 00000000640a6078     libcpmt:winapinls.obj
 0002:00004088       ??_C@_1M@BJNKEDC@?$AAc?$AAa?$AA?9?$AAE?$AAS?$AA?$AA@ 00000000640a6088     libcpmt:winapinls.obj
 0002:00004098       ??_C@_1M@CLNBBOPM@?$AAz?$AAh?$AA?9?$AAT?$AAW?$AA?$AA@ 00000000640a6098     libcpmt:winapinls.obj
 0002:000040a8       ??_C@_1M@IJJHFJHA@?$AAc?$AAs?$AA?9?$AAC?$AAZ?$AA?$AA@ 00000000640a60a8     libcpmt:winapinls.obj
 0002:000040b8       ??_C@_1M@CLPEOBGI@?$AAd?$AAa?$AA?9?$AAD?$AAK?$AA?$AA@ 00000000640a60b8     libcpmt:winapinls.obj
 0002:000040c8       ??_C@_1M@MCMADGCB@?$AAd?$AAe?$AA?9?$AAD?$AAE?$AA?$AA@ 00000000640a60c8     libcpmt:winapinls.obj
 0002:000040d8       ??_C@_1M@OOCKEMAM@?$AAe?$AAl?$AA?9?$AAG?$AAR?$AA?$AA@ 00000000640a60d8     libcpmt:winapinls.obj
 0002:000040e8       ??_C@_1M@BMHNFIME@?$AAe?$AAn?$AA?9?$AAU?$AAS?$AA?$AA@ 00000000640a60e8     libcpmt:winapinls.obj
 0002:000040f8       ??_C@_1M@DDNJFGID@?$AAf?$AAi?$AA?9?$AAF?$AAI?$AA?$AA@ 00000000640a60f8     libcpmt:winapinls.obj
 0002:00004108       ??_C@_1M@GLIPPMAC@?$AAf?$AAr?$AA?9?$AAF?$AAR?$AA?$AA@ 00000000640a6108     libcpmt:winapinls.obj
 0002:00004118       ??_C@_1M@GFMCHPE@?$AAh?$AAe?$AA?9?$AAI?$AAL?$AA?$AA@ 00000000640a6118     libcpmt:winapinls.obj
 0002:00004128       ??_C@_1M@MHLPGNKM@?$AAh?$AAu?$AA?9?$AAH?$AAU?$AA?$AA@ 00000000640a6128     libcpmt:winapinls.obj
 0002:00004138       ??_C@_1M@LPDDNNPN@?$AAi?$AAs?$AA?9?$AAI?$AAS?$AA?$AA@ 00000000640a6138     libcpmt:winapinls.obj
 0002:00004148       ??_C@_1M@MADIPODN@?$AAi?$AAt?$AA?9?$AAI?$AAT?$AA?$AA@ 00000000640a6148     libcpmt:winapinls.obj
 0002:00004158       ??_C@_1M@HPNHIDJI@?$AAj?$AAa?$AA?9?$AAJ?$AAP?$AA?$AA@ 00000000640a6158     libcpmt:winapinls.obj
 0002:00004168       ??_C@_1M@JLOOOEGK@?$AAk?$AAo?$AA?9?$AAK?$AAR?$AA?$AA@ 00000000640a6168     libcpmt:winapinls.obj
 0002:00004178       ??_C@_1M@IHBJJGG@?$AAn?$AAl?$AA?9?$AAN?$AAL?$AA?$AA@ 00000000640a6178     libcpmt:winapinls.obj
 0002:00004188       ??_C@_1M@EANAGDL@?$AAn?$AAb?$AA?9?$AAN?$AAO?$AA?$AA@ 00000000640a6188     libcpmt:winapinls.obj
 0002:00004198       ??_C@_1M@NEIEMEGP@?$AAp?$AAl?$AA?9?$AAP?$AAL?$AA?$AA@ 00000000640a6198     libcpmt:winapinls.obj
 0002:000041a8       ??_C@_1M@BOCFIGEP@?$AAp?$AAt?$AA?9?$AAB?$AAR?$AA?$AA@ 00000000640a61a8     libcpmt:winapinls.obj
 0002:000041b8       ??_C@_1M@IMPFOPBG@?$AAr?$AAo?$AA?9?$AAR?$AAO?$AA?$AA@ 00000000640a61b8     libcpmt:winapinls.obj
 0002:000041c8       ??_C@_1M@IDNNEJMM@?$AAr?$AAu?$AA?9?$AAR?$AAU?$AA?$AA@ 00000000640a61c8     libcpmt:winapinls.obj
 0002:000041d8       ??_C@_1M@LILEEOGM@?$AAh?$AAr?$AA?9?$AAH?$AAR?$AA?$AA@ 00000000640a61d8     libcpmt:winapinls.obj
 0002:000041e8       ??_C@_1M@FKIFEHPB@?$AAs?$AAk?$AA?9?$AAS?$AAK?$AA?$AA@ 00000000640a61e8     libcpmt:winapinls.obj
 0002:000041f8       ??_C@_1M@LJMAMNPJ@?$AAs?$AAq?$AA?9?$AAA?$AAL?$AA?$AA@ 00000000640a61f8     libcpmt:winapinls.obj
 0002:00004208       ??_C@_1M@GIAKDKJK@?$AAs?$AAv?$AA?9?$AAS?$AAE?$AA?$AA@ 00000000640a6208     libcpmt:winapinls.obj
 0002:00004218       ??_C@_1M@MKJKIKCL@?$AAt?$AAh?$AA?9?$AAT?$AAH?$AA?$AA@ 00000000640a6218     libcpmt:winapinls.obj
 0002:00004228       ??_C@_1M@MFLCCMPB@?$AAt?$AAr?$AA?9?$AAT?$AAR?$AA?$AA@ 00000000640a6228     libcpmt:winapinls.obj
 0002:00004238       ??_C@_1M@OIJHDKJN@?$AAu?$AAr?$AA?9?$AAP?$AAK?$AA?$AA@ 00000000640a6238     libcpmt:winapinls.obj
 0002:00004248       ??_C@_1M@LHIPCIEK@?$AAi?$AAd?$AA?9?$AAI?$AAD?$AA?$AA@ 00000000640a6248     libcpmt:winapinls.obj
 0002:00004258       ??_C@_1M@MFMOBGI@?$AAu?$AAk?$AA?9?$AAU?$AAA?$AA?$AA@ 00000000640a6258     libcpmt:winapinls.obj
 0002:00004268       ??_C@_1M@OBGLJIPL@?$AAb?$AAe?$AA?9?$AAB?$AAY?$AA?$AA@ 00000000640a6268     libcpmt:winapinls.obj
 0002:00004278       ??_C@_1M@BCFAJEAD@?$AAs?$AAl?$AA?9?$AAS?$AAI?$AA?$AA@ 00000000640a6278     libcpmt:winapinls.obj
 0002:00004288       ??_C@_1M@FKFFEDDN@?$AAe?$AAt?$AA?9?$AAE?$AAE?$AA?$AA@ 00000000640a6288     libcpmt:winapinls.obj
 0002:00004298       ??_C@_1M@KGKKAACI@?$AAl?$AAv?$AA?9?$AAL?$AAV?$AA?$AA@ 00000000640a6298     libcpmt:winapinls.obj
 0002:000042a8       ??_C@_1M@IFGBIJO@?$AAl?$AAt?$AA?9?$AAL?$AAT?$AA?$AA@ 00000000640a62a8     libcpmt:winapinls.obj
 0002:000042b8       ??_C@_1M@FGEAHEDM@?$AAf?$AAa?$AA?9?$AAI?$AAR?$AA?$AA@ 00000000640a62b8     libcpmt:winapinls.obj
 0002:000042c8       ??_C@_1M@KBMAIBFN@?$AAv?$AAi?$AA?9?$AAV?$AAN?$AA?$AA@ 00000000640a62c8     libcpmt:winapinls.obj
 0002:000042d8       ??_C@_1M@GPCBKDJK@?$AAh?$AAy?$AA?9?$AAA?$AAM?$AA?$AA@ 00000000640a62d8     libcpmt:winapinls.obj
 0002:000042e8       ??_C@_1BG@BECMDDJB@?$AAa?$AAz?$AA?9?$AAA?$AAZ?$AA?9?$AAL?$AAa?$AAt?$AAn?$AA?$AA@ 00000000640a62e8     libcpmt:winapinls.obj
 0002:00004300       ??_C@_1M@MAOFCAEA@?$AAe?$AAu?$AA?9?$AAE?$AAS?$AA?$AA@ 00000000640a6300     libcpmt:winapinls.obj
 0002:00004310       ??_C@_1M@IGHABKPI@?$AAm?$AAk?$AA?9?$AAM?$AAK?$AA?$AA@ 00000000640a6310     libcpmt:winapinls.obj
 0002:00004320       ??_C@_1M@IAIGNEJG@?$AAt?$AAn?$AA?9?$AAZ?$AAA?$AA?$AA@ 00000000640a6320     libcpmt:winapinls.obj
 0002:00004330       ??_C@_1M@IIJCOJFA@?$AAx?$AAh?$AA?9?$AAZ?$AAA?$AA?$AA@ 00000000640a6330     libcpmt:winapinls.obj
 0002:00004340       ??_C@_1M@LGPJHNJH@?$AAz?$AAu?$AA?9?$AAZ?$AAA?$AA?$AA@ 00000000640a6340     libcpmt:winapinls.obj
 0002:00004350       ??_C@_1M@HOKAOIO@?$AAa?$AAf?$AA?9?$AAZ?$AAA?$AA?$AA@ 00000000640a6350     libcpmt:winapinls.obj
 0002:00004360       ??_C@_1M@DPCLHLIE@?$AAk?$AAa?$AA?9?$AAG?$AAE?$AA?$AA@ 00000000640a6360     libcpmt:winapinls.obj
 0002:00004370       ??_C@_1M@BLKMHJBI@?$AAf?$AAo?$AA?9?$AAF?$AAO?$AA?$AA@ 00000000640a6370     libcpmt:winapinls.obj
 0002:00004380       ??_C@_1M@LGGJAPPB@?$AAh?$AAi?$AA?9?$AAI?$AAN?$AA?$AA@ 00000000640a6380     libcpmt:winapinls.obj
 0002:00004390       ??_C@_1M@FIKPIHFE@?$AAm?$AAt?$AA?9?$AAM?$AAT?$AA?$AA@ 00000000640a6390     libcpmt:winapinls.obj
 0002:000043a0       ??_C@_1M@HEGGPBFA@?$AAs?$AAe?$AA?9?$AAN?$AAO?$AA?$AA@ 00000000640a63a0     libcpmt:winapinls.obj
 0002:000043b0       ??_C@_1M@EIBJEEPA@?$AAm?$AAs?$AA?9?$AAM?$AAY?$AA?$AA@ 00000000640a63b0     libcpmt:winapinls.obj
 0002:000043c0       ??_C@_1M@FHLBGMPP@?$AAk?$AAk?$AA?9?$AAK?$AAZ?$AA?$AA@ 00000000640a63c0     libcpmt:winapinls.obj
 0002:000043d0       ??_C@_1M@NGJJLCGI@?$AAk?$AAy?$AA?9?$AAK?$AAG?$AA?$AA@ 00000000640a63d0     libcpmt:winapinls.obj
 0002:000043e0       ??_C@_1M@GIENNBFC@?$AAs?$AAw?$AA?9?$AAK?$AAE?$AA?$AA@ 00000000640a63e0     libcpmt:winapinls.obj
 0002:000043f0       ??_C@_1BG@NDGMJIMJ@?$AAu?$AAz?$AA?9?$AAU?$AAZ?$AA?9?$AAL?$AAa?$AAt?$AAn?$AA?$AA@ 00000000640a63f0     libcpmt:winapinls.obj
 0002:00004408       ??_C@_1M@IDCCIHBC@?$AAt?$AAt?$AA?9?$AAR?$AAU?$AA?$AA@ 00000000640a6408     libcpmt:winapinls.obj
 0002:00004418       ??_C@_1M@LOICPMOJ@?$AAb?$AAn?$AA?9?$AAI?$AAN?$AA?$AA@ 00000000640a6418     libcpmt:winapinls.obj
 0002:00004428       ??_C@_1M@KPKKNEAH@?$AAp?$AAa?$AA?9?$AAI?$AAN?$AA?$AA@ 00000000640a6428     libcpmt:winapinls.obj
 0002:00004438       ??_C@_1M@PJGPPBOG@?$AAg?$AAu?$AA?9?$AAI?$AAN?$AA?$AA@ 00000000640a6438     libcpmt:winapinls.obj
 0002:00004448       ??_C@_1M@KMKMOPHI@?$AAt?$AAa?$AA?9?$AAI?$AAN?$AA?$AA@ 00000000640a6448     libcpmt:winapinls.obj
 0002:00004458       ??_C@_1M@KFEHEPAC@?$AAt?$AAe?$AA?9?$AAI?$AAN?$AA?$AA@ 00000000640a6458     libcpmt:winapinls.obj
 0002:00004468       ??_C@_1M@CDCLMGHI@?$AAk?$AAn?$AA?9?$AAI?$AAN?$AA?$AA@ 00000000640a6468     libcpmt:winapinls.obj
 0002:00004478       ??_C@_1M@MIODLDKF@?$AAm?$AAl?$AA?9?$AAI?$AAN?$AA?$AA@ 00000000640a6478     libcpmt:winapinls.obj
 0002:00004488       ??_C@_1M@PBIEACPO@?$AAm?$AAr?$AA?9?$AAI?$AAN?$AA?$AA@ 00000000640a6488     libcpmt:winapinls.obj
 0002:00004498       ??_C@_1M@NIDEAGPH@?$AAs?$AAa?$AA?9?$AAI?$AAN?$AA?$AA@ 00000000640a6498     libcpmt:winapinls.obj
 0002:000044a8       ??_C@_1M@FHIHCBIO@?$AAm?$AAn?$AA?9?$AAM?$AAN?$AA?$AA@ 00000000640a64a8     libcpmt:winapinls.obj
 0002:000044b8       ??_C@_1M@JAIJPENP@?$AAc?$AAy?$AA?9?$AAG?$AAB?$AA?$AA@ 00000000640a64b8     libcpmt:winapinls.obj
 0002:000044c8       ??_C@_1M@PHGFBEPN@?$AAg?$AAl?$AA?9?$AAE?$AAS?$AA?$AA@ 00000000640a64c8     libcpmt:winapinls.obj
 0002:000044d8       ??_C@_1O@KPIPDNCP@?$AAk?$AAo?$AAk?$AA?9?$AAI?$AAN?$AA?$AA@ 00000000640a64d8     libcpmt:winapinls.obj
 0002:000044e8       ??_C@_1O@KNHJLDJA@?$AAs?$AAy?$AAr?$AA?9?$AAS?$AAY?$AA?$AA@ 00000000640a64e8     libcpmt:winapinls.obj
 0002:000044f8       ??_C@_1O@MKEKBLAH@?$AAd?$AAi?$AAv?$AA?9?$AAM?$AAV?$AA?$AA@ 00000000640a64f8     libcpmt:winapinls.obj
 0002:00004508       ??_C@_1O@OHDCKDDF@?$AAq?$AAu?$AAz?$AA?9?$AAB?$AAO?$AA?$AA@ 00000000640a6508     libcpmt:winapinls.obj
 0002:00004518       ??_C@_1M@LEPJNLFD@?$AAn?$AAs?$AA?9?$AAZ?$AAA?$AA?$AA@ 00000000640a6518     libcpmt:winapinls.obj
 0002:00004528       ??_C@_1M@OMLEIIJB@?$AAm?$AAi?$AA?9?$AAN?$AAZ?$AA?$AA@ 00000000640a6528     libcpmt:winapinls.obj
 0002:00004538       ??_C@_1M@PMPEAILG@?$AAa?$AAr?$AA?9?$AAI?$AAQ?$AA?$AA@ 00000000640a6538     libcpmt:winapinls.obj
 0002:00004548       ??_C@_1M@BIBDDEMK@?$AAz?$AAh?$AA?9?$AAC?$AAN?$AA?$AA@ 00000000640a6548     libcpmt:winapinls.obj
 0002:00004558       ??_C@_1M@CNKPNOEE@?$AAd?$AAe?$AA?9?$AAC?$AAH?$AA?$AA@ 00000000640a6558     libcpmt:winapinls.obj
 0002:00004568       ??_C@_1M@LKMGMLKO@?$AAe?$AAn?$AA?9?$AAG?$AAB?$AA?$AA@ 00000000640a6568     libcpmt:winapinls.obj
 0002:00004578       ??_C@_1M@PGKJFFGL@?$AAe?$AAs?$AA?9?$AAM?$AAX?$AA?$AA@ 00000000640a6578     libcpmt:winapinls.obj
 0002:00004588       ??_C@_1M@DNNANBDC@?$AAf?$AAr?$AA?9?$AAB?$AAE?$AA?$AA@ 00000000640a6588     libcpmt:winapinls.obj
 0002:00004598       ??_C@_1M@HLGMDFHM@?$AAi?$AAt?$AA?9?$AAC?$AAH?$AA?$AA@ 00000000640a6598     libcpmt:winapinls.obj
 0002:000045a8       ??_C@_1M@CLLBGJH@?$AAn?$AAl?$AA?9?$AAB?$AAE?$AA?$AA@ 00000000640a65a8     libcpmt:winapinls.obj
 0002:000045b8       ??_C@_1M@BODBOGLF@?$AAn?$AAn?$AA?9?$AAN?$AAO?$AA?$AA@ 00000000640a65b8     libcpmt:winapinls.obj
 0002:000045c8       ??_C@_1M@HFFAHKAD@?$AAp?$AAt?$AA?9?$AAP?$AAT?$AA?$AA@ 00000000640a65c8     libcpmt:winapinls.obj
 0002:000045d8       ??_C@_1BG@LNOAKHIE@?$AAs?$AAr?$AA?9?$AAS?$AAP?$AA?9?$AAL?$AAa?$AAt?$AAn?$AA?$AA@ 00000000640a65d8     libcpmt:winapinls.obj
 0002:000045f0       ??_C@_1M@HBMHBGAK@?$AAs?$AAv?$AA?9?$AAF?$AAI?$AA?$AA@ 00000000640a65f0     libcpmt:winapinls.obj
 0002:00004600       ??_C@_1BG@DGCJGJBE@?$AAa?$AAz?$AA?9?$AAA?$AAZ?$AA?9?$AAC?$AAy?$AAr?$AAl?$AA?$AA@ 00000000640a6600     libcpmt:winapinls.obj
 0002:00004618       ??_C@_1M@KEJDAAHB@?$AAs?$AAe?$AA?9?$AAS?$AAE?$AA?$AA@ 00000000640a6618     libcpmt:winapinls.obj
 0002:00004628       ??_C@_1M@HEIBJJAD@?$AAm?$AAs?$AA?9?$AAB?$AAN?$AA?$AA@ 00000000640a6628     libcpmt:winapinls.obj
 0002:00004638       ??_C@_1BG@PBGJMCEM@?$AAu?$AAz?$AA?9?$AAU?$AAZ?$AA?9?$AAC?$AAy?$AAr?$AAl?$AA?$AA@ 00000000640a6638     libcpmt:winapinls.obj
 0002:00004650       ??_C@_1O@LAOBCMDF@?$AAq?$AAu?$AAz?$AA?9?$AAE?$AAC?$AA?$AA@ 00000000640a6650     libcpmt:winapinls.obj
 0002:00004660       ??_C@_1M@POEEMAIO@?$AAa?$AAr?$AA?9?$AAE?$AAG?$AA?$AA@ 00000000640a6660     libcpmt:winapinls.obj
 0002:00004670       ??_C@_1M@EFAKDEDL@?$AAz?$AAh?$AA?9?$AAH?$AAK?$AA?$AA@ 00000000640a6670     libcpmt:winapinls.obj
 0002:00004680       ??_C@_1M@HKKIJHGI@?$AAd?$AAe?$AA?9?$AAA?$AAT?$AA?$AA@ 00000000640a6680     libcpmt:winapinls.obj
 0002:00004690       ??_C@_1M@KBFBEHJF@?$AAe?$AAn?$AA?9?$AAA?$AAU?$AA?$AA@ 00000000640a6690     libcpmt:winapinls.obj
 0002:000046a0       ??_C@_1M@MNPLFAAH@?$AAe?$AAs?$AA?9?$AAE?$AAS?$AA?$AA@ 00000000640a66a0     libcpmt:winapinls.obj
 0002:000046b0       ??_C@_1M@HJOOJFMA@?$AAf?$AAr?$AA?9?$AAC?$AAA?$AA?$AA@ 00000000640a66b0     libcpmt:winapinls.obj
 0002:000046c0       ??_C@_1BG@JPOFPNAB@?$AAs?$AAr?$AA?9?$AAS?$AAP?$AA?9?$AAC?$AAy?$AAr?$AAl?$AA?$AA@ 00000000640a66c0     libcpmt:winapinls.obj
 0002:000046d8       ??_C@_1M@LNFOCMOB@?$AAs?$AAe?$AA?9?$AAF?$AAI?$AA?$AA@ 00000000640a66d8     libcpmt:winapinls.obj
 0002:000046e8       ??_C@_1O@MGJBOAMB@?$AAq?$AAu?$AAz?$AA?9?$AAP?$AAE?$AA?$AA@ 00000000640a66e8     libcpmt:winapinls.obj
 0002:000046f8       ??_C@_1M@GJINLBOK@?$AAa?$AAr?$AA?9?$AAL?$AAY?$AA?$AA@ 00000000640a66f8     libcpmt:winapinls.obj
 0002:00004708       ??_C@_1M@GGMNHJNL@?$AAz?$AAh?$AA?9?$AAS?$AAG?$AA?$AA@ 00000000640a6708     libcpmt:winapinls.obj
 0002:00004718       ??_C@_1M@HOIKODND@?$AAd?$AAe?$AA?9?$AAL?$AAU?$AA?$AA@ 00000000640a6718     libcpmt:winapinls.obj
 0002:00004728       ??_C@_1M@DDOCCGFG@?$AAe?$AAn?$AA?9?$AAC?$AAA?$AA?$AA@ 00000000640a6728     libcpmt:winapinls.obj
 0002:00004738       ??_C@_1M@BNOEMJLF@?$AAe?$AAs?$AA?9?$AAG?$AAT?$AA?$AA@ 00000000640a6738     libcpmt:winapinls.obj
 0002:00004748       ??_C@_1M@EOGNKEK@?$AAf?$AAr?$AA?9?$AAC?$AAH?$AA?$AA@ 00000000640a6748     libcpmt:winapinls.obj
 0002:00004758       ??_C@_1M@FLIDJFHL@?$AAh?$AAr?$AA?9?$AAB?$AAA?$AA?$AA@ 00000000640a6758     libcpmt:winapinls.obj
 0002:00004768       ??_C@_1O@FMCELNAJ@?$AAs?$AAm?$AAj?$AA?9?$AAN?$AAO?$AA?$AA@ 00000000640a6768     libcpmt:winapinls.obj
 0002:00004778       ??_C@_1M@JHGLJMGJ@?$AAa?$AAr?$AA?9?$AAD?$AAZ?$AA?$AA@ 00000000640a6778     libcpmt:winapinls.obj
 0002:00004788       ??_C@_1M@JKKFDCNP@?$AAz?$AAh?$AA?9?$AAM?$AAO?$AA?$AA@ 00000000640a6788     libcpmt:winapinls.obj
 0002:00004798       ??_C@_1M@GEEFALPE@?$AAd?$AAe?$AA?9?$AAL?$AAI?$AA?$AA@ 00000000640a6798     libcpmt:winapinls.obj
 0002:000047a8       ??_C@_1M@IGEOFBG@?$AAe?$AAn?$AA?9?$AAN?$AAZ?$AA?$AA@ 00000000640a67a8     libcpmt:winapinls.obj
 0002:000047b8       ??_C@_1M@KDBONEHP@?$AAe?$AAs?$AA?9?$AAC?$AAR?$AA?$AA@ 00000000640a67b8     libcpmt:winapinls.obj
 0002:000047c8       ??_C@_1M@FHMDOHNN@?$AAf?$AAr?$AA?9?$AAL?$AAU?$AA?$AA@ 00000000640a67c8     libcpmt:winapinls.obj
 0002:000047d8       ??_C@_1BG@NFKKMAFG@?$AAb?$AAs?$AA?9?$AAB?$AAA?$AA?9?$AAL?$AAa?$AAt?$AAn?$AA?$AA@ 00000000640a67d8     libcpmt:winapinls.obj
 0002:000047f0       ??_C@_1O@IMNBEMCI@?$AAs?$AAm?$AAj?$AA?9?$AAS?$AAE?$AA?$AA@ 00000000640a67f0     libcpmt:winapinls.obj
 0002:00004800       ??_C@_1M@DHHMBNDP@?$AAa?$AAr?$AA?9?$AAM?$AAA?$AA?$AA@ 00000000640a6800     libcpmt:winapinls.obj
 0002:00004810       ??_C@_1M@BNBLJCGH@?$AAe?$AAn?$AA?9?$AAI?$AAE?$AA?$AA@ 00000000640a6810     libcpmt:winapinls.obj
 0002:00004820       ??_C@_1M@GEPAFMDL@?$AAe?$AAs?$AA?9?$AAP?$AAA?$AA?$AA@ 00000000640a6820     libcpmt:winapinls.obj
 0002:00004830       ??_C@_1M@OJONDMDL@?$AAf?$AAr?$AA?9?$AAM?$AAC?$AA?$AA@ 00000000640a6830     libcpmt:winapinls.obj
 0002:00004840       ??_C@_1BG@OBCNFJB@?$AAs?$AAr?$AA?9?$AAB?$AAA?$AA?9?$AAL?$AAa?$AAt?$AAn?$AA?$AA@ 00000000640a6840     libcpmt:winapinls.obj
 0002:00004858       ??_C@_1O@KEMEEGPO@?$AAs?$AAm?$AAa?$AA?9?$AAN?$AAO?$AA?$AA@ 00000000640a6858     libcpmt:winapinls.obj
 0002:00004868       ??_C@_1M@ELMGFODK@?$AAa?$AAr?$AA?9?$AAT?$AAN?$AA?$AA@ 00000000640a6868     libcpmt:winapinls.obj
 0002:00004878       ??_C@_1M@BHDLHFAF@?$AAe?$AAn?$AA?9?$AAZ?$AAA?$AA?$AA@ 00000000640a6878     libcpmt:winapinls.obj
 0002:00004888       ??_C@_1M@BMGIGLIF@?$AAe?$AAs?$AA?9?$AAD?$AAO?$AA?$AA@ 00000000640a6888     libcpmt:winapinls.obj
 0002:00004898       ??_C@_1BG@CMBHIPBE@?$AAs?$AAr?$AA?9?$AAB?$AAA?$AA?9?$AAC?$AAy?$AAr?$AAl?$AA?$AA@ 00000000640a6898     libcpmt:winapinls.obj
 0002:000048b0       ??_C@_1O@HEDBLHNP@?$AAs?$AAm?$AAa?$AA?9?$AAS?$AAE?$AA?$AA@ 00000000640a68b0     libcpmt:winapinls.obj
 0002:000048c0       ??_C@_1M@DAGCADIM@?$AAa?$AAr?$AA?9?$AAO?$AAM?$AA?$AA@ 00000000640a68c0     libcpmt:winapinls.obj
 0002:000048d0       ??_C@_1M@FODLMICG@?$AAe?$AAn?$AA?9?$AAJ?$AAM?$AA?$AA@ 00000000640a68d0     libcpmt:winapinls.obj
 0002:000048e0       ??_C@_1M@DNMLCIHB@?$AAe?$AAs?$AA?9?$AAV?$AAE?$AA?$AA@ 00000000640a68e0     libcpmt:winapinls.obj
 0002:000048f0       ??_C@_1O@EOKHMKJK@?$AAs?$AAm?$AAs?$AA?9?$AAF?$AAI?$AA?$AA@ 00000000640a68f0     libcpmt:winapinls.obj
 0002:00004900       ??_C@_1M@CAFJMKOF@?$AAa?$AAr?$AA?9?$AAY?$AAE?$AA?$AA@ 00000000640a6900     libcpmt:winapinls.obj
 0002:00004910       ??_C@_1M@CBFHIJLI@?$AAe?$AAn?$AA?9?$AAC?$AAB?$AA?$AA@ 00000000640a6910     libcpmt:winapinls.obj
 0002:00004920       ??_C@_1M@BGNFLDN@?$AAe?$AAs?$AA?9?$AAC?$AAO?$AA?$AA@ 00000000640a6920     libcpmt:winapinls.obj
 0002:00004930       ??_C@_1O@JMPHMAMC@?$AAs?$AAm?$AAn?$AA?9?$AAF?$AAI?$AA?$AA@ 00000000640a6930     libcpmt:winapinls.obj
 0002:00004940       ??_C@_1M@JLANABKE@?$AAa?$AAr?$AA?9?$AAS?$AAY?$AA?$AA@ 00000000640a6940     libcpmt:winapinls.obj
 0002:00004950       ??_C@_1M@HPKGCFGN@?$AAe?$AAn?$AA?9?$AAB?$AAZ?$AA?$AA@ 00000000640a6950     libcpmt:winapinls.obj
 0002:00004960       ??_C@_1M@OLJCMLGM@?$AAe?$AAs?$AA?9?$AAP?$AAE?$AA?$AA@ 00000000640a6960     libcpmt:winapinls.obj
 0002:00004970       ??_C@_1M@MKKGFKLE@?$AAa?$AAr?$AA?9?$AAJ?$AAO?$AA?$AA@ 00000000640a6970     libcpmt:winapinls.obj
 0002:00004980       ??_C@_1M@EKPGLDNI@?$AAe?$AAn?$AA?9?$AAT?$AAT?$AA?$AA@ 00000000640a6980     libcpmt:winapinls.obj
 0002:00004990       ??_C@_1M@OONGHFHE@?$AAe?$AAs?$AA?9?$AAA?$AAR?$AA?$AA@ 00000000640a6990     libcpmt:winapinls.obj
 0002:000049a0       ??_C@_1M@OOJFGBHE@?$AAa?$AAr?$AA?9?$AAL?$AAB?$AA?$AA@ 00000000640a69a0     libcpmt:winapinls.obj
 0002:000049b0       ??_C@_1M@GCEJHNEG@?$AAe?$AAn?$AA?9?$AAZ?$AAW?$AA?$AA@ 00000000640a69b0     libcpmt:winapinls.obj
 0002:000049c0       ??_C@_1M@JNOCAHJI@?$AAe?$AAs?$AA?9?$AAE?$AAC?$AA?$AA@ 00000000640a69c0     libcpmt:winapinls.obj
 0002:000049d0       ??_C@_1M@JEFHPGGB@?$AAa?$AAr?$AA?9?$AAK?$AAW?$AA?$AA@ 00000000640a69d0     libcpmt:winapinls.obj
 0002:000049e0       ??_C@_1M@MLKIBJOJ@?$AAe?$AAn?$AA?9?$AAP?$AAH?$AA?$AA@ 00000000640a69e0     libcpmt:winapinls.obj
 0002:000049f0       ??_C@_1M@BDNIPEND@?$AAe?$AAs?$AA?9?$AAC?$AAL?$AA?$AA@ 00000000640a69f0     libcpmt:winapinls.obj
 0002:00004a00       ??_C@_1M@MPNMEKBD@?$AAa?$AAr?$AA?9?$AAA?$AAE?$AA?$AA@ 00000000640a6a00     libcpmt:winapinls.obj
 0002:00004a10       ??_C@_1M@KBJALCPI@?$AAe?$AAs?$AA?9?$AAU?$AAY?$AA?$AA@ 00000000640a6a10     libcpmt:winapinls.obj
 0002:00004a20       ??_C@_1M@LLCCOAGA@?$AAa?$AAr?$AA?9?$AAB?$AAH?$AA?$AA@ 00000000640a6a20     libcpmt:winapinls.obj
 0002:00004a30       ??_C@_1M@PBFNCDEL@?$AAe?$AAs?$AA?9?$AAP?$AAY?$AA?$AA@ 00000000640a6a30     libcpmt:winapinls.obj
 0002:00004a40       ??_C@_1M@EDGINPNP@?$AAa?$AAr?$AA?9?$AAQ?$AAA?$AA?$AA@ 00000000640a6a40     libcpmt:winapinls.obj
 0002:00004a50       ??_C@_1M@MKDBIIJI@?$AAe?$AAs?$AA?9?$AAB?$AAO?$AA?$AA@ 00000000640a6a50     libcpmt:winapinls.obj
 0002:00004a60       ??_C@_1M@CPKKEBLD@?$AAe?$AAs?$AA?9?$AAS?$AAV?$AA?$AA@ 00000000640a6a60     libcpmt:winapinls.obj
 0002:00004a70       ??_C@_1M@NDBGMMJL@?$AAe?$AAs?$AA?9?$AAH?$AAN?$AA?$AA@ 00000000640a6a70     libcpmt:winapinls.obj
 0002:00004a80       ??_C@_1M@JIJIBHDP@?$AAe?$AAs?$AA?9?$AAN?$AAI?$AA?$AA@ 00000000640a6a80     libcpmt:winapinls.obj
 0002:00004a90       ??_C@_1M@CGFMKEEK@?$AAe?$AAs?$AA?9?$AAP?$AAR?$AA?$AA@ 00000000640a6a90     libcpmt:winapinls.obj
 0002:00004aa0       ??_C@_1O@ICJHKIIK@?$AAz?$AAh?$AA?9?$AAC?$AAH?$AAT?$AA?$AA@ 00000000640a6aa0     libcpmt:winapinls.obj
 0002:00004ab0       ??_C@_15CLNEJCE@?$AAs?$AAr?$AA?$AA@ 00000000640a6ab0     libcpmt:winapinls.obj
 0002:00004ab8       ??_C@_1M@KAHEKEIG@?$AAa?$AAf?$AA?9?$AAz?$AAa?$AA?$AA@ 00000000640a6ab8     libcpmt:winapinls.obj
 0002:00004ac8       ??_C@_1M@GIECOABL@?$AAa?$AAr?$AA?9?$AAa?$AAe?$AA?$AA@ 00000000640a6ac8     libcpmt:winapinls.obj
 0002:00004ad8       ??_C@_1M@BMLMEKGI@?$AAa?$AAr?$AA?9?$AAb?$AAh?$AA?$AA@ 00000000640a6ad8     libcpmt:winapinls.obj
 0002:00004ae8       ??_C@_1M@DAPFDGGB@?$AAa?$AAr?$AA?9?$AAd?$AAz?$AA?$AA@ 00000000640a6ae8     libcpmt:winapinls.obj
 0002:00004af8       ??_C@_1M@FJNKGKIG@?$AAa?$AAr?$AA?9?$AAe?$AAg?$AA?$AA@ 00000000640a6af8     libcpmt:winapinls.obj
 0002:00004b08       ??_C@_1M@FLGKKCLO@?$AAa?$AAr?$AA?9?$AAi?$AAq?$AA?$AA@ 00000000640a6b08     libcpmt:winapinls.obj
 0002:00004b18       ??_C@_1M@GNDIPALM@?$AAa?$AAr?$AA?9?$AAj?$AAo?$AA?$AA@ 00000000640a6b18     libcpmt:winapinls.obj
 0002:00004b28       ??_C@_1M@DDMJFMGJ@?$AAa?$AAr?$AA?9?$AAk?$AAw?$AA?$AA@ 00000000640a6b28     libcpmt:winapinls.obj
 0002:00004b38       ??_C@_1M@EJALMLHM@?$AAa?$AAr?$AA?9?$AAl?$AAb?$AA?$AA@ 00000000640a6b38     libcpmt:winapinls.obj
 0002:00004b48       ??_C@_1M@MOBDBLOC@?$AAa?$AAr?$AA?9?$AAl?$AAy?$AA?$AA@ 00000000640a6b48     libcpmt:winapinls.obj
 0002:00004b58       ??_C@_1M@JAOCLHDH@?$AAa?$AAr?$AA?9?$AAm?$AAa?$AA?$AA@ 00000000640a6b58     libcpmt:winapinls.obj
 0002:00004b68       ??_C@_1M@JHPMKJIE@?$AAa?$AAr?$AA?9?$AAo?$AAm?$AA?$AA@ 00000000640a6b68     libcpmt:winapinls.obj
 0002:00004b78       ??_C@_1M@OEPGHFNH@?$AAa?$AAr?$AA?9?$AAq?$AAa?$AA?$AA@ 00000000640a6b78     libcpmt:winapinls.obj
 0002:00004b88       ??_C@_1M@KJDONENM@?$AAa?$AAr?$AA?9?$AAs?$AAa?$AA?$AA@ 00000000640a6b88     libcpmt:winapinls.obj
 0002:00004b98       ??_C@_1M@DMJDKLKM@?$AAa?$AAr?$AA?9?$AAs?$AAy?$AA?$AA@ 00000000640a6b98     libcpmt:winapinls.obj
 0002:00004ba8       ??_C@_1M@OMFIPEDC@?$AAa?$AAr?$AA?9?$AAt?$AAn?$AA?$AA@ 00000000640a6ba8     libcpmt:winapinls.obj
 0002:00004bb8       ??_C@_1M@IHMHGAON@?$AAa?$AAr?$AA?9?$AAy?$AAe?$AA?$AA@ 00000000640a6bb8     libcpmt:winapinls.obj
 0002:00004bc8       ??_C@_1BG@KDCPGJGB@?$AAa?$AAz?$AA?9?$AAa?$AAz?$AA?9?$AAc?$AAy?$AAr?$AAl?$AA?$AA@ 00000000640a6bc8     libcpmt:winapinls.obj
 0002:00004be0       ??_C@_1BG@IBCKDDOE@?$AAa?$AAz?$AA?9?$AAa?$AAz?$AA?9?$AAl?$AAa?$AAt?$AAn?$AA?$AA@ 00000000640a6be0     libcpmt:winapinls.obj
 0002:00004bf8       ??_C@_1M@EGPFDCPD@?$AAb?$AAe?$AA?9?$AAb?$AAy?$AA?$AA@ 00000000640a6bf8     libcpmt:winapinls.obj
 0002:00004c08       ??_C@_1M@PCMGMCGC@?$AAb?$AAg?$AA?9?$AAb?$AAg?$AA?$AA@ 00000000640a6c08     libcpmt:winapinls.obj
 0002:00004c18       ??_C@_1M@BJBMFGOB@?$AAb?$AAn?$AA?9?$AAi?$AAn?$AA?$AA@ 00000000640a6c18     libcpmt:winapinls.obj
 0002:00004c28       ??_C@_1BG@EAKMMACD@?$AAb?$AAs?$AA?9?$AAb?$AAa?$AA?9?$AAl?$AAa?$AAt?$AAn?$AA?$AA@ 00000000640a6c28     libcpmt:winapinls.obj
 0002:00004c40       ??_C@_1M@KGADAODK@?$AAc?$AAa?$AA?9?$AAe?$AAs?$AA?$AA@ 00000000640a6c40     libcpmt:winapinls.obj
 0002:00004c50       ??_C@_1M@COAJPDHI@?$AAc?$AAs?$AA?9?$AAc?$AAz?$AA?$AA@ 00000000640a6c50     libcpmt:winapinls.obj
 0002:00004c60       ??_C@_1M@DHBHFONH@?$AAc?$AAy?$AA?9?$AAg?$AAb?$AA?$AA@ 00000000640a6c60     libcpmt:winapinls.obj
 0002:00004c70       ??_C@_1M@IMGKELGA@?$AAd?$AAa?$AA?9?$AAd?$AAk?$AA?$AA@ 00000000640a6c70     libcpmt:winapinls.obj
 0002:00004c80       ??_C@_1M@NNDGDNGA@?$AAd?$AAe?$AA?9?$AAa?$AAt?$AA?$AA@ 00000000640a6c80     libcpmt:winapinls.obj
 0002:00004c90       ??_C@_1M@IKDBHEEM@?$AAd?$AAe?$AA?9?$AAc?$AAh?$AA?$AA@ 00000000640a6c90     libcpmt:winapinls.obj
 0002:00004ca0       ??_C@_1M@GFFOJMCJ@?$AAd?$AAe?$AA?9?$AAd?$AAe?$AA?$AA@ 00000000640a6ca0     libcpmt:winapinls.obj
 0002:00004cb0       ??_C@_1M@MDNLKBPM@?$AAd?$AAe?$AA?9?$AAl?$AAi?$AA?$AA@ 00000000640a6cb0     libcpmt:winapinls.obj
 0002:00004cc0       ??_C@_1M@NJBEEJNL@?$AAd?$AAe?$AA?9?$AAl?$AAu?$AA?$AA@ 00000000640a6cc0     libcpmt:winapinls.obj
 0002:00004cd0       ??_C@_1O@GNNELBAP@?$AAd?$AAi?$AAv?$AA?9?$AAm?$AAv?$AA?$AA@ 00000000640a6cd0     libcpmt:winapinls.obj
 0002:00004ce0       ??_C@_1M@EJLEOGAE@?$AAe?$AAl?$AA?9?$AAg?$AAr?$AA?$AA@ 00000000640a6ce0     libcpmt:winapinls.obj
 0002:00004cf0       ??_C@_1M@GMPONJN@?$AAe?$AAn?$AA?9?$AAa?$AAu?$AA?$AA@ 00000000640a6cf0     libcpmt:winapinls.obj
 0002:00004d00       ??_C@_1M@NIDIIPGF@?$AAe?$AAn?$AA?9?$AAb?$AAz?$AA?$AA@ 00000000640a6d00     libcpmt:winapinls.obj
 0002:00004d10       ??_C@_1M@JEHMIMFO@?$AAe?$AAn?$AA?9?$AAc?$AAa?$AA?$AA@ 00000000640a6d10     libcpmt:winapinls.obj
 0002:00004d20       ??_C@_1M@IGMJCDLA@?$AAe?$AAn?$AA?9?$AAc?$AAb?$AA?$AA@ 00000000640a6d20     libcpmt:winapinls.obj
 0002:00004d30       ??_C@_1M@BNFIGBKG@?$AAe?$AAn?$AA?9?$AAg?$AAb?$AA?$AA@ 00000000640a6d30     libcpmt:winapinls.obj
 0002:00004d40       ??_C@_1M@LKIFDIGP@?$AAe?$AAn?$AA?9?$AAi?$AAe?$AA?$AA@ 00000000640a6d40     libcpmt:winapinls.obj
 0002:00004d50       ??_C@_1M@PJKFGCCO@?$AAe?$AAn?$AA?9?$AAj?$AAm?$AA?$AA@ 00000000640a6d50     libcpmt:winapinls.obj
 0002:00004d60       ??_C@_1M@KPPKEPBO@?$AAe?$AAn?$AA?9?$AAn?$AAz?$AA?$AA@ 00000000640a6d60     libcpmt:winapinls.obj
 0002:00004d70       ??_C@_1M@GMDGLDOB@?$AAe?$AAn?$AA?9?$AAp?$AAh?$AA?$AA@ 00000000640a6d70     libcpmt:winapinls.obj
 0002:00004d80       ??_C@_1M@ONGIBJNA@?$AAe?$AAn?$AA?9?$AAt?$AAt?$AA?$AA@ 00000000640a6d80     libcpmt:winapinls.obj
 0002:00004d90       ??_C@_1M@LLODPCMM@?$AAe?$AAn?$AA?9?$AAu?$AAs?$AA?$AA@ 00000000640a6d90     libcpmt:winapinls.obj
 0002:00004da0       ??_C@_1M@LAKFNPAN@?$AAe?$AAn?$AA?9?$AAz?$AAa?$AA?$AA@ 00000000640a6da0     libcpmt:winapinls.obj
 0002:00004db0       ??_C@_1M@MFNHNHEO@?$AAe?$AAn?$AA?9?$AAz?$AAw?$AA?$AA@ 00000000640a6db0     libcpmt:winapinls.obj
 0002:00004dc0       ??_C@_1M@EJEINPHM@?$AAe?$AAs?$AA?9?$AAa?$AAr?$AA?$AA@ 00000000640a6dc0     libcpmt:winapinls.obj
 0002:00004dd0       ??_C@_1M@GNKPCCJA@?$AAe?$AAs?$AA?9?$AAb?$AAo?$AA?$AA@ 00000000640a6dd0     libcpmt:winapinls.obj
 0002:00004de0       ??_C@_1M@LEEGFONL@?$AAe?$AAs?$AA?9?$AAc?$AAl?$AA?$AA@ 00000000640a6de0     libcpmt:winapinls.obj
 0002:00004df0       ??_C@_1M@KGPDPBDF@?$AAe?$AAs?$AA?9?$AAc?$AAo?$AA?$AA@ 00000000640a6df0     libcpmt:winapinls.obj
 0002:00004e00       ??_C@_1M@EIAHOHH@?$AAe?$AAs?$AA?9?$AAc?$AAr?$AA?$AA@ 00000000640a6e00     libcpmt:winapinls.obj
 0002:00004e10       ??_C@_1M@LLPGMBIN@?$AAe?$AAs?$AA?9?$AAd?$AAo?$AA?$AA@ 00000000640a6e10     libcpmt:winapinls.obj
 0002:00004e20       ??_C@_1M@DKHMKNJA@?$AAe?$AAs?$AA?9?$AAe?$AAc?$AA?$AA@ 00000000640a6e20     libcpmt:winapinls.obj
 0002:00004e30       ??_C@_1M@GKGFPKAP@?$AAe?$AAs?$AA?9?$AAe?$AAs?$AA?$AA@ 00000000640a6e30     libcpmt:winapinls.obj
 0002:00004e40       ??_C@_1M@LKHKGDLN@?$AAe?$AAs?$AA?9?$AAg?$AAt?$AA?$AA@ 00000000640a6e40     libcpmt:winapinls.obj
 0002:00004e50       ??_C@_1M@HEIIGGJD@?$AAe?$AAs?$AA?9?$AAh?$AAn?$AA?$AA@ 00000000640a6e50     libcpmt:winapinls.obj
 0002:00004e60       ??_C@_1M@FBDHPPGD@?$AAe?$AAs?$AA?9?$AAm?$AAx?$AA?$AA@ 00000000640a6e60     libcpmt:winapinls.obj
 0002:00004e70       ??_C@_1M@DPAGLNDH@?$AAe?$AAs?$AA?9?$AAn?$AAi?$AA?$AA@ 00000000640a6e70     libcpmt:winapinls.obj
 0002:00004e80       ??_C@_1M@MDGOPGDD@?$AAe?$AAs?$AA?9?$AAp?$AAa?$AA?$AA@ 00000000640a6e80     libcpmt:winapinls.obj
 0002:00004e90       ??_C@_1M@EMAMGBGE@?$AAe?$AAs?$AA?9?$AAp?$AAe?$AA?$AA@ 00000000640a6e90     libcpmt:winapinls.obj
 0002:00004ea0       ??_C@_1M@IBMCAOEC@?$AAe?$AAs?$AA?9?$AAp?$AAr?$AA?$AA@ 00000000640a6ea0     libcpmt:winapinls.obj
 0002:00004eb0       ??_C@_1M@FGMDIJED@?$AAe?$AAs?$AA?9?$AAp?$AAy?$AA?$AA@ 00000000640a6eb0     libcpmt:winapinls.obj
 0002:00004ec0       ??_C@_1M@IIDEOLLL@?$AAe?$AAs?$AA?9?$AAs?$AAv?$AA?$AA@ 00000000640a6ec0     libcpmt:winapinls.obj
 0002:00004ed0       ??_C@_1M@GAOBIPA@?$AAe?$AAs?$AA?9?$AAu?$AAy?$AA?$AA@ 00000000640a6ed0     libcpmt:winapinls.obj
 0002:00004ee0       ??_C@_1M@JKFFICHJ@?$AAe?$AAs?$AA?9?$AAv?$AAe?$AA?$AA@ 00000000640a6ee0     libcpmt:winapinls.obj
 0002:00004ef8       ??_7type_info@@6B@         00000000640a6ef8     LIBCMT:std_type_info_static.obj
 0002:00004f00       _pDefaultRawDllMain        00000000640a6f00     LIBCMT:dll_dllmain.obj
 0002:00004f00       _pRawDllMain               00000000640a6f00     LIBCMT:dll_dllmain.obj
 0002:00004f20       ??_7bad_array_new_length@std@@6B@ 00000000640a6f20     LIBCMT:throw_bad_alloc.obj
 0002:00004f30       ??_C@_0BF@KINCDENJ@bad?5array?5new?5length?$AA@ 00000000640a6f30     LIBCMT:throw_bad_alloc.obj
 0002:00004f48       _pDestructExceptionObject  00000000640a6f48     libvcruntime:frame.obj
 0002:00004f58       ??_7bad_exception@std@@6B@ 00000000640a6f58     libvcruntime:frame.obj
 0002:00004f68       ??_C@_0O@DPKOEFFH@bad?5exception?$AA@ 00000000640a6f68     libvcruntime:frame.obj
 0002:00004f80       ??_7bad_typeid@std@@6B@    00000000640a6f80     libvcruntime:rtti.obj
 0002:00004f98       ??_7__non_rtti_object@std@@6B@ 00000000640a6f98     libvcruntime:rtti.obj
 0002:00004fa8       ??_C@_0CB@CGKGGDFI@Access?5violation?5?9?5no?5RTTI?5data?$CB@ 00000000640a6fa8     libvcruntime:rtti.obj
 0002:00004fd0       ??_C@_0CH@OLLMPELC@Attempted?5a?5typeid?5of?5nullptr?5po@ 00000000640a6fd0     libvcruntime:rtti.obj
 0002:00004ff8       ??_C@_0CB@EEENAAHH@Bad?5read?5pointer?5?9?5no?5RTTI?5data?$CB@ 00000000640a6ff8     libvcruntime:rtti.obj
 0002:000050f8       _Microsoft_CRTProvider     00000000640a70f8     libvcruntime:telemetry.obj
 0002:00005100       ??_C@_0O@JEOPJOMI@Main?5Invoked?4?$AA@ 00000000640a7100     libvcruntime:telemetry.obj
 0002:00005110       ??_C@_0P@NEAEIBDO@Main?5Returned?4?$AA@ 00000000640a7110     libvcruntime:telemetry.obj
 0002:00005440       ??_C@_08EHJDFFNH@__based?$CI?$AA@ 00000000640a7440     libvcruntime:undname.obj
 0002:00005450       ??_C@_07KOLFKCDI@__cdecl?$AA@ 00000000640a7450     libvcruntime:undname.obj
 0002:00005458       ??_C@_08GHMPAG@__pascal?$AA@ 00000000640a7458     libvcruntime:undname.obj
 0002:00005468       ??_C@_09IFJBGAPI@__stdcall?$AA@ 00000000640a7468     libvcruntime:undname.obj
 0002:00005478       ??_C@_0L@NPHFGOKO@__thiscall?$AA@ 00000000640a7478     libvcruntime:undname.obj
 0002:00005488       ??_C@_0L@JMKHOMEK@__fastcall?$AA@ 00000000640a7488     libvcruntime:undname.obj
 0002:00005498       ??_C@_0N@BCKKPABJ@__vectorcall?$AA@ 00000000640a7498     libvcruntime:undname.obj
 0002:000054a8       ??_C@_09HIJEGCPM@__clrcall?$AA@ 00000000640a74a8     libvcruntime:undname.obj
 0002:000054b4       ??_C@_06GHPCKEAG@__eabi?$AA@ 00000000640a74b4     libvcruntime:undname.obj
 0002:000054c0       ??_C@_07JOMMBBKO@__ptr64?$AA@ 00000000640a74c0     libvcruntime:undname.obj
 0002:000054c8       ??_C@_0L@PILCLIHE@__restrict?$AA@ 00000000640a74c8     libvcruntime:undname.obj
 0002:000054d8       ??_C@_0M@GFIIJFMG@__unaligned?$AA@ 00000000640a74d8     libvcruntime:undname.obj
 0002:000054e8       ??_C@_09DHDLOLLB@restrict?$CI?$AA@ 00000000640a74e8     libvcruntime:undname.obj
 0002:000054f4       ??_C@_04NIHEBCM@?5new?$AA@ 00000000640a74f4     libvcruntime:undname.obj
 0002:00005500       ??_C@_07FPCDHGMM@?5delete?$AA@ 00000000640a7500     libvcruntime:undname.obj
 0002:00005508       ??_C@_01NEMOKFLO@?$DN?$AA@ 00000000640a7508     libvcruntime:undname.obj
 0002:0000550c       ??_C@_02GPIOPFAK@?$DO?$DO?$AA@ 00000000640a750c     libvcruntime:undname.obj
 0002:00005510       ??_C@_02FODMEDOG@?$DM?$DM?$AA@ 00000000640a7510     libvcruntime:undname.obj
 0002:00005514       ??_C@_01DCLJPIOD@?$CB?$AA@ 00000000640a7514     libvcruntime:undname.obj
 0002:00005518       ??_C@_02EGOFBIJA@?$DN?$DN?$AA@ 00000000640a7518     libvcruntime:undname.obj
 0002:0000551c       ??_C@_02FDNJECIE@?$CB?$DN?$AA@ 00000000640a751c     libvcruntime:undname.obj
 0002:00005520       ??_C@_02GPECMEKF@?$FL?$FN?$AA@ 00000000640a7520     libvcruntime:undname.obj
 0002:00005528       ??_C@_08LHJFAFGD@operator?$AA@ 00000000640a7528     libvcruntime:undname.obj
 0002:00005534       ??_C@_02HBOOOICD@?9?$DO?$AA@ 00000000640a7534     libvcruntime:undname.obj
 0002:00005538       ??_C@_02ECNGHCIF@?$CL?$CL?$AA@ 00000000640a7538     libvcruntime:undname.obj
 0002:0000553c       ??_C@_02BAABKJLB@?9?9?$AA@ 00000000640a753c     libvcruntime:undname.obj
 0002:00005540       ??_C@_01MIFGBAGJ@?$CL?$AA@ 00000000640a7540     libvcruntime:undname.obj
 0002:00005544       ??_C@_01HNPIGOCE@?$CG?$AA@ 00000000640a7544     libvcruntime:undname.obj
 0002:00005548       ??_C@_03MNHNFDLC@?9?$DO?$CK?$AA@ 00000000640a7548     libvcruntime:undname.obj
 0002:0000554c       ??_C@_01KMDKNFGN@?1?$AA@   00000000640a754c     libvcruntime:undname.obj
 0002:00005550       ??_C@_01FGNFDNOH@?$CF?$AA@ 00000000640a7550     libvcruntime:undname.obj
 0002:00005554       ??_C@_01MNNFJEPP@?$DM?$AA@ 00000000640a7554     libvcruntime:undname.obj
 0002:00005558       ??_C@_02EHCHHCKH@?$DM?$DN?$AA@ 00000000640a7558     libvcruntime:undname.obj
 0002:0000555c       ??_C@_01PPODPGHN@?$DO?$AA@ 00000000640a755c     libvcruntime:undname.obj
 0002:00005560       ??_C@_02EEKDKGMJ@?$DO?$DN?$AA@ 00000000640a7560     libvcruntime:undname.obj
 0002:00005564       ??_C@_01IHBHIGKO@?0?$AA@   00000000640a7564     libvcruntime:undname.obj
 0002:00005568       ??_C@_02HCKGKOFO@?$CI?$CJ?$AA@ 00000000640a7568     libvcruntime:undname.obj
 0002:0000556c       ??_C@_01PJKLJHI@?$HO?$AA@  00000000640a756c     libvcruntime:undname.obj
 0002:00005570       ??_C@_01JKBOJNNK@?$FO?$AA@ 00000000640a7570     libvcruntime:undname.obj
 0002:00005574       ??_C@_01DNKMNLPK@?$HM?$AA@ 00000000640a7574     libvcruntime:undname.obj
 0002:00005578       ??_C@_02PPKAJPJL@?$CG?$CG?$AA@ 00000000640a7578     libvcruntime:undname.obj
 0002:0000557c       ??_C@_02NONPIBCD@?$HM?$HM?$AA@ 00000000640a757c     libvcruntime:undname.obj
 0002:00005580       ??_C@_02FPIMKNGF@?$CK?$DN?$AA@ 00000000640a7580     libvcruntime:undname.obj
 0002:00005584       ??_C@_02FOEOMHFC@?$CL?$DN?$AA@ 00000000640a7584     libvcruntime:undname.obj
 0002:00005588       ??_C@_02FKMDLLOA@?9?$DN?$AA@ 00000000640a7588     libvcruntime:undname.obj
 0002:0000558c       ??_C@_02FJEHGPIO@?1?$DN?$AA@ 00000000640a758c     libvcruntime:undname.obj
 0002:00005590       ??_C@_02FENAOKFI@?$CF?$DN?$AA@ 00000000640a7590     libvcruntime:undname.obj
 0002:00005594       ??_C@_03IKFCCPFF@?$DO?$DO?$DN?$AA@ 00000000640a7594     libvcruntime:undname.obj
 0002:00005598       ??_C@_03CDNPDDLA@?$DM?$DM?$DN?$AA@ 00000000640a7598     libvcruntime:undname.obj
 0002:0000559c       ??_C@_02FGJGFEAB@?$CG?$DN?$AA@ 00000000640a759c     libvcruntime:undname.obj
 0002:000055a0       ??_C@_02DHLNPPGH@?$HM?$DN?$AA@ 00000000640a75a0     libvcruntime:undname.obj
 0002:000055a4       ??_C@_02MHEGNOJ@?$FO?$DN?$AA@ 00000000640a75a4     libvcruntime:undname.obj
 0002:000055a8       ??_C@_09IFPLHPGF@?$GAvftable?8?$AA@ 00000000640a75a8     libvcruntime:undname.obj
 0002:000055b8       ??_C@_09BLBHBJP@?$GAvbtable?8?$AA@ 00000000640a75b8     libvcruntime:undname.obj
 0002:000055c8       ??_C@_07FEEIOKP@?$GAvcall?8?$AA@ 00000000640a75c8     libvcruntime:undname.obj
 0002:000055d0       ??_C@_08LLFFHHDJ@?$GAtypeof?8?$AA@ 00000000640a75d0     libvcruntime:undname.obj
 0002:000055e0       ??_C@_0BF@KDPPACIK@?$GAlocal?5static?5guard?8?$AA@ 00000000640a75e0     libvcruntime:undname.obj
 0002:000055f8       ??_C@_08OBABFOLI@?$GAstring?8?$AA@ 00000000640a75f8     libvcruntime:undname.obj
 0002:00005608       ??_C@_0BD@JDLKDPAB@?$GAvbase?5destructor?8?$AA@ 00000000640a7608     libvcruntime:undname.obj
 0002:00005620       ??_C@_0BN@DEGPLNFK@?$GAvector?5deleting?5destructor?8?$AA@ 00000000640a7620     libvcruntime:undname.obj
 0002:00005640       ??_C@_0BO@OBMKPJIG@?$GAdefault?5constructor?5closure?8?$AA@ 00000000640a7640     libvcruntime:undname.obj
 0002:00005660       ??_C@_0BN@IMDCHIKM@?$GAscalar?5deleting?5destructor?8?$AA@ 00000000640a7660     libvcruntime:undname.obj
 0002:00005680       ??_C@_0BO@PFGOCPJJ@?$GAvector?5constructor?5iterator?8?$AA@ 00000000640a7680     libvcruntime:undname.obj
 0002:000056a0       ??_C@_0BN@LFPFMEDL@?$GAvector?5destructor?5iterator?8?$AA@ 00000000640a76a0     libvcruntime:undname.obj
 0002:000056c0       ??_C@_0CE@IKBNEHA@?$GAvector?5vbase?5constructor?5iterat@ 00000000640a76c0     libvcruntime:undname.obj
 0002:000056e8       ??_C@_0BL@NILFHHPC@?$GAvirtual?5displacement?5map?8?$AA@ 00000000640a76e8     libvcruntime:undname.obj
 0002:00005708       ??_C@_0CB@JONCMFFK@?$GAeh?5vector?5constructor?5iterator?8@ 00000000640a7708     libvcruntime:undname.obj
 0002:00005730       ??_C@_0CA@GCEOPDGL@?$GAeh?5vector?5destructor?5iterator?8?$AA@ 00000000640a7730     libvcruntime:undname.obj
 0002:00005750       ??_C@_0CH@OOJPLCPH@?$GAeh?5vector?5vbase?5constructor?5ite@ 00000000640a7750     libvcruntime:undname.obj
 0002:00005778       ??_C@_0BL@LLKPOHJI@?$GAcopy?5constructor?5closure?8?$AA@ 00000000640a7778     libvcruntime:undname.obj
 0002:00005798       ??_C@_0BA@KBCDOMBN@?$GAudt?5returning?8?$AA@ 00000000640a7798     libvcruntime:undname.obj
 0002:000057a8       ??_C@_03KLGMFNMG@?$GAEH?$AA@ 00000000640a77a8     libvcruntime:undname.obj
 0002:000057ac       ??_C@_05KHLCHHI@?$GARTTI?$AA@ 00000000640a77ac     libvcruntime:undname.obj
 0002:000057b8       ??_C@_0BA@KKLDJDLB@?$GAlocal?5vftable?8?$AA@ 00000000640a77b8     libvcruntime:undname.obj
 0002:000057c8       ??_C@_0CE@IIHCMGGL@?$GAlocal?5vftable?5constructor?5closu@ 00000000640a77c8     libvcruntime:undname.obj
 0002:000057ec       ??_C@_06FHBGPFGH@?5new?$FL?$FN?$AA@ 00000000640a77ec     libvcruntime:undname.obj
 0002:000057f8       ??_C@_09LBNFPBCA@?5delete?$FL?$FN?$AA@ 00000000640a77f8     libvcruntime:undname.obj
 0002:00005808       ??_C@_0P@HJKNJFNN@?$GAomni?5callsig?8?$AA@ 00000000640a7808     libvcruntime:undname.obj
 0002:00005818       ??_C@_0BL@CNOONJFP@?$GAplacement?5delete?5closure?8?$AA@ 00000000640a7818     libvcruntime:undname.obj
 0002:00005838       ??_C@_0BN@CKNJLHMB@?$GAplacement?5delete?$FL?$FN?5closure?8?$AA@ 00000000640a7838     libvcruntime:undname.obj
 0002:00005858       ??_C@_0CG@CFDHKGGD@?$GAmanaged?5vector?5constructor?5iter@ 00000000640a7858     libvcruntime:undname.obj
 0002:00005880       ??_C@_0CF@IMGKMJNO@?$GAmanaged?5vector?5destructor?5itera@ 00000000640a7880     libvcruntime:undname.obj
 0002:000058a8       ??_C@_0CG@HLDDJMAG@?$GAeh?5vector?5copy?5constructor?5iter@ 00000000640a78a8     libvcruntime:undname.obj
 0002:000058d0       ??_C@_0CM@FCBBDIGB@?$GAeh?5vector?5vbase?5copy?5constructo@ 00000000640a78d0     libvcruntime:undname.obj
 0002:00005900       ??_C@_0BL@CLIPGLGB@?$GAdynamic?5initializer?5for?5?8?$AA@ 00000000640a7900     libvcruntime:undname.obj
 0002:00005920       ??_C@_0CB@PDBIFEP@?$GAdynamic?5atexit?5destructor?5for?5?8@ 00000000640a7920     libvcruntime:undname.obj
 0002:00005948       ??_C@_0CD@CGAJBKEJ@?$GAvector?5copy?5constructor?5iterato@ 00000000640a7948     libvcruntime:undname.obj
 0002:00005970       ??_C@_0CJ@GJELGAMM@?$GAvector?5vbase?5copy?5constructor?5i@ 00000000640a7970     libvcruntime:undname.obj
 0002:000059a0       ??_C@_0CL@FGIJHLCE@?$GAmanaged?5vector?5copy?5constructor@ 00000000640a79a0     libvcruntime:undname.obj
 0002:000059d0       ??_C@_0BM@PMGGMLDN@?$GAlocal?5static?5thread?5guard?8?$AA@ 00000000640a79d0     libvcruntime:undname.obj
 0002:000059f0       ??_C@_0N@BDNMDMOL@operator?5?$CC?$CC?5?$AA@ 00000000640a79f0     libvcruntime:undname.obj
 0002:00005a00       ??_C@_0BC@DAFEJGAK@?5Type?5Descriptor?8?$AA@ 00000000640a7a00     libvcruntime:undname.obj
 0002:00005a18       ??_C@_0BM@LDKODKLH@?5Base?5Class?5Descriptor?5at?5?$CI?$AA@ 00000000640a7a18     libvcruntime:undname.obj
 0002:00005a38       ??_C@_0BD@LGICGFMM@?5Base?5Class?5Array?8?$AA@ 00000000640a7a38     libvcruntime:undname.obj
 0002:00005a50       ??_C@_0BN@MECKDCOJ@?5Class?5Hierarchy?5Descriptor?8?$AA@ 00000000640a7a50     libvcruntime:undname.obj
 0002:00005a70       ??_C@_0BK@CFCOFLF@?5Complete?5Object?5Locator?8?$AA@ 00000000640a7a70     libvcruntime:undname.obj
 0002:00005a8c       ??_C@_04HEJADOOB@CV?3?5?$AA@ 00000000640a7a8c     libvcruntime:undname.obj
 0002:00005a94       ??_C@_02MOLJINC@?3?3?$AA@  00000000640a7a94     libvcruntime:undname.obj
 0002:00005a98       ??_C@_0BE@JAEOCHPE@template?9parameter?9?$AA@ 00000000640a7a98     libvcruntime:undname.obj
 0002:00005ab0       ??_C@_0O@KHGCOMHP@generic?9type?9?$AA@ 00000000640a7ab0     libvcruntime:undname.obj
 0002:00005ac0       ??_C@_01NLNLIGKH@?$GA?$AA@ 00000000640a7ac0     libvcruntime:undname.obj
 0002:00005ac4       ??_C@_01GEODFPGF@?8?$AA@   00000000640a7ac4     libvcruntime:undname.obj
 0002:00005ac8       ??_C@_0BG@JNJLAMPM@?$GAanonymous?5namespace?8?$AA@ 00000000640a7ac8     libvcruntime:undname.obj
 0002:00005ae0       ??_C@_02OHHJMEON@?8?8?$AA@ 00000000640a7ae0     libvcruntime:undname.obj
 0002:00005ae8       ??_C@_0BN@IBLMMFAP@?$GAnon?9type?9template?9parameter?$AA@ 00000000640a7ae8     libvcruntime:undname.obj
 0002:00005b08       ??_C@_04GKJNKENE@void?$AA@ 00000000640a7b08     libvcruntime:undname.obj
 0002:00005b10       ??_C@_0BE@EODMJLIF@?$GAtemplate?9parameter?$AA@ 00000000640a7b10     libvcruntime:undname.obj
 0002:00005b24       ??_C@_03KHICJKCI@?4?4?4?$AA@ 00000000640a7b24     libvcruntime:undname.obj
 0002:00005b28       ??_C@_04HIBGFPH@NULL?$AA@  00000000640a7b28     libvcruntime:undname.obj
 0002:00005b30       ??_C@_02DPKJAMEF@?$CFd?$AA@ 00000000640a7b30     libvcruntime:undname.obj
 0002:00005b38       ??_C@_0BK@IHCCFNEL@?$GAtemplate?9type?9parameter?9?$AA@ 00000000640a7b38     libvcruntime:undname.obj
 0002:00005b58       ??_C@_0BK@OFCNNNKO@?$GAgeneric?9class?9parameter?9?$AA@ 00000000640a7b58     libvcruntime:undname.obj
 0002:00005b78       ??_C@_0BL@NGJBLFIL@?$GAgeneric?9method?9parameter?9?$AA@ 00000000640a7b78     libvcruntime:undname.obj
 0002:00005b94       ??_C@_03OPGICMGF@?$HN?8?5?$AA@ 00000000640a7b94     libvcruntime:undname.obj
 0002:00005b98       ??_C@_02IGFCGPIL@?$HN?8?$AA@ 00000000640a7b98     libvcruntime:undname.obj
 0002:00005ba0       ??_C@_0N@CBHHHENL@?$GAvtordispex?$HL?$AA@ 00000000640a7ba0     libvcruntime:undname.obj
 0002:00005bb0       ??_C@_0L@GHPFDFH@?$GAvtordisp?$HL?$AA@ 00000000640a7bb0     libvcruntime:undname.obj
 0002:00005bc0       ??_C@_0L@HNGCOGAE@?$GAadjustor?$HL?$AA@ 00000000640a7bc0     libvcruntime:undname.obj
 0002:00005bd0       ??_C@_0CB@KJDOOODE@?$GAlocal?5static?5destructor?5helper?8@ 00000000640a7bd0     libvcruntime:undname.obj
 0002:00005bf8       ??_C@_0DB@ILEFOCIJ@?$GAtemplate?5static?5data?5member?5con@ 00000000640a7bf8     libvcruntime:undname.obj
 0002:00005c30       ??_C@_0DA@HGFJFBBE@?$GAtemplate?5static?5data?5member?5des@ 00000000640a7c30     libvcruntime:undname.obj
 0002:00005c60       ??_C@_07PGOEDBHP@static?5?$AA@ 00000000640a7c60     libvcruntime:undname.obj
 0002:00005c68       ??_C@_08NIEOINHE@virtual?5?$AA@ 00000000640a7c68     libvcruntime:undname.obj
 0002:00005c78       ??_C@_09LAPHOOG@private?3?5?$AA@ 00000000640a7c78     libvcruntime:undname.obj
 0002:00005c88       ??_C@_0M@GAIFPFIP@protected?3?5?$AA@ 00000000640a7c88     libvcruntime:undname.obj
 0002:00005c98       ??_C@_08GPDDCMKI@public?3?5?$AA@ 00000000640a7c98     libvcruntime:undname.obj
 0002:00005ca8       ??_C@_08KJLFOPNE@?$FLthunk?$FN?3?$AA@ 00000000640a7ca8     libvcruntime:undname.obj
 0002:00005cb8       ??_C@_0M@DHNBOJMP@extern?5?$CCC?$CC?5?$AA@ 00000000640a7cb8     libvcruntime:undname.obj
 0002:00005cc4       ??_C@_02KCKGHPCA@?$CJ?5?$AA@ 00000000640a7cc4     libvcruntime:undname.obj
 0002:00005cc8       ??_C@_05CIHEBHNO@char?5?$AA@ 00000000640a7cc8     libvcruntime:undname.obj
 0002:00005cd0       ??_C@_06EHJMALKF@short?5?$AA@ 00000000640a7cd0     libvcruntime:undname.obj
 0002:00005cd8       ??_C@_04LAHKHJMA@int?5?$AA@ 00000000640a7cd8     libvcruntime:undname.obj
 0002:00005ce0       ??_C@_05CJIMAING@long?5?$AA@ 00000000640a7ce0     libvcruntime:undname.obj
 0002:00005ce8       ??_C@_09EBBEKKIH@unsigned?5?$AA@ 00000000640a7ce8     libvcruntime:undname.obj
 0002:00005cf4       ??_C@_05BEFAKPML@void?5?$AA@ 00000000640a7cf4     libvcruntime:undname.obj
 0002:00005d00       ??_C@_08PABEKFH@volatile?$AA@ 00000000640a7d00     libvcruntime:undname.obj
 0002:00005d10       ??_C@_0P@GCOCNKDM@std?3?3nullptr_t?$AA@ 00000000640a7d10     libvcruntime:undname.obj
 0002:00005d20       ??_C@_0L@EGPHHEKN@?$DMellipsis?$DO?$AA@ 00000000640a7d20     libvcruntime:undname.obj
 0002:00005d2c       ??_C@_04EENFHACM@?0?4?4?4?$AA@ 00000000640a7d2c     libvcruntime:undname.obj
 0002:00005d38       ??_C@_0M@ELJOJFFH@?0?$DMellipsis?$DO?$AA@ 00000000640a7d38     libvcruntime:undname.obj
 0002:00005d48       ??_C@_07HDJPLPEK@?5throw?$CI?$AA@ 00000000640a7d48     libvcruntime:undname.obj
 0002:00005d50       ??_C@_03PBJBJNON@cpu?$AA@  00000000640a7d50     libvcruntime:undname.obj
 0002:00005d54       ??_C@_03DCBBJBAA@amp?$AA@  00000000640a7d54     libvcruntime:undname.obj
 0002:00005d58       ??_C@_02KEGNLNML@?0?5?$AA@ 00000000640a7d58     libvcruntime:undname.obj
 0002:00005d5c       ??_C@_04ENMBGAPA@char?$AA@ 00000000640a7d5c     libvcruntime:undname.obj
 0002:00005d64       ??_C@_05BFKKPKCG@short?$AA@ 00000000640a7d64     libvcruntime:undname.obj
 0002:00005d6c       ??_C@_03JBIPMCLC@int?$AA@  00000000640a7d6c     libvcruntime:undname.obj
 0002:00005d70       ??_C@_04GOKPGOLB@long?$AA@ 00000000640a7d70     libvcruntime:undname.obj
 0002:00005d78       ??_C@_05KNFBNCOH@float?$AA@ 00000000640a7d78     libvcruntime:undname.obj
 0002:00005d80       ??_C@_06BNJCAIGJ@double?$AA@ 00000000640a7d80     libvcruntime:undname.obj
 0002:00005d88       ??_C@_04DDKJGDCM@bool?$AA@ 00000000640a7d88     libvcruntime:undname.obj
 0002:00005d90       ??_C@_06EBGKOKIG@__int8?$AA@ 00000000640a7d90     libvcruntime:undname.obj
 0002:00005d98       ??_C@_07ICFHOGAF@__int16?$AA@ 00000000640a7d98     libvcruntime:undname.obj
 0002:00005da0       ??_C@_07OFLPPHGP@__int32?$AA@ 00000000640a7da0     libvcruntime:undname.obj
 0002:00005da8       ??_C@_07LFCOJCAC@__int64?$AA@ 00000000640a7da8     libvcruntime:undname.obj
 0002:00005db0       ??_C@_08GAHOLHEO@__int128?$AA@ 00000000640a7db0     libvcruntime:undname.obj
 0002:00005dc0       ??_C@_09EEKGDCPH@?$DMunknown?$DO?$AA@ 00000000640a7dc0     libvcruntime:undname.obj
 0002:00005dd0       ??_C@_08HBIPOFJB@char16_t?$AA@ 00000000640a7dd0     libvcruntime:undname.obj
 0002:00005de0       ??_C@_08IECNCBKG@char32_t?$AA@ 00000000640a7de0     libvcruntime:undname.obj
 0002:00005df0       ??_C@_07CLGGIAMF@wchar_t?$AA@ 00000000640a7df0     libvcruntime:undname.obj
 0002:00005df8       ??_C@_06GCICPBLB@__w64?5?$AA@ 00000000640a7df8     libvcruntime:undname.obj
 0002:00005e00       ??_C@_07NFANNNEC@UNKNOWN?$AA@ 00000000640a7e00     libvcruntime:undname.obj
 0002:00005e08       ??_C@_07EDHNAJHC@signed?5?$AA@ 00000000640a7e08     libvcruntime:undname.obj
 0002:00005e10       ??_C@_05BNCCCJPP@const?$AA@ 00000000640a7e10     libvcruntime:undname.obj
 0002:00005e18       ??_C@_09EFNPDFFP@?5volatile?$AA@ 00000000640a7e18     libvcruntime:undname.obj
 0002:00005e28       ??_C@_0P@GCIFDJCJ@?$GAunknown?5ecsu?8?$AA@ 00000000640a7e28     libvcruntime:undname.obj
 0002:00005e38       ??_C@_06MOJHIBMG@union?5?$AA@ 00000000640a7e38     libvcruntime:undname.obj
 0002:00005e40       ??_C@_07DIBCDNGL@struct?5?$AA@ 00000000640a7e40     libvcruntime:undname.obj
 0002:00005e48       ??_C@_06LJBABKPM@class?5?$AA@ 00000000640a7e48     libvcruntime:undname.obj
 0002:00005e50       ??_C@_08KOFANOFK@coclass?5?$AA@ 00000000640a7e50     libvcruntime:undname.obj
 0002:00005e60       ??_C@_0N@DLIEFKNA@cointerface?5?$AA@ 00000000640a7e60     libvcruntime:undname.obj
 0002:00005e70       ??_C@_05LJGMCFOG@enum?5?$AA@ 00000000640a7e70     libvcruntime:undname.obj
 0002:00005e78       ??_C@_09GAIEOBLP@volatile?5?$AA@ 00000000640a7e78     libvcruntime:undname.obj
 0002:00005e84       ??_C@_06LIJLOJAG@const?5?$AA@ 00000000640a7e84     libvcruntime:undname.obj
 0002:00005e8c       ??_C@_02KJPKDIBN@?$CG?5?$AA@ 00000000640a7e8c     libvcruntime:undname.obj
 0002:00005e90       ??_C@_03PCKGMOPB@?$CG?$CG?5?$AA@ 00000000640a7e90     libvcruntime:undname.obj
 0002:00005e98       ??_C@_0M@EALIELKG@cli?3?3array?$DM?$AA@ 00000000640a7e98     libvcruntime:undname.obj
 0002:00005ea8       ??_C@_0O@GKABPPIF@cli?3?3pin_ptr?$DM?$AA@ 00000000640a7ea8     libvcruntime:undname.obj
 0002:00005eb8       ??_C@_02GOGNNPBN@?$CJ?$FL?$AA@ 00000000640a7eb8     libvcruntime:undname.obj
 0002:00005ebc       ??_C@_06EEGAIFAK@?$HLflat?$HN?$AA@ 00000000640a7ebc     libvcruntime:undname.obj
 0002:00005ec4       ??_C@_05JIBOFOHK@?$HLfor?5?$AA@ 00000000640a7ec4     libvcruntime:undname.obj
 0002:00005ecc       ??_C@_02MDINNEEG@s?5?$AA@  00000000640a7ecc     libvcruntime:undname.obj
 0002:00005ed8       ??_7charNode@@6B@          00000000640a7ed8     libvcruntime:undname.obj
 0002:00005ef8       ??_7pcharNode@@6B@         00000000640a7ef8     libvcruntime:undname.obj
 0002:00005f18       ??_7pDNameNode@@6B@        00000000640a7f18     libvcruntime:undname.obj
 0002:00005f38       ??_7DNameStatusNode@@6B@   00000000640a7f38     libvcruntime:undname.obj
 0002:00005f58       ??_7pairNode@@6B@          00000000640a7f58     libvcruntime:undname.obj
 0002:00005f70       ??_C@_04OKOHEJBO@?5?$DP?$DP?5?$AA@ 00000000640a7f70     libvcruntime:undname.obj
 0002:00005f98       ??_C@_1BC@DNHGCMLG@?$AAa?$AAd?$AAv?$AAa?$AAp?$AAi?$AA3?$AA2?$AA?$AA@ 00000000640a7f98     libvcruntime:winapi_downlevel.obj
 0002:00005fb0       ??_C@_1DM@KHCHBNEB@?$AAa?$AAp?$AAi?$AA?9?$AAm?$AAs?$AA?9?$AAw?$AAi?$AAn?$AA?9?$AAc?$AAo?$AAr?$AAe?$AA?9?$AAf?$AAi?$AAb?$AAe?$AAr?$AAs?$AA?9?$AAl?$AA1?$AA?9?$AA1?$AA?9?$AA1?$AA?$AA@ 00000000640a7fb0     libvcruntime:winapi_downlevel.obj
 0002:00005ff0       ??_C@_1DK@LPPGFMPP@?$AAa?$AAp?$AAi?$AA?9?$AAm?$AAs?$AA?9?$AAw?$AAi?$AAn?$AA?9?$AAc?$AAo?$AAr?$AAe?$AA?9?$AAs?$AAy?$AAn?$AAc?$AAh?$AA?9?$AAl?$AA1?$AA?9?$AA2?$AA?9?$AA0?$AA?$AA@ 00000000640a7ff0     libvcruntime:winapi_downlevel.obj
 0002:00006030       ??_C@_1BC@GDMECMAK@?$AAk?$AAe?$AAr?$AAn?$AAe?$AAl?$AA3?$AA2?$AA?$AA@ 00000000640a8030     libvcruntime:winapi_downlevel.obj
 0002:00006048       ??_C@_0O@BAMBGLIE@EventRegister?$AA@ 00000000640a8048     libvcruntime:winapi_downlevel.obj
 0002:00006060       ??_C@_0BE@BJEEGHGK@EventSetInformation?$AA@ 00000000640a8060     libvcruntime:winapi_downlevel.obj
 0002:00006078       ??_C@_0BA@FAKLIPIC@EventUnregister?$AA@ 00000000640a8078     libvcruntime:winapi_downlevel.obj
 0002:00006090       ??_C@_0BD@PKLHJPHD@EventWriteTransfer?$AA@ 00000000640a8090     libvcruntime:winapi_downlevel.obj
 0002:000060d0       format_validation_lookup_table 00000000640a80d0     libucrt:output.obj
 0002:0000612c       ??_C@_06OJHGLDPL@?$CInull?$CJ?$AA@ 00000000640a812c     libucrt:output.obj
 0002:00006138       ??_C@_1O@CEDCILHN@?$AA?$CI?$AAn?$AAu?$AAl?$AAl?$AA?$CJ?$AA?$AA@ 00000000640a8138     libucrt:output.obj
 0002:00006148       __real@0000000000000000    00000000640a8148     libucrt:frexp.obj
 0002:00006150       __real@3ff0000000000000    00000000640a8150     libucrt:frexp.obj
 0002:00006158       __real@8000000000000000    00000000640a8158     libucrt:frexp.obj
 0002:000062d0       __newctype                 00000000640a82d0     libucrt:ctype.obj
 0002:000065d0       __newclmap                 00000000640a85d0     libucrt:ctype.obj
 0002:00006750       __newcumap                 00000000640a8750     libucrt:ctype.obj
 0002:000068d0       _wctype                    00000000640a88d0     libucrt:ctype.obj
 0002:00006ae0       ?large_power_data@?1??multiply_by_power_of_ten@__crt_strtox@@YA_NAEAUbig_integer@2@I@Z@4QBIB 00000000640a8ae0     libucrt:strtod.obj
 0002:000073f0       ?large_power_indices@?1??multiply_by_power_of_ten@__crt_strtox@@YA_NAEAUbig_integer@2@I@Z@4QBUunpack_index@?1??12@YA_N0I@Z@B 00000000640a93f0     libucrt:strtod.obj
 0002:00007488       ?small_powers_of_ten@?6??multiply_by_power_of_ten@__crt_strtox@@YA_NAEAUbig_integer@2@I@Z@4QBIB 00000000640a9488     libucrt:strtod.obj
 0002:00009160       __acrt_exception_action_table 00000000640ab160     libucrt:exception_filter.obj
 0002:00009220       __acrt_signal_action_table_count 00000000640ab220     libucrt:exception_filter.obj
 0002:00009228       __acrt_signal_action_first_fpe_index 00000000640ab228     libucrt:exception_filter.obj
 0002:00009230       __acrt_signal_action_fpe_count 00000000640ab230     libucrt:exception_filter.obj
 0002:00009238       ??_C@_1BI@BGOHAHKC@?$AAm?$AAs?$AAc?$AAo?$AAr?$AAe?$AAe?$AA?4?$AAd?$AAl?$AAl?$AA?$AA@ 00000000640ab238     libucrt:exit.obj
 0002:00009250       ??_C@_0P@MIGLKIOC@CorExitProcess?$AA@ 00000000640ab250     libucrt:exit.obj
 0002:00009350       __lc_category              00000000640ab350     libucrt:wsetlocale.obj
 0002:000093e0       ??_C@_1O@GIFLHMA@?$AAL?$AAC?$AA_?$AAA?$AAL?$AAL?$AA?$AA@ 00000000640ab3e0     libucrt:wsetlocale.obj
 0002:000093f0       ??_C@_1BG@PPOMIBNJ@?$AAL?$AAC?$AA_?$AAC?$AAO?$AAL?$AAL?$AAA?$AAT?$AAE?$AA?$AA@ 00000000640ab3f0     libucrt:wsetlocale.obj
 0002:00009408       ??_C@_1BC@FFJGAPJM@?$AAL?$AAC?$AA_?$AAC?$AAT?$AAY?$AAP?$AAE?$AA?$AA@ 00000000640ab408     libucrt:wsetlocale.obj
 0002:00009420       ??_C@_1BI@PCKFNJFB@?$AAL?$AAC?$AA_?$AAM?$AAO?$AAN?$AAE?$AAT?$AAA?$AAR?$AAY?$AA?$AA@ 00000000640ab420     libucrt:wsetlocale.obj
 0002:00009438       ??_C@_1BG@ENIEDKID@?$AAL?$AAC?$AA_?$AAN?$AAU?$AAM?$AAE?$AAR?$AAI?$AAC?$AA?$AA@ 00000000640ab438     libucrt:wsetlocale.obj
 0002:00009450       ??_C@_1BA@HAAOMIIG@?$AAL?$AAC?$AA_?$AAT?$AAI?$AAM?$AAE?$AA?$AA@ 00000000640ab450     libucrt:wsetlocale.obj
 0002:000094e0       ??_C@_15NBPDDFIP@?$AA?$DN?$AA?$DL?$AA?$AA@ 00000000640ab4e0     libucrt:wsetlocale.obj
 0002:000094e8       ??_C@_13PJJBFPED@?$AA?$DL?$AA?$AA@ 00000000640ab4e8     libucrt:wsetlocale.obj
 0002:000094ec       ??_C@_13NMPKAAJP@?$AA?$DN?$AA?$AA@ 00000000640ab4ec     libucrt:wsetlocale.obj
 0002:000094f0       ??_C@_13FHBKNHDA@?$AAC?$AA?$AA@ 00000000640ab4f0     libucrt:wsetlocale.obj
 0002:000094f8       ??_C@_17MBJJLFDM@?$AA_?$AA?4?$AA?0?$AA?$AA@ 00000000640ab4f8     libucrt:wsetlocale.obj
 0002:00009500       __lc_time_c                00000000640ab500     libucrt:nlsdata.obj
 0002:000097c0       ??_C@_03KOEHGMDN@Sun?$AA@  00000000640ab7c0     libucrt:nlsdata.obj
 0002:000097c4       ??_C@_03PDAGKDH@Mon?$AA@   00000000640ab7c4     libucrt:nlsdata.obj
 0002:000097c8       ??_C@_03NAGEINEP@Tue?$AA@  00000000640ab7c8     libucrt:nlsdata.obj
 0002:000097cc       ??_C@_03MHOMLAJA@Wed?$AA@  00000000640ab7cc     libucrt:nlsdata.obj
 0002:000097d0       ??_C@_03IOFIKPDN@Thu?$AA@  00000000640ab7d0     libucrt:nlsdata.obj
 0002:000097d4       ??_C@_03IDIOELNC@Fri?$AA@  00000000640ab7d4     libucrt:nlsdata.obj
 0002:000097d8       ??_C@_03FEFJNEK@Sat?$AA@   00000000640ab7d8     libucrt:nlsdata.obj
 0002:000097dc       ??_C@_06OOPIFAJ@Sunday?$AA@ 00000000640ab7dc     libucrt:nlsdata.obj
 0002:000097e4       ??_C@_06JLEDEDGH@Monday?$AA@ 00000000640ab7e4     libucrt:nlsdata.obj
 0002:000097f0       ??_C@_07BAAGCFCM@Tuesday?$AA@ 00000000640ab7f0     libucrt:nlsdata.obj
 0002:000097f8       ??_C@_09DLIGFAKA@Wednesday?$AA@ 00000000640ab7f8     libucrt:nlsdata.obj
 0002:00009808       ??_C@_08HACCIKIA@Thursday?$AA@ 00000000640ab808     libucrt:nlsdata.obj
 0002:00009814       ??_C@_06JECMNKMI@Friday?$AA@ 00000000640ab814     libucrt:nlsdata.obj
 0002:00009820       ??_C@_08INBOOONO@Saturday?$AA@ 00000000640ab820     libucrt:nlsdata.obj
 0002:0000982c       ??_C@_03JIHJHPIE@Jan?$AA@  00000000640ab82c     libucrt:nlsdata.obj
 0002:00009830       ??_C@_03HJBDCHOM@Feb?$AA@  00000000640ab830     libucrt:nlsdata.obj
 0002:00009834       ??_C@_03ODNJBKGA@Mar?$AA@  00000000640ab834     libucrt:nlsdata.obj
 0002:00009838       ??_C@_03LEOLGMJP@Apr?$AA@  00000000640ab838     libucrt:nlsdata.obj
 0002:0000983c       ??_C@_03CNMDKL@May?$AA@    00000000640ab83c     libucrt:nlsdata.obj
 0002:00009840       ??_C@_03IDFGHECI@Jun?$AA@  00000000640ab840     libucrt:nlsdata.obj
 0002:00009844       ??_C@_03LBGABGKK@Jul?$AA@  00000000640ab844     libucrt:nlsdata.obj
 0002:00009848       ??_C@_03IFJFEIGA@Aug?$AA@  00000000640ab848     libucrt:nlsdata.obj
 0002:0000984c       ??_C@_03GGCAPAJC@Sep?$AA@  00000000640ab84c     libucrt:nlsdata.obj
 0002:00009850       ??_C@_03BMAOKBAD@Oct?$AA@  00000000640ab850     libucrt:nlsdata.obj
 0002:00009854       ??_C@_03JPJOFNIA@Nov?$AA@  00000000640ab854     libucrt:nlsdata.obj
 0002:00009858       ??_C@_03MKABNOCG@Dec?$AA@  00000000640ab858     libucrt:nlsdata.obj
 0002:00009860       ??_C@_07CGJPFGJA@January?$AA@ 00000000640ab860     libucrt:nlsdata.obj
 0002:00009868       ??_C@_08GNJGEPFN@February?$AA@ 00000000640ab868     libucrt:nlsdata.obj
 0002:00009874       ??_C@_05HPCKOFNC@March?$AA@ 00000000640ab874     libucrt:nlsdata.obj
 0002:0000987c       ??_C@_05DMJDNLEJ@April?$AA@ 00000000640ab87c     libucrt:nlsdata.obj
 0002:00009884       ??_C@_04CNLMGBGM@June?$AA@ 00000000640ab884     libucrt:nlsdata.obj
 0002:0000988c       ??_C@_04MIEPOIFP@July?$AA@ 00000000640ab88c     libucrt:nlsdata.obj
 0002:00009894       ??_C@_06LBBHFDDG@August?$AA@ 00000000640ab894     libucrt:nlsdata.obj
 0002:000098a0       ??_C@_09BHHEALKD@September?$AA@ 00000000640ab8a0     libucrt:nlsdata.obj
 0002:000098b0       ??_C@_07JJNFCEND@October?$AA@ 00000000640ab8b0     libucrt:nlsdata.obj
 0002:000098b8       ??_C@_08HCHEGEOA@November?$AA@ 00000000640ab8b8     libucrt:nlsdata.obj
 0002:000098c8       ??_C@_08EDHMEBNP@December?$AA@ 00000000640ab8c8     libucrt:nlsdata.obj
 0002:000098d4       ??_C@_02DEDBPAFC@AM?$AA@   00000000640ab8d4     libucrt:nlsdata.obj
 0002:000098d8       ??_C@_02CJNFDJBF@PM?$AA@   00000000640ab8d8     libucrt:nlsdata.obj
 0002:000098e0       ??_C@_08BPBNCDIB@MM?1dd?1yy?$AA@ 00000000640ab8e0     libucrt:nlsdata.obj
 0002:000098f0       ??_C@_0BE@CKGJFCPC@dddd?0?5MMMM?5dd?0?5yyyy?$AA@ 00000000640ab8f0     libucrt:nlsdata.obj
 0002:00009908       ??_C@_08JCCMCCIL@HH?3mm?3ss?$AA@ 00000000640ab908     libucrt:nlsdata.obj
 0002:00009918       ??_C@_17MBGCMIPB@?$AAS?$AAu?$AAn?$AA?$AA@ 00000000640ab918     libucrt:nlsdata.obj
 0002:00009920       ??_C@_17KBOMKBF@?$AAM?$AAo?$AAn?$AA?$AA@ 00000000640ab920     libucrt:nlsdata.obj
 0002:00009928       ??_C@_17BMKGEGOJ@?$AAT?$AAu?$AAe?$AA?$AA@ 00000000640ab928     libucrt:nlsdata.obj
 0002:00009930       ??_C@_17CJEDCEPE@?$AAW?$AAe?$AAd?$AA?$AA@ 00000000640ab930     libucrt:nlsdata.obj
 0002:00009938       ??_C@_17PDPHAADD@?$AAT?$AAh?$AAu?$AA?$AA@ 00000000640ab938     libucrt:nlsdata.obj
 0002:00009940       ??_C@_17HFOLPPLP@?$AAF?$AAr?$AAi?$AA?$AA@ 00000000640ab940     libucrt:nlsdata.obj
 0002:00009948       ??_C@_17GGIBDPIH@?$AAS?$AAa?$AAt?$AA?$AA@ 00000000640ab948     libucrt:nlsdata.obj
 0002:00009950       ??_C@_1O@IHNHDHPB@?$AAS?$AAu?$AAn?$AAd?$AAa?$AAy?$AA?$AA@ 00000000640ab950     libucrt:nlsdata.obj
 0002:00009960       ??_C@_1O@MMNBFLIA@?$AAM?$AAo?$AAn?$AAd?$AAa?$AAy?$AA?$AA@ 00000000640ab960     libucrt:nlsdata.obj
 0002:00009970       ??_C@_1BA@ENFBFFEK@?$AAT?$AAu?$AAe?$AAs?$AAd?$AAa?$AAy?$AA?$AA@ 00000000640ab970     libucrt:nlsdata.obj
 0002:00009980       ??_C@_1BE@EBOGMDOH@?$AAW?$AAe?$AAd?$AAn?$AAe?$AAs?$AAd?$AAa?$AAy?$AA?$AA@ 00000000640ab980     libucrt:nlsdata.obj
 0002:00009998       ??_C@_1BC@HHMNLIHE@?$AAT?$AAh?$AAu?$AAr?$AAs?$AAd?$AAa?$AAy?$AA?$AA@ 00000000640ab998     libucrt:nlsdata.obj
 0002:000099b0       ??_C@_1O@PDICJHAG@?$AAF?$AAr?$AAi?$AAd?$AAa?$AAy?$AA?$AA@ 00000000640ab9b0     libucrt:nlsdata.obj
 0002:000099c0       ??_C@_1BC@ENMNNPAJ@?$AAS?$AAa?$AAt?$AAu?$AAr?$AAd?$AAa?$AAy?$AA?$AA@ 00000000640ab9c0     libucrt:nlsdata.obj
 0002:000099d8       ??_C@_17DKNBKCHM@?$AAJ?$AAa?$AAn?$AA?$AA@ 00000000640ab9d8     libucrt:nlsdata.obj
 0002:000099e0       ??_C@_17LMDJEKJN@?$AAF?$AAe?$AAb?$AA?$AA@ 00000000640ab9e0     libucrt:nlsdata.obj
 0002:000099e8       ??_C@_17CKNLEDEC@?$AAM?$AAa?$AAr?$AA?$AA@ 00000000640ab9e8     libucrt:nlsdata.obj
 0002:000099f0       ??_C@_17LFPOIHDD@?$AAA?$AAp?$AAr?$AA?$AA@ 00000000640ab9f0     libucrt:nlsdata.obj
 0002:000099f8       ??_C@_17PNNKMEED@?$AAM?$AAa?$AAy?$AA?$AA@ 00000000640ab9f8     libucrt:nlsdata.obj
 0002:00009a00       ??_C@_17KCJGOCPB@?$AAJ?$AAu?$AAn?$AA?$AA@ 00000000640aba00     libucrt:nlsdata.obj
 0002:00009a08       ??_C@_17IJPCKHK@?$AAJ?$AAu?$AAl?$AA?$AA@ 00000000640aba08     libucrt:nlsdata.obj
 0002:00009a10       ??_C@_17ICPELBCN@?$AAA?$AAu?$AAg?$AA?$AA@ 00000000640aba10     libucrt:nlsdata.obj
 0002:00009a18       ??_C@_17HCHCOKMG@?$AAS?$AAe?$AAp?$AA?$AA@ 00000000640aba18     libucrt:nlsdata.obj
 0002:00009a20       ??_C@_17FNLKOI@?$AAO?$AAc?$AAt?$AA?$AA@ 00000000640aba20     libucrt:nlsdata.obj
 0002:00009a28       ??_C@_17BBDMLCIG@?$AAN?$AAo?$AAv?$AA?$AA@ 00000000640aba28     libucrt:nlsdata.obj
 0002:00009a30       ??_C@_17EGKACKIF@?$AAD?$AAe?$AAc?$AA?$AA@ 00000000640aba30     libucrt:nlsdata.obj
 0002:00009a38       ??_C@_1BA@EFMEIEBA@?$AAJ?$AAa?$AAn?$AAu?$AAa?$AAr?$AAy?$AA?$AA@ 00000000640aba38     libucrt:nlsdata.obj
 0002:00009a48       ??_C@_1BC@JGDDFFAM@?$AAF?$AAe?$AAb?$AAr?$AAu?$AAa?$AAr?$AAy?$AA?$AA@ 00000000640aba48     libucrt:nlsdata.obj
 0002:00009a60       ??_C@_1M@IKEENEDF@?$AAM?$AAa?$AAr?$AAc?$AAh?$AA?$AA@ 00000000640aba60     libucrt:nlsdata.obj
 0002:00009a70       ??_C@_1M@GJNLMHFD@?$AAA?$AAp?$AAr?$AAi?$AAl?$AA?$AA@ 00000000640aba70     libucrt:nlsdata.obj
 0002:00009a80       ??_C@_19EPFLPGAP@?$AAJ?$AAu?$AAn?$AAe?$AA?$AA@ 00000000640aba80     libucrt:nlsdata.obj
 0002:00009a90       ??_C@_19BIFMLPCD@?$AAJ?$AAu?$AAl?$AAy?$AA?$AA@ 00000000640aba90     libucrt:nlsdata.obj
 0002:00009aa0       ??_C@_1O@PAHLKOAC@?$AAA?$AAu?$AAg?$AAu?$AAs?$AAt?$AA?$AA@ 00000000640abaa0     libucrt:nlsdata.obj
 0002:00009ab0       ??_C@_1BE@DKAAMBJL@?$AAS?$AAe?$AAp?$AAt?$AAe?$AAm?$AAb?$AAe?$AAr?$AA?$AA@ 00000000640abab0     libucrt:nlsdata.obj
 0002:00009ac8       ??_C@_1BA@EPANDLNG@?$AAO?$AAc?$AAt?$AAo?$AAb?$AAe?$AAr?$AA?$AA@ 00000000640abac8     libucrt:nlsdata.obj
 0002:00009ad8       ??_C@_1BC@BGLIFPF@?$AAN?$AAo?$AAv?$AAe?$AAm?$AAb?$AAe?$AAr?$AA?$AA@ 00000000640abad8     libucrt:nlsdata.obj
 0002:00009af0       ??_C@_1BC@FEMKIFH@?$AAD?$AAe?$AAc?$AAe?$AAm?$AAb?$AAe?$AAr?$AA?$AA@ 00000000640abaf0     libucrt:nlsdata.obj
 0002:00009b04       ??_C@_15ODEHAHHF@?$AAA?$AAM?$AA?$AA@ 00000000640abb04     libucrt:nlsdata.obj
 0002:00009b0c       ??_C@_15CLMNNGEL@?$AAP?$AAM?$AA?$AA@ 00000000640abb0c     libucrt:nlsdata.obj
 0002:00009b18       ??_C@_1BC@IEBCMHCM@?$AAM?$AAM?$AA?1?$AAd?$AAd?$AA?1?$AAy?$AAy?$AA?$AA@ 00000000640abb18     libucrt:nlsdata.obj
 0002:00009b30       ??_C@_1CI@KNAKOEBC@?$AAd?$AAd?$AAd?$AAd?$AA?0?$AA?5?$AAM?$AAM?$AAM?$AAM?$AA?5?$AAd?$AAd?$AA?0?$AA?5?$AAy?$AAy?$AAy?$AAy?$AA?$AA@ 00000000640abb30     libucrt:nlsdata.obj
 0002:00009b58       ??_C@_1BC@GDGBMEMK@?$AAH?$AAH?$AA?3?$AAm?$AAm?$AA?3?$AAs?$AAs?$AA?$AA@ 00000000640abb58     libucrt:nlsdata.obj
 0002:00009b6c       ??_C@_03OEIAHPBN@INF?$AA@  00000000640abb6c     libucrt:cvt.obj
 0002:00009b70       ??_C@_03OJHLLCGB@inf?$AA@  00000000640abb70     libucrt:cvt.obj
 0002:00009b74       ??_C@_03LKNCIKJB@NAN?$AA@  00000000640abb74     libucrt:cvt.obj
 0002:00009b78       ??_C@_03LHCJEHON@nan?$AA@  00000000640abb78     libucrt:cvt.obj
 0002:00009b80       ??_C@_09OFJJIMPC@NAN?$CISNAN?$CJ?$AA@ 00000000640abb80     libucrt:cvt.obj
 0002:00009b90       ??_C@_09IPFBKMDL@nan?$CIsnan?$CJ?$AA@ 00000000640abb90     libucrt:cvt.obj
 0002:00009ba0       ??_C@_08IKHNHAJ@NAN?$CIIND?$CJ?$AA@ 00000000640abba0     libucrt:cvt.obj
 0002:00009bb0       ??_C@_08OFCDMILK@nan?$CIind?$CJ?$AA@ 00000000640abbb0     libucrt:cvt.obj
 0002:00009bbc       ??_C@_05KLBDPFGC@e?$CL000?$AA@ 00000000640abbbc     libucrt:cvt.obj
 0002:00009da0       ??_C@_03KHJOGHMM@exp?$AA@  00000000640abda0     libucrt:fpexcept.obj
 0002:00009da4       ??_C@_03JGHBODFD@pow?$AA@  00000000640abda4     libucrt:fpexcept.obj
 0002:00009da8       ??_C@_03MGHMBJCF@log?$AA@  00000000640abda8     libucrt:fpexcept.obj
 0002:00009dac       ??_C@_05HGHHAHAP@log10?$AA@ 00000000640abdac     libucrt:fpexcept.obj
 0002:00009db4       ??_C@_04COOMCNPB@sinh?$AA@ 00000000640abdb4     libucrt:fpexcept.obj
 0002:00009dbc       ??_C@_04HPJJNFIM@cosh?$AA@ 00000000640abdbc     libucrt:fpexcept.obj
 0002:00009dc4       ??_C@_04FJHINJAO@tanh?$AA@ 00000000640abdc4     libucrt:fpexcept.obj
 0002:00009dcc       ??_C@_04FIHNOPOL@asin?$AA@ 00000000640abdcc     libucrt:fpexcept.obj
 0002:00009dd4       ??_C@_04PDIFKINK@acos?$AA@ 00000000640abdd4     libucrt:fpexcept.obj
 0002:00009ddc       ??_C@_04MLLJIGOK@atan?$AA@ 00000000640abddc     libucrt:fpexcept.obj
 0002:00009de4       ??_C@_05KNGEOGJB@atan2?$AA@ 00000000640abde4     libucrt:fpexcept.obj
 0002:00009dec       ??_C@_04EIAKFFMI@sqrt?$AA@ 00000000640abdec     libucrt:fpexcept.obj
 0002:00009df4       ??_C@_03BLEJJJBH@sin?$AA@  00000000640abdf4     libucrt:fpexcept.obj
 0002:00009df8       ??_C@_03LALBNOCG@cos?$AA@  00000000640abdf8     libucrt:fpexcept.obj
 0002:00009dfc       ??_C@_03IIINPABG@tan?$AA@  00000000640abdfc     libucrt:fpexcept.obj
 0002:00009e00       ??_C@_04GFPJNGEK@ceil?$AA@ 00000000640abe00     libucrt:fpexcept.obj
 0002:00009e08       ??_C@_05PBJFFIGL@floor?$AA@ 00000000640abe08     libucrt:fpexcept.obj
 0002:00009e10       ??_C@_04ODHECPBC@fabs?$AA@ 00000000640abe10     libucrt:fpexcept.obj
 0002:00009e18       ??_C@_04EHEDPDJG@modf?$AA@ 00000000640abe18     libucrt:fpexcept.obj
 0002:00009e20       ??_C@_05CEJMAHNP@ldexp?$AA@ 00000000640abe20     libucrt:fpexcept.obj
 0002:00009e28       ??_C@_05KBKMEMPO@_cabs?$AA@ 00000000640abe28     libucrt:fpexcept.obj
 0002:00009e30       ??_C@_06MEIMCGCF@_hypot?$AA@ 00000000640abe30     libucrt:fpexcept.obj
 0002:00009e38       ??_C@_04KEPJIHGP@fmod?$AA@ 00000000640abe38     libucrt:fpexcept.obj
 0002:00009e40       ??_C@_05GKKHEGJL@frexp?$AA@ 00000000640abe40     libucrt:fpexcept.obj
 0002:00009e48       ??_C@_03MJLDFKDL@_y0?$AA@  00000000640abe48     libucrt:fpexcept.obj
 0002:00009e4c       ??_C@_03NAKIGLHK@_y1?$AA@  00000000640abe4c     libucrt:fpexcept.obj
 0002:00009e50       ??_C@_03ONILCKOB@_yn?$AA@  00000000640abe50     libucrt:fpexcept.obj
 0002:00009e54       ??_C@_05JGDBENOH@_logb?$AA@ 00000000640abe54     libucrt:fpexcept.obj
 0002:00009e60       ??_C@_0L@KDOEJCKC@_nextafter?$AA@ 00000000640abe60     libucrt:fpexcept.obj
 0002:00009e70       _d_inf                     00000000640abe70     libucrt:util.obj
 0002:00009e78       _d_max                     00000000640abe78     libucrt:util.obj
 0002:00009f20       ??_C@_1EG@CNNIPFIM@?$AAa?$AAp?$AAi?$AA?9?$AAm?$AAs?$AA?9?$AAw?$AAi?$AAn?$AA?9?$AAa?$AAp?$AAp?$AAm?$AAo?$AAd?$AAe?$AAl?$AA?9?$AAr?$AAu?$AAn?$AAt?$AAi?$AAm?$AAe?$AA?9?$AAl?$AA1?$AA?9?$AA1@ 00000000640abf20     libucrt:winapi_thunks.obj
 0002:00009f70       ??_C@_1EA@JGEFHKEI@?$AAa?$AAp?$AAi?$AA?9?$AAm?$AAs?$AA?9?$AAw?$AAi?$AAn?$AA?9?$AAc?$AAo?$AAr?$AAe?$AA?9?$AAd?$AAa?$AAt?$AAe?$AAt?$AAi?$AAm?$AAe?$AA?9?$AAl?$AA1?$AA?9?$AA1?$AA?9?$AA1?$AA?$AA@ 00000000640abf70     libucrt:winapi_thunks.obj
 0002:00009fb0       ??_C@_1DI@GCIAAENM@?$AAa?$AAp?$AAi?$AA?9?$AAm?$AAs?$AA?9?$AAw?$AAi?$AAn?$AA?9?$AAc?$AAo?$AAr?$AAe?$AA?9?$AAf?$AAi?$AAl?$AAe?$AA?9?$AAl?$AA2?$AA?9?$AA1?$AA?9?$AA1?$AA?$AA@ 00000000640abfb0     libucrt:winapi_thunks.obj
 0002:00009ff0       ??_C@_1EI@MPIAOHOC@?$AAa?$AAp?$AAi?$AA?9?$AAm?$AAs?$AA?9?$AAw?$AAi?$AAn?$AA?9?$AAc?$AAo?$AAr?$AAe?$AA?9?$AAl?$AAo?$AAc?$AAa?$AAl?$AAi?$AAz?$AAa?$AAt?$AAi?$AAo?$AAn?$AA?9?$AAl?$AA1?$AA?9@ 00000000640abff0     libucrt:winapi_thunks.obj
 0002:0000a040       ??_C@_1FK@FPHCKFIE@?$AAa?$AAp?$AAi?$AA?9?$AAm?$AAs?$AA?9?$AAw?$AAi?$AAn?$AA?9?$AAc?$AAo?$AAr?$AAe?$AA?9?$AAl?$AAo?$AAc?$AAa?$AAl?$AAi?$AAz?$AAa?$AAt?$AAi?$AAo?$AAn?$AA?9?$AAo?$AAb?$AAs@ 00000000640ac040     libucrt:winapi_thunks.obj
 0002:0000a0a0       ??_C@_1EM@DILCGIIO@?$AAa?$AAp?$AAi?$AA?9?$AAm?$AAs?$AA?9?$AAw?$AAi?$AAn?$AA?9?$AAc?$AAo?$AAr?$AAe?$AA?9?$AAp?$AAr?$AAo?$AAc?$AAe?$AAs?$AAs?$AAt?$AAh?$AAr?$AAe?$AAa?$AAd?$AAs?$AA?9?$AAl@ 00000000640ac0a0     libucrt:winapi_thunks.obj
 0002:0000a0f0       ??_C@_1DM@LNCGDDPN@?$AAa?$AAp?$AAi?$AA?9?$AAm?$AAs?$AA?9?$AAw?$AAi?$AAn?$AA?9?$AAc?$AAo?$AAr?$AAe?$AA?9?$AAs?$AAt?$AAr?$AAi?$AAn?$AAg?$AA?9?$AAl?$AA1?$AA?9?$AA1?$AA?9?$AA0?$AA?$AA@ 00000000640ac0f0     libucrt:winapi_thunks.obj
 0002:0000a130       ??_C@_1DO@FPAPJEMD@?$AAa?$AAp?$AAi?$AA?9?$AAm?$AAs?$AA?9?$AAw?$AAi?$AAn?$AA?9?$AAc?$AAo?$AAr?$AAe?$AA?9?$AAs?$AAy?$AAs?$AAi?$AAn?$AAf?$AAo?$AA?9?$AAl?$AA1?$AA?9?$AA2?$AA?9?$AA1?$AA?$AA@ 00000000640ac130     libucrt:winapi_thunks.obj
 0002:0000a170       ??_C@_1DK@NDHNAHIO@?$AAa?$AAp?$AAi?$AA?9?$AAm?$AAs?$AA?9?$AAw?$AAi?$AAn?$AA?9?$AAc?$AAo?$AAr?$AAe?$AA?9?$AAw?$AAi?$AAn?$AAr?$AAt?$AA?9?$AAl?$AA1?$AA?9?$AA1?$AA?9?$AA0?$AA?$AA@ 00000000640ac170     libucrt:winapi_thunks.obj
 0002:0000a1b0       ??_C@_1DM@KGHDGBCM@?$AAa?$AAp?$AAi?$AA?9?$AAm?$AAs?$AA?9?$AAw?$AAi?$AAn?$AA?9?$AAc?$AAo?$AAr?$AAe?$AA?9?$AAx?$AAs?$AAt?$AAa?$AAt?$AAe?$AA?9?$AAl?$AA2?$AA?9?$AA1?$AA?9?$AA0?$AA?$AA@ 00000000640ac1b0     libucrt:winapi_thunks.obj
 0002:0000a1f0       ??_C@_1EO@IJIOEFOH@?$AAa?$AAp?$AAi?$AA?9?$AAm?$AAs?$AA?9?$AAw?$AAi?$AAn?$AA?9?$AAr?$AAt?$AAc?$AAo?$AAr?$AAe?$AA?9?$AAn?$AAt?$AAu?$AAs?$AAe?$AAr?$AA?9?$AAw?$AAi?$AAn?$AAd?$AAo?$AAw?$AA?9@ 00000000640ac1f0     libucrt:winapi_thunks.obj
 0002:0000a240       ??_C@_1FG@HHGEKANL@?$AAa?$AAp?$AAi?$AA?9?$AAm?$AAs?$AA?9?$AAw?$AAi?$AAn?$AA?9?$AAs?$AAe?$AAc?$AAu?$AAr?$AAi?$AAt?$AAy?$AA?9?$AAs?$AAy?$AAs?$AAt?$AAe?$AAm?$AAf?$AAu?$AAn?$AAc?$AAt?$AAi@ 00000000640ac240     libucrt:winapi_thunks.obj
 0002:0000a2a0       ??_C@_1FG@NCKKOLKO@?$AAe?$AAx?$AAt?$AA?9?$AAm?$AAs?$AA?9?$AAw?$AAi?$AAn?$AA?9?$AAk?$AAe?$AAr?$AAn?$AAe?$AAl?$AA3?$AA2?$AA?9?$AAp?$AAa?$AAc?$AAk?$AAa?$AAg?$AAe?$AA?9?$AAc?$AAu?$AAr?$AAr@ 00000000640ac2a0     libucrt:winapi_thunks.obj
 0002:0000a300       ??_C@_1EG@DBIOJECG@?$AAe?$AAx?$AAt?$AA?9?$AAm?$AAs?$AA?9?$AAw?$AAi?$AAn?$AA?9?$AAn?$AAt?$AAu?$AAs?$AAe?$AAr?$AA?9?$AAd?$AAi?$AAa?$AAl?$AAo?$AAg?$AAb?$AAo?$AAx?$AA?9?$AAl?$AA1?$AA?9?$AA1@ 00000000640ac300     libucrt:winapi_thunks.obj
 0002:0000a350       ??_C@_1EO@FIHMJCLF@?$AAe?$AAx?$AAt?$AA?9?$AAm?$AAs?$AA?9?$AAw?$AAi?$AAn?$AA?9?$AAn?$AAt?$AAu?$AAs?$AAe?$AAr?$AA?9?$AAw?$AAi?$AAn?$AAd?$AAo?$AAw?$AAs?$AAt?$AAa?$AAt?$AAi?$AAo?$AAn?$AA?9@ 00000000640ac350     libucrt:winapi_thunks.obj
 0002:0000a3a0       ??_C@_1O@BCCLBEOE@?$AAu?$AAs?$AAe?$AAr?$AA3?$AA2?$AA?$AA@ 00000000640ac3a0     libucrt:winapi_thunks.obj
 0002:0000a3c0       ??_C@_0BE@LJANKFHF@EnumSystemLocalesEx?$AA@ 00000000640ac3c0     libucrt:winapi_thunks.obj
 0002:0000a410       ??_C@_0BJ@PBCCBIPI@GetUserDefaultLocaleName?$AA@ 00000000640ac410     libucrt:winapi_thunks.obj
 0002:0000a440       ??_C@_0BC@CELBKLLA@IsValidLocaleName?$AA@ 00000000640ac440     libucrt:winapi_thunks.obj
 0002:0000a468       ??_C@_0BB@CDHDDLLP@LCIDToLocaleName?$AA@ 00000000640ac468     libucrt:winapi_thunks.obj
 0002:0000a488       ??_C@_0BB@HBDEELFH@LocaleNameToLCID?$AA@ 00000000640ac488     libucrt:winapi_thunks.obj
 0002:0000a4a0       __log_256_lead             00000000640ac4a0     libucrt:log_256_lead_tail_table.obj
 0002:0000acb0       __log_256_tail             00000000640accb0     libucrt:log_256_lead_tail_table.obj
 0002:0000b4c0       __two_to_jby64_head_table  00000000640ad4c0     libucrt:two_to_jby64_head_tail_table.obj
 0002:0000b6c0       __two_to_jby64_tail_table  00000000640ad6c0     libucrt:two_to_jby64_head_tail_table.obj
 0002:0000b8c0       ??_C@_04MBFDLNIM@powf?$AA@ 00000000640ad8c0     libucrt:pow_special.obj
 0002:0000b8d0       __two_to_jby64_table       00000000640ad8d0     libucrt:two_to_jby64_table.obj
 0002:0000bad0       __log_F_inv_qword          00000000640adad0     libucrt:log_f_inv_qword_table.obj
 0002:0000c300       __acrt_rg_language         00000000640ae300     libucrt:get_qualified_locale.obj
 0002:0000c710       __acrt_rg_language_count   00000000640ae710     libucrt:get_qualified_locale.obj
 0002:0000c720       __acrt_rg_country          00000000640ae720     libucrt:get_qualified_locale.obj
 0002:0000c890       __acrt_rg_country_count    00000000640ae890     libucrt:get_qualified_locale.obj
 0002:0000c898       ??_C@_1BC@LLOKLNP@?$AAa?$AAm?$AAe?$AAr?$AAi?$AAc?$AAa?$AAn?$AA?$AA@ 00000000640ae898     libucrt:get_qualified_locale.obj
 0002:0000c8b0       ??_C@_1CC@HEIGCDGG@?$AAa?$AAm?$AAe?$AAr?$AAi?$AAc?$AAa?$AAn?$AA?5?$AAe?$AAn?$AAg?$AAl?$AAi?$AAs?$AAh?$AA?$AA@ 00000000640ae8b0     libucrt:get_qualified_locale.obj
 0002:0000c8d8       ??_C@_1CC@IHCNOMIN@?$AAa?$AAm?$AAe?$AAr?$AAi?$AAc?$AAa?$AAn?$AA?9?$AAe?$AAn?$AAg?$AAl?$AAi?$AAs?$AAh?$AA?$AA@ 00000000640ae8d8     libucrt:get_qualified_locale.obj
 0002:0000c900       ??_C@_1BG@GKAGPCGG@?$AAa?$AAu?$AAs?$AAt?$AAr?$AAa?$AAl?$AAi?$AAa?$AAn?$AA?$AA@ 00000000640ae900     libucrt:get_qualified_locale.obj
 0002:0000c918       ??_C@_1BA@GMENCENF@?$AAb?$AAe?$AAl?$AAg?$AAi?$AAa?$AAn?$AA?$AA@ 00000000640ae918     libucrt:get_qualified_locale.obj
 0002:0000c928       ??_C@_1BC@PJMIIAAN@?$AAc?$AAa?$AAn?$AAa?$AAd?$AAi?$AAa?$AAn?$AA?$AA@ 00000000640ae928     libucrt:get_qualified_locale.obj
 0002:0000c940       ??_C@_17NOIMNFBF@?$AAc?$AAh?$AAh?$AA?$AA@ 00000000640ae940     libucrt:get_qualified_locale.obj
 0002:0000c948       ??_C@_17GGDALCHA@?$AAc?$AAh?$AAi?$AA?$AA@ 00000000640ae948     libucrt:get_qualified_locale.obj
 0002:0000c950       ??_C@_1BA@NPNJKIBL@?$AAc?$AAh?$AAi?$AAn?$AAe?$AAs?$AAe?$AA?$AA@ 00000000640ae950     libucrt:get_qualified_locale.obj
 0002:0000c960       ??_C@_1CC@DINBAMMJ@?$AAc?$AAh?$AAi?$AAn?$AAe?$AAs?$AAe?$AA?9?$AAh?$AAo?$AAn?$AAg?$AAk?$AAo?$AAn?$AAg?$AA?$AA@ 00000000640ae960     libucrt:get_qualified_locale.obj
 0002:0000c988       ??_C@_1CG@IOBJPACO@?$AAc?$AAh?$AAi?$AAn?$AAe?$AAs?$AAe?$AA?9?$AAs?$AAi?$AAm?$AAp?$AAl?$AAi?$AAf?$AAi?$AAe?$AAd?$AA?$AA@ 00000000640ae988     libucrt:get_qualified_locale.obj
 0002:0000c9b0       ??_C@_1CE@GAJNDCKG@?$AAc?$AAh?$AAi?$AAn?$AAe?$AAs?$AAe?$AA?9?$AAs?$AAi?$AAn?$AAg?$AAa?$AAp?$AAo?$AAr?$AAe?$AA?$AA@ 00000000640ae9b0     libucrt:get_qualified_locale.obj
 0002:0000c9d8       ??_C@_1CI@PAJPIOOD@?$AAc?$AAh?$AAi?$AAn?$AAe?$AAs?$AAe?$AA?9?$AAt?$AAr?$AAa?$AAd?$AAi?$AAt?$AAi?$AAo?$AAn?$AAa?$AAl?$AA?$AA@ 00000000640ae9d8     libucrt:get_qualified_locale.obj
 0002:0000ca00       ??_C@_1BM@NILJBMMD@?$AAd?$AAu?$AAt?$AAc?$AAh?$AA?9?$AAb?$AAe?$AAl?$AAg?$AAi?$AAa?$AAn?$AA?$AA@ 00000000640aea00     libucrt:get_qualified_locale.obj
 0002:0000ca20       ??_C@_1CC@OOJPJNEJ@?$AAe?$AAn?$AAg?$AAl?$AAi?$AAs?$AAh?$AA?9?$AAa?$AAm?$AAe?$AAr?$AAi?$AAc?$AAa?$AAn?$AA?$AA@ 00000000640aea20     libucrt:get_qualified_locale.obj
 0002:0000ca48       ??_C@_1BI@IOLFEEM@?$AAe?$AAn?$AAg?$AAl?$AAi?$AAs?$AAh?$AA?9?$AAa?$AAu?$AAs?$AA?$AA@ 00000000640aea48     libucrt:get_qualified_locale.obj
 0002:0000ca60       ??_C@_1BO@HFFNLENJ@?$AAe?$AAn?$AAg?$AAl?$AAi?$AAs?$AAh?$AA?9?$AAb?$AAe?$AAl?$AAi?$AAz?$AAe?$AA?$AA@ 00000000640aea60     libucrt:get_qualified_locale.obj
 0002:0000ca80       ??_C@_1BI@HAPKJMPO@?$AAe?$AAn?$AAg?$AAl?$AAi?$AAs?$AAh?$AA?9?$AAc?$AAa?$AAn?$AA?$AA@ 00000000640aea80     libucrt:get_qualified_locale.obj
 0002:0000ca98       ??_C@_1CE@HLNDMIOJ@?$AAe?$AAn?$AAg?$AAl?$AAi?$AAs?$AAh?$AA?9?$AAc?$AAa?$AAr?$AAi?$AAb?$AAb?$AAe?$AAa?$AAn?$AA?$AA@ 00000000640aea98     libucrt:get_qualified_locale.obj
 0002:0000cac0       ??_C@_1BI@LDHJHHAC@?$AAe?$AAn?$AAg?$AAl?$AAi?$AAs?$AAh?$AA?9?$AAi?$AAr?$AAe?$AA?$AA@ 00000000640aeac0     libucrt:get_qualified_locale.obj
 0002:0000cad8       ??_C@_1CA@NJMMCFOC@?$AAe?$AAn?$AAg?$AAl?$AAi?$AAs?$AAh?$AA?9?$AAj?$AAa?$AAm?$AAa?$AAi?$AAc?$AAa?$AA?$AA@ 00000000640aead8     libucrt:get_qualified_locale.obj
 0002:0000caf8       ??_C@_1BG@BHJEBBGG@?$AAe?$AAn?$AAg?$AAl?$AAi?$AAs?$AAh?$AA?9?$AAn?$AAz?$AA?$AA@ 00000000640aeaf8     libucrt:get_qualified_locale.obj
 0002:0000cb10       ??_C@_1CK@FGOEJJCO@?$AAe?$AAn?$AAg?$AAl?$AAi?$AAs?$AAh?$AA?9?$AAs?$AAo?$AAu?$AAt?$AAh?$AA?5?$AAa?$AAf?$AAr?$AAi?$AAc?$AAa?$AA?$AA@ 00000000640aeb10     libucrt:get_qualified_locale.obj
 0002:0000cb40       ??_C@_1DE@PDBJPCJ@?$AAe?$AAn?$AAg?$AAl?$AAi?$AAs?$AAh?$AA?9?$AAt?$AAr?$AAi?$AAn?$AAi?$AAd?$AAa?$AAd?$AA?5?$AAy?$AA?5?$AAt?$AAo?$AAb?$AAa?$AAg?$AAo?$AA?$AA@ 00000000640aeb40     libucrt:get_qualified_locale.obj
 0002:0000cb78       ??_C@_1BG@JGCANDME@?$AAe?$AAn?$AAg?$AAl?$AAi?$AAs?$AAh?$AA?9?$AAu?$AAk?$AA?$AA@ 00000000640aeb78     libucrt:get_qualified_locale.obj
 0002:0000cb90       ??_C@_1BG@DINKMLE@?$AAe?$AAn?$AAg?$AAl?$AAi?$AAs?$AAh?$AA?9?$AAu?$AAs?$AA?$AA@ 00000000640aeb90     libucrt:get_qualified_locale.obj
 0002:0000cba8       ??_C@_1BI@NMFDBHJE@?$AAe?$AAn?$AAg?$AAl?$AAi?$AAs?$AAh?$AA?9?$AAu?$AAs?$AAa?$AA?$AA@ 00000000640aeba8     libucrt:get_qualified_locale.obj
 0002:0000cbc0       ??_C@_1BO@OIHKJKII@?$AAf?$AAr?$AAe?$AAn?$AAc?$AAh?$AA?9?$AAb?$AAe?$AAl?$AAg?$AAi?$AAa?$AAn?$AA?$AA@ 00000000640aebc0     libucrt:get_qualified_locale.obj
 0002:0000cbe0       ??_C@_1CA@NKAELJKI@?$AAf?$AAr?$AAe?$AAn?$AAc?$AAh?$AA?9?$AAc?$AAa?$AAn?$AAa?$AAd?$AAi?$AAa?$AAn?$AA?$AA@ 00000000640aebe0     libucrt:get_qualified_locale.obj
 0002:0000cc00       ??_C@_1CE@MGKCNLGN@?$AAf?$AAr?$AAe?$AAn?$AAc?$AAh?$AA?9?$AAl?$AAu?$AAx?$AAe?$AAm?$AAb?$AAo?$AAu?$AAr?$AAg?$AA?$AA@ 00000000640aec00     libucrt:get_qualified_locale.obj
 0002:0000cc28       ??_C@_1BK@CEGEAILM@?$AAf?$AAr?$AAe?$AAn?$AAc?$AAh?$AA?9?$AAs?$AAw?$AAi?$AAs?$AAs?$AA?$AA@ 00000000640aec28     libucrt:get_qualified_locale.obj
 0002:0000cc48       ??_C@_1CA@PAFKEOCC@?$AAg?$AAe?$AAr?$AAm?$AAa?$AAn?$AA?9?$AAa?$AAu?$AAs?$AAt?$AAr?$AAi?$AAa?$AAn?$AA?$AA@ 00000000640aec48     libucrt:get_qualified_locale.obj
 0002:0000cc68       ??_C@_1CI@HCFHGOFD@?$AAg?$AAe?$AAr?$AAm?$AAa?$AAn?$AA?9?$AAl?$AAi?$AAc?$AAh?$AAt?$AAe?$AAn?$AAs?$AAt?$AAe?$AAi?$AAn?$AA?$AA@ 00000000640aec68     libucrt:get_qualified_locale.obj
 0002:0000cc90       ??_C@_1CE@FEDDNPDG@?$AAg?$AAe?$AAr?$AAm?$AAa?$AAn?$AA?9?$AAl?$AAu?$AAx?$AAe?$AAm?$AAb?$AAo?$AAu?$AAr?$AAg?$AA?$AA@ 00000000640aec90     libucrt:get_qualified_locale.obj
 0002:0000ccb8       ??_C@_1BK@LIMINNMN@?$AAg?$AAe?$AAr?$AAm?$AAa?$AAn?$AA?9?$AAs?$AAw?$AAi?$AAs?$AAs?$AA?$AA@ 00000000640aecb8     libucrt:get_qualified_locale.obj
 0002:0000ccd8       ??_C@_1BM@LGMDBEPD@?$AAi?$AAr?$AAi?$AAs?$AAh?$AA?9?$AAe?$AAn?$AAg?$AAl?$AAi?$AAs?$AAh?$AA?$AA@ 00000000640aecd8     libucrt:get_qualified_locale.obj
 0002:0000ccf8       ??_C@_1BM@NNCFBAEE@?$AAi?$AAt?$AAa?$AAl?$AAi?$AAa?$AAn?$AA?9?$AAs?$AAw?$AAi?$AAs?$AAs?$AA?$AA@ 00000000640aecf8     libucrt:get_qualified_locale.obj
 0002:0000cd18       ??_C@_1BE@FEDJNPIB@?$AAn?$AAo?$AAr?$AAw?$AAe?$AAg?$AAi?$AAa?$AAn?$AA?$AA@ 00000000640aed18     libucrt:get_qualified_locale.obj
 0002:0000cd30       ??_C@_1CC@CILKDEIE@?$AAn?$AAo?$AAr?$AAw?$AAe?$AAg?$AAi?$AAa?$AAn?$AA?9?$AAb?$AAo?$AAk?$AAm?$AAa?$AAl?$AA?$AA@ 00000000640aed30     libucrt:get_qualified_locale.obj
 0002:0000cd58       ??_C@_1CE@DHMMHEPL@?$AAn?$AAo?$AAr?$AAw?$AAe?$AAg?$AAi?$AAa?$AAn?$AA?9?$AAn?$AAy?$AAn?$AAo?$AAr?$AAs?$AAk?$AA?$AA@ 00000000640aed58     libucrt:get_qualified_locale.obj
 0002:0000cd80       ??_C@_1CK@OPNMHECD@?$AAp?$AAo?$AAr?$AAt?$AAu?$AAg?$AAu?$AAe?$AAs?$AAe?$AA?9?$AAb?$AAr?$AAa?$AAz?$AAi?$AAl?$AAi?$AAa?$AAn?$AA?$AA@ 00000000640aed80     libucrt:get_qualified_locale.obj
 0002:0000cdb0       ??_C@_1CE@KEEHCDB@?$AAs?$AAp?$AAa?$AAn?$AAi?$AAs?$AAh?$AA?9?$AAa?$AAr?$AAg?$AAe?$AAn?$AAt?$AAi?$AAn?$AAa?$AA?$AA@ 00000000640aedb0     libucrt:get_qualified_locale.obj
 0002:0000cdd8       ??_C@_1CA@GIAOLHJD@?$AAs?$AAp?$AAa?$AAn?$AAi?$AAs?$AAh?$AA?9?$AAb?$AAo?$AAl?$AAi?$AAv?$AAi?$AAa?$AA?$AA@ 00000000640aedd8     libucrt:get_qualified_locale.obj
 0002:0000cdf8       ??_C@_1BM@OJNDFNPD@?$AAs?$AAp?$AAa?$AAn?$AAi?$AAs?$AAh?$AA?9?$AAc?$AAh?$AAi?$AAl?$AAe?$AA?$AA@ 00000000640aedf8     libucrt:get_qualified_locale.obj
 0002:0000ce18       ??_C@_1CC@OCOLPALL@?$AAs?$AAp?$AAa?$AAn?$AAi?$AAs?$AAh?$AA?9?$AAc?$AAo?$AAl?$AAo?$AAm?$AAb?$AAi?$AAa?$AA?$AA@ 00000000640aee18     libucrt:get_qualified_locale.obj
 0002:0000ce40       ??_C@_1CG@BPOFMKBB@?$AAs?$AAp?$AAa?$AAn?$AAi?$AAs?$AAh?$AA?9?$AAc?$AAo?$AAs?$AAt?$AAa?$AA?5?$AAr?$AAi?$AAc?$AAa?$AA?$AA@ 00000000640aee40     libucrt:get_qualified_locale.obj
 0002:0000ce68       ??_C@_1DG@IGOBAPBB@?$AAs?$AAp?$AAa?$AAn?$AAi?$AAs?$AAh?$AA?9?$AAd?$AAo?$AAm?$AAi?$AAn?$AAi?$AAc?$AAa?$AAn?$AA?5?$AAr?$AAe?$AAp?$AAu?$AAb?$AAl?$AAi?$AAc?$AA?$AA@ 00000000640aee68     libucrt:get_qualified_locale.obj
 0002:0000cea0       ??_C@_1CA@JHAPGEGI@?$AAs?$AAp?$AAa?$AAn?$AAi?$AAs?$AAh?$AA?9?$AAe?$AAc?$AAu?$AAa?$AAd?$AAo?$AAr?$AA?$AA@ 00000000640aeea0     libucrt:get_qualified_locale.obj
 0002:0000cec0       ??_C@_1CI@LAPALJPP@?$AAs?$AAp?$AAa?$AAn?$AAi?$AAs?$AAh?$AA?9?$AAe?$AAl?$AA?5?$AAs?$AAa?$AAl?$AAv?$AAa?$AAd?$AAo?$AAr?$AA?$AA@ 00000000640aeec0     libucrt:get_qualified_locale.obj
 0002:0000cee8       ??_C@_1CE@PDGBOFOM@?$AAs?$AAp?$AAa?$AAn?$AAi?$AAs?$AAh?$AA?9?$AAg?$AAu?$AAa?$AAt?$AAe?$AAm?$AAa?$AAl?$AAa?$AA?$AA@ 00000000640aeee8     libucrt:get_qualified_locale.obj
 0002:0000cf10       ??_C@_1CC@NBEBAODI@?$AAs?$AAp?$AAa?$AAn?$AAi?$AAs?$AAh?$AA?9?$AAh?$AAo?$AAn?$AAd?$AAu?$AAr?$AAa?$AAs?$AA?$AA@ 00000000640aef10     libucrt:get_qualified_locale.obj
 0002:0000cf38       ??_C@_1CA@LLKGHBMF@?$AAs?$AAp?$AAa?$AAn?$AAi?$AAs?$AAh?$AA?9?$AAm?$AAe?$AAx?$AAi?$AAc?$AAa?$AAn?$AA?$AA@ 00000000640aef38     libucrt:get_qualified_locale.obj
 0002:0000cf58       ??_C@_1BO@LKNDOIGD@?$AAs?$AAp?$AAa?$AAn?$AAi?$AAs?$AAh?$AA?9?$AAm?$AAo?$AAd?$AAe?$AAr?$AAn?$AA?$AA@ 00000000640aef58     libucrt:get_qualified_locale.obj
 0002:0000cf78       ??_C@_1CE@NMDMOEEB@?$AAs?$AAp?$AAa?$AAn?$AAi?$AAs?$AAh?$AA?9?$AAn?$AAi?$AAc?$AAa?$AAr?$AAa?$AAg?$AAu?$AAa?$AA?$AA@ 00000000640aef78     libucrt:get_qualified_locale.obj
 0002:0000cfa0       ??_C@_1BO@LLCBEJGB@?$AAs?$AAp?$AAa?$AAn?$AAi?$AAs?$AAh?$AA?9?$AAp?$AAa?$AAn?$AAa?$AAm?$AAa?$AA?$AA@ 00000000640aefa0     libucrt:get_qualified_locale.obj
 0002:0000cfc0       ??_C@_1CC@FKPGGIHO@?$AAs?$AAp?$AAa?$AAn?$AAi?$AAs?$AAh?$AA?9?$AAp?$AAa?$AAr?$AAa?$AAg?$AAu?$AAa?$AAy?$AA?$AA@ 00000000640aefc0     libucrt:get_qualified_locale.obj
 0002:0000cfe8       ??_C@_1BK@CDEIHOOP@?$AAs?$AAp?$AAa?$AAn?$AAi?$AAs?$AAh?$AA?9?$AAp?$AAe?$AAr?$AAu?$AA?$AA@ 00000000640aefe8     libucrt:get_qualified_locale.obj
 0002:0000d008       ??_C@_1CI@GAHAKKGP@?$AAs?$AAp?$AAa?$AAn?$AAi?$AAs?$AAh?$AA?9?$AAp?$AAu?$AAe?$AAr?$AAt?$AAo?$AA?5?$AAr?$AAi?$AAc?$AAo?$AA?$AA@ 00000000640af008     libucrt:get_qualified_locale.obj
 0002:0000d030       ??_C@_1CA@NKJBCAGP@?$AAs?$AAp?$AAa?$AAn?$AAi?$AAs?$AAh?$AA?9?$AAu?$AAr?$AAu?$AAg?$AAu?$AAa?$AAy?$AA?$AA@ 00000000640af030     libucrt:get_qualified_locale.obj
 0002:0000d050       ??_C@_1CE@ODILCONM@?$AAs?$AAp?$AAa?$AAn?$AAi?$AAs?$AAh?$AA?9?$AAv?$AAe?$AAn?$AAe?$AAz?$AAu?$AAe?$AAl?$AAa?$AA?$AA@ 00000000640af050     libucrt:get_qualified_locale.obj
 0002:0000d078       ??_C@_1CA@OBNMCGFO@?$AAs?$AAw?$AAe?$AAd?$AAi?$AAs?$AAh?$AA?9?$AAf?$AAi?$AAn?$AAl?$AAa?$AAn?$AAd?$AA?$AA@ 00000000640af078     libucrt:get_qualified_locale.obj
 0002:0000d098       ??_C@_1M@PIPDDPPI@?$AAs?$AAw?$AAi?$AAs?$AAs?$AA?$AA@ 00000000640af098     libucrt:get_qualified_locale.obj
 0002:0000d0a4       ??_C@_15GMFIMNFM@?$AAu?$AAs?$AA?$AA@ 00000000640af0a4     libucrt:get_qualified_locale.obj
 0002:0000d0b0       ??_C@_17HAEBFAGL@?$AAu?$AAs?$AAa?$AA?$AA@ 00000000640af0b0     libucrt:get_qualified_locale.obj
 0002:0000d0b8       ??_C@_1BA@DPFJEPHB@?$AAa?$AAm?$AAe?$AAr?$AAi?$AAc?$AAa?$AA?$AA@ 00000000640af0b8     libucrt:get_qualified_locale.obj
 0002:0000d0c8       ??_C@_1BA@ELOGGFK@?$AAb?$AAr?$AAi?$AAt?$AAa?$AAi?$AAn?$AA?$AA@ 00000000640af0c8     libucrt:get_qualified_locale.obj
 0002:0000d0d8       ??_C@_1M@GHBGIGDA@?$AAc?$AAh?$AAi?$AAn?$AAa?$AA?$AA@ 00000000640af0d8     libucrt:get_qualified_locale.obj
 0002:0000d0e8       ??_C@_1M@NCHEJOPO@?$AAc?$AAz?$AAe?$AAc?$AAh?$AA?$AA@ 00000000640af0e8     libucrt:get_qualified_locale.obj
 0002:0000d0f8       ??_C@_1BA@BKPAPBLA@?$AAe?$AAn?$AAg?$AAl?$AAa?$AAn?$AAd?$AA?$AA@ 00000000640af0f8     libucrt:get_qualified_locale.obj
 0002:0000d108       ??_C@_1BM@HKBCKIPC@?$AAg?$AAr?$AAe?$AAa?$AAt?$AA?5?$AAb?$AAr?$AAi?$AAt?$AAa?$AAi?$AAn?$AA?$AA@ 00000000640af108     libucrt:get_qualified_locale.obj
 0002:0000d128       ??_C@_1BA@PPCHPGJB@?$AAh?$AAo?$AAl?$AAl?$AAa?$AAn?$AAd?$AA?$AA@ 00000000640af128     libucrt:get_qualified_locale.obj
 0002:0000d138       ??_C@_1BE@JBMPEGDG@?$AAh?$AAo?$AAn?$AAg?$AA?9?$AAk?$AAo?$AAn?$AAg?$AA?$AA@ 00000000640af138     libucrt:get_qualified_locale.obj
 0002:0000d150       ??_C@_1BI@KOELBBPJ@?$AAn?$AAe?$AAw?$AA?9?$AAz?$AAe?$AAa?$AAl?$AAa?$AAn?$AAd?$AA?$AA@ 00000000640af150     libucrt:get_qualified_locale.obj
 0002:0000d168       ??_C@_15HIEBHAIO@?$AAn?$AAz?$AA?$AA@ 00000000640af168     libucrt:get_qualified_locale.obj
 0002:0000d170       ??_C@_1BC@CHBCPFPI@?$AAp?$AAr?$AA?5?$AAc?$AAh?$AAi?$AAn?$AAa?$AA?$AA@ 00000000640af170     libucrt:get_qualified_locale.obj
 0002:0000d188       ??_C@_1BC@JAOIIFKD@?$AAp?$AAr?$AA?9?$AAc?$AAh?$AAi?$AAn?$AAa?$AA?$AA@ 00000000640af188     libucrt:get_qualified_locale.obj
 0002:0000d1a0       ??_C@_1BI@BEHPPHKC@?$AAp?$AAu?$AAe?$AAr?$AAt?$AAo?$AA?9?$AAr?$AAi?$AAc?$AAo?$AA?$AA@ 00000000640af1a0     libucrt:get_qualified_locale.obj
 0002:0000d1b8       ??_C@_1O@PAEOFKDI@?$AAs?$AAl?$AAo?$AAv?$AAa?$AAk?$AA?$AA@ 00000000640af1b8     libucrt:get_qualified_locale.obj
 0002:0000d1c8       ??_C@_1BK@FIHMCKAM@?$AAs?$AAo?$AAu?$AAt?$AAh?$AA?5?$AAa?$AAf?$AAr?$AAi?$AAc?$AAa?$AA?$AA@ 00000000640af1c8     libucrt:get_qualified_locale.obj
 0002:0000d1e8       ??_C@_1BI@NAEOODKB@?$AAs?$AAo?$AAu?$AAt?$AAh?$AA?5?$AAk?$AAo?$AAr?$AAe?$AAa?$AA?$AA@ 00000000640af1e8     libucrt:get_qualified_locale.obj
 0002:0000d200       ??_C@_1BK@FBDGGIFF@?$AAs?$AAo?$AAu?$AAt?$AAh?$AA?9?$AAa?$AAf?$AAr?$AAi?$AAc?$AAa?$AA?$AA@ 00000000640af200     libucrt:get_qualified_locale.obj
 0002:0000d220       ??_C@_1BI@GHLEJDPK@?$AAs?$AAo?$AAu?$AAt?$AAh?$AA?9?$AAk?$AAo?$AAr?$AAe?$AAa?$AA?$AA@ 00000000640af220     libucrt:get_qualified_locale.obj
 0002:0000d238       ??_C@_1CE@PLHLOMJF@?$AAt?$AAr?$AAi?$AAn?$AAi?$AAd?$AAa?$AAd?$AA?5?$AA?$CG?$AA?5?$AAt?$AAo?$AAb?$AAa?$AAg?$AAo?$AA?$AA@ 00000000640af238     libucrt:get_qualified_locale.obj
 0002:0000d260       ??_C@_1BO@MODIMHHI@?$AAu?$AAn?$AAi?$AAt?$AAe?$AAd?$AA?9?$AAk?$AAi?$AAn?$AAg?$AAd?$AAo?$AAm?$AA?$AA@ 00000000640af260     libucrt:get_qualified_locale.obj
 0002:0000d280       ??_C@_1BM@FFHJONBJ@?$AAu?$AAn?$AAi?$AAt?$AAe?$AAd?$AA?9?$AAs?$AAt?$AAa?$AAt?$AAe?$AAs?$AA?$AA@ 00000000640af280     libucrt:get_qualified_locale.obj
 0002:0000d2a0       ??_C@_17DNCLJFIF@?$AAA?$AAC?$AAP?$AA?$AA@ 00000000640af2a0     libucrt:get_qualified_locale.obj
 0002:0000d2a8       ??_C@_17CIKBIHLH@?$AAO?$AAC?$AAP?$AA?$AA@ 00000000640af2a8     libucrt:get_qualified_locale.obj
 0002:0000d2b0       __rglangidNotDefault       00000000640af2b0     libucrt:getqloc_downlevel.obj
 0002:0000d2c4       ??_C@_01GBGANLPD@0?$AA@    00000000640af2c4     libucrt:cfout.obj
 0002:0000d2c8       ??_C@_05DNEBIAHO@1?$CDINF?$AA@ 00000000640af2c8     libucrt:cfout.obj
 0002:0000d2d0       ??_C@_06IMKFLFPG@1?$CDQNAN?$AA@ 00000000640af2d0     libucrt:cfout.obj
 0002:0000d2d8       ??_C@_06PGGFOGJG@1?$CDSNAN?$AA@ 00000000640af2d8     libucrt:cfout.obj
 0002:0000d2e0       ??_C@_05PHHOCPM@1?$CDIND?$AA@ 00000000640af2e0     libucrt:cfout.obj
 0002:0000f1d0       __log10_256_lead           00000000640b11d0     libucrt:log10_256_lead_tail_table.obj
 0002:0000f9e0       __log10_256_tail           00000000640b19e0     libucrt:log10_256_lead_tail_table.obj
 0002:000101e8       ??_C@_1BA@BALFACEM@?$AAC?$AAO?$AAN?$AAO?$AAU?$AAT?$AA$?$AA?$AA@ 00000000640b21e8     libucrt:initcon.obj
 0002:000101f8       ??_C@_0CE@EBEMHOLO@c?3?2src?2plugins?2arclite?2comutils?4@ 00000000640b21f8     archive.obj
 0002:00010220       ??_C@_19HNCGHLOK@?$AAC?$AAo?$AAp?$AAy?$AA?$AA@ 00000000640b2220     archive.obj
 0002:00010230       ??_C@_19MMHLLJED@?$AAL?$AAZ?$AAM?$AAA?$AA?$AA@ 00000000640b2230     archive.obj
 0002:00010240       ??_C@_1M@DDMLOLLP@?$AAL?$AAZ?$AAM?$AAA?$AA2?$AA?$AA@ 00000000640b2240     archive.obj
 0002:00010250       ??_C@_19FHPHDENP@?$AAP?$AAP?$AAM?$AAD?$AA?$AA@ 00000000640b2250     archive.obj
 0002:00010260       ??_C@_19DOGDICKI@?$AA?4?$AAe?$AAx?$AAe?$AA?$AA@ 00000000640b2260     archive.obj
 0002:00010270       ??_C@_19IEMBGPPO@?$AA?4?$AA0?$AA0?$AA1?$AA?$AA@ 00000000640b2270     archive.obj
 0002:0001027c       ??_C@_13PAHNCFBL@?$CB?$JC?$AA?$AA@ 00000000640b227c     archive.obj
 0002:00010280       ??_C@_0N@DLJIDING@CreateObject?$AA@ 00000000640b2280     archive.obj
 0002:00010290       ??_C@_0BD@HEPKNIHJ@GetNumberOfMethods?$AA@ 00000000640b2290     archive.obj
 0002:000102a8       ??_C@_0BC@OJPJFIMA@GetMethodProperty?$AA@ 00000000640b22a8     archive.obj
 0002:000102c0       ??_C@_0BD@GPKACDEP@GetNumberOfFormats?$AA@ 00000000640b22c0     archive.obj
 0002:000102d8       ??_C@_0BD@DAJFLGDO@GetHandlerProperty?$AA@ 00000000640b22d8     archive.obj
 0002:000102f0       ??_C@_0BE@CMCBNMGM@GetHandlerProperty2?$AA@ 00000000640b22f0     archive.obj
 0002:00010308       ??_C@_08IPABKFMB@GetIsArc?$AA@ 00000000640b2308     archive.obj
 0002:00010318       ??_C@_09NCDAKKNI@SetCodecs?$AA@ 00000000640b2318     archive.obj
 0002:00010328       ??_C@_0O@HMDGOOC@CreateDecoder?$AA@ 00000000640b2328     archive.obj
 0002:00010338       ??_C@_0O@MJGODKIG@CreateEncoder?$AA@ 00000000640b2338     archive.obj
 0002:00010348       ??_C@_1O@CNEPMAPN@?$AA7?$AAz?$AA?4?$AAs?$AAf?$AAx?$AA?$AA@ 00000000640b2348     archive.obj
 0002:00010358       ??_C@_1BE@CPEIGPON@?$AA7?$AAz?$AAC?$AAo?$AAn?$AA?4?$AAs?$AAf?$AAx?$AA?$AA@ 00000000640b2358     archive.obj
 0002:00010370       ??_C@_1BA@GPHFCJDK@?$AA7?$AAz?$AAS?$AA?4?$AAs?$AAf?$AAx?$AA?$AA@ 00000000640b2370     archive.obj
 0002:00010380       ??_C@_1BC@EKJIHECG@?$AA7?$AAz?$AAS?$AAD?$AA?4?$AAs?$AAf?$AAx?$AA?$AA@ 00000000640b2380     archive.obj
 0002:00010398       ??_C@_1BC@IBOPFADC@?$AA7?$AAz?$AAS?$AA2?$AA?4?$AAs?$AAf?$AAx?$AA?$AA@ 00000000640b2398     archive.obj
 0002:000103b0       ??_C@_1BI@JEMGCCOA@?$AA7?$AAz?$AAS?$AA2?$AAc?$AAo?$AAn?$AA?4?$AAs?$AAf?$AAx?$AA?$AA@ 00000000640b23b0     archive.obj
 0002:000103c8       ??_C@_13OHNMPHJM@?$AA?$FN?$AA?$AA@ 00000000640b23c8     archive.obj
 0002:000103cc       ??_C@_15FFJNNDMJ@?$AA?5?$AA?$FL?$AA?$AA@ 00000000640b23cc     archive.obj
 0002:000103d4       ??_C@_02DIKIINKA@MZ?$AA@   00000000640b23d4     archive.obj
 0002:000103d8       ??_C@_1M@HNNPBALB@?$AA?$CK?$AA?4?$AAd?$AAl?$AAl?$AA?$AA@ 00000000640b23d8     archive.obj
 0002:000103e8       ??_C@_1M@HFEBMLCN@?$AA?$CK?$AA?4?$AAs?$AAf?$AAx?$AA?$AA@ 00000000640b23e8     archive.obj
 0002:000103f8       ??_C@_1BO@CHFBIDJD@?$AAS?$AAo?$AAf?$AAt?$AAw?$AAa?$AAr?$AAe?$AA?2?$AA7?$AA?9?$AAZ?$AAi?$AAp?$AA?$AA@ 00000000640b23f8     archive.obj
 0002:00010418       ??_C@_19NHABCBNP@?$AAP?$AAa?$AAt?$AAh?$AA?$AA@ 00000000640b2418     archive.obj
 0002:00010428       ??_C@_1O@CFNBBLGB@?$AA7?$AAz?$AA?4?$AAd?$AAl?$AAl?$AA?$AA@ 00000000640b2428     archive.obj
 0002:00010438       ??_C@_1CC@DJBHBKGF@?$AAF?$AAo?$AAr?$AAm?$AAa?$AAt?$AAs?$AA?2?$AA?$CK?$AA?4?$AAf?$AAo?$AAr?$AAm?$AAa?$AAt?$AA?$AA@ 00000000640b2438     archive.obj
 0002:00010460       ??_C@_1BO@IMACGJDG@?$AAC?$AAo?$AAd?$AAe?$AAc?$AAs?$AA?2?$AA?$CK?$AA?4?$AAc?$AAo?$AAd?$AAe?$AAc?$AA?$AA@ 00000000640b2460     archive.obj
 0002:00010480       ??_C@_13BBDEGPLJ@?$AA?$CK?$AA?$AA@ 00000000640b2480     archive.obj
 0002:00010488       ??_C@_0M@HIHBHGEM@archive?4cpp?$AA@ 00000000640b2488     archive.obj
 0002:000104a0       ??_C@_1GK@CKLFAJOB@?$AAS?$AAt?$AAr?$AAi?$AAn?$AAg?$AAF?$AAr?$AAo?$AAm?$AAG?$AAU?$AAI?$AAD?$AA2?$AA?$CI?$AAg?$AAu?$AAi?$AAd?$AA?0?$AA?5?$AAg?$AAu?$AAi?$AAd?$AA_?$AAs?$AAt?$AAr?$AA?0?$AA?5@ 00000000640b24a0     archive.obj
 0002:00010510       ??_C@_19LKKOIHJI@?$AA?4?$AAt?$AAm?$AAp?$AA?$AA@ 00000000640b2510     archive.obj
 0002:0001051c       ??_C@_15DDHGOCBH@?$AA?4?$AA?4?$AA?$AA@ 00000000640b251c     archive.obj
 0002:00010524       ??_C@_13JOFGPIOO@?$AA?4?$AA?$AA@ 00000000640b2524     archive.obj
 0002:00010528       ??_C@_0BG@BBKNOMOH@invalid?5map?$DMK?0?5T?$DO?5key?$AA@ 00000000640b2528     archive.obj
 0002:00010540       ??_C@_0BD@OLBABOEK@vector?$DMT?$DO?5too?5long?$AA@ 00000000640b2540     archive.obj
 0002:00010558       ??_C@_0BC@KBDMBKEH@deque?$DMT?$DO?5too?5long?$AA@ 00000000640b2558     archive.obj
 0002:00010570       ??_C@_0BB@MOGOBHAF@list?$DMT?$DO?5too?5long?$AA@ 00000000640b2570     archive.obj
 0002:00010588       ??_C@_0BE@JONHPENG@map?1set?$DMT?$DO?5too?5long?$AA@ 00000000640b2588     archive.obj
 0002:00010610       ?c_volume_ext@@3PEB_WEB    00000000640b2610     archive.obj
 0002:00010618       ?c_sfx_ext@@3PEB_WEB       00000000640b2618     archive.obj
 0002:00010620       ?c_min_volume_size@@3_KB   00000000640b2620     archive.obj
 0002:00010730       ?c_method_ppmd@@3PEB_WEB   00000000640b2730     archive.obj
 0002:00010738       ?c_method_lzma2@@3PEB_WEB  00000000640b2738     archive.obj
 0002:00010740       ?c_method_lzma@@3PEB_WEB   00000000640b2740     archive.obj
 0002:00010748       ?c_method_copy@@3PEB_WEB   00000000640b2748     archive.obj
 0002:00010780       ?c_esc_confirmation_option@@3PEB_WEB 00000000640b2780     options.obj
 0002:00010788       ?c_profiles_key_name@@3PEB_WEB 00000000640b2788     options.obj
 0002:00010790       ?c_copy_opened_files_option@@3PEB_WEB 00000000640b2790     options.obj
 0002:000107b0       IID_IOutArchive            00000000640b27b0     archive.obj
 0002:000107c0       IID_IInArchive             00000000640b27c0     archive.obj
 0002:000107d0       IID_ICompressCodecsInfo    00000000640b27d0     archive.obj
 0002:000107e8       ??_7MyCompressCodecsInfo@@6BComBase@@@ 00000000640b27e8     archive.obj
 0002:00010810       ??_7MyCompressCodecsInfo@@6BICompressCodecsInfo@@@ 00000000640b2810     archive.obj
 0002:00010850       ??_7ComBase@@6B@           00000000640b2850     archive.obj
 0002:00010870       ??_C@_0BI@CFPLBAOH@invalid?5string?5position?$AA@ 00000000640b2870     archive.obj
 0002:00010888       ??_C@_0BA@JFNIOLAK@string?5too?5long?$AA@ 00000000640b2888     archive.obj
 0002:00010898       ??_C@_0CB@GOJGAIND@c?3?2src?2plugins?2arclite?2error?4hpp@ 00000000640b2898     plugin.obj
 0002:000108c0       ??_C@_0L@MBOHGIBE@plugin?4cpp?$AA@ 00000000640b28c0     plugin.obj
 0002:000108cc       ??_C@_13EBCNDICG@?$AA?3?$AA?$AA@ 00000000640b28cc     plugin.obj
 0002:000108d0       ??_C@_13FPGAJAPJ@?$AA?2?$AA?$AA@ 00000000640b28d0     plugin.obj
 0002:000108e0       ??_C@_1FE@OHPOHPOP@?$AAF?$AAa?$AAr?$AA?3?$AA?3?$AAg?$AAe?$AAt?$AA_?$AAp?$AAa?$AAn?$AAe?$AAl?$AA_?$AAi?$AAn?$AAf?$AAo?$AA?$CI?$AAh?$AA_?$AAp?$AAl?$AAu?$AAg?$AAi?$AAn?$AA?0?$AA?5?$AAp?$AAa@ 00000000640b28e0     plugin.obj
 0002:00010934       ??_C@_13ENNFDPBH@?$AA_?$AA?$AA@ 00000000640b2934     plugin.obj
 0002:00010940       ??_C@_1JK@FFADHFBH@?$AAg?$AAe?$AAt?$AA_?$AAa?$AAp?$AAp?$AA_?$AAo?$AAp?$AAt?$AAi?$AAo?$AAn?$AA?$CI?$AAF?$AAS?$AAS?$AAF?$AA_?$AAS?$AAY?$AAS?$AAT?$AAE?$AAM?$AA?0?$AA?5?$AAc?$AA_?$AAc?$AAo@ 00000000640b2940     plugin.obj
 0002:000109dc       ??_C@_13LBAGMAIH@?$AA?6?$AA?$AA@ 00000000640b29dc     plugin.obj
 0002:000109e0       ??_C@_1BA@EIJEHGCE@?$AAa?$AAr?$AAc?$AAl?$AAi?$AAt?$AAe?$AA?$AA@ 00000000640b29e0     plugin.obj
 0002:000109f0       ??_C@_1FC@HPEFIKDA@?$AAA?$AAr?$AAc?$AAh?$AAi?$AAv?$AAe?$AA?5?$AAs?$AAu?$AAp?$AAp?$AAo?$AAr?$AAt?$AA?5?$AA?$CI?$AAb?$AAa?$AAs?$AAe?$AAd?$AA?5?$AAo?$AAn?$AA?5?$AA7?$AA?9?$AAZ?$AAi?$AAp?$AA?5@ 00000000640b29f0     plugin.obj
 0002:00010a48       ??_C@_1DE@BGKMIKPD@?$AAE?$AAu?$AAg?$AAe?$AAn?$AAe?$AA?5?$AAR?$AAo?$AAs?$AAh?$AAa?$AAl?$AA?5?$AA?$CG?$AA?5?$AAF?$AAa?$AAr?$AA?5?$AAG?$AAr?$AAo?$AAu?$AAp?$AA?$AA@ 00000000640b2a48     plugin.obj
 0002:00010a80       ??_C@_1BC@ENICKDH@?$AAC?$AAo?$AAn?$AAt?$AAe?$AAn?$AAt?$AAs?$AA?$AA@ 00000000640b2a80     plugin.obj
 0002:00010a98       ??_C@_1CC@GBAAMIEE@?$AAK?$AAe?$AAy?$AAs?$AA?$CI?$AA?8?$AAC?$AAt?$AAr?$AAl?$AAP?$AAg?$AAD?$AAn?$AA?8?$AA?$CJ?$AA?$AA@ 00000000640b2a98     plugin.obj
 0002:00010ac0       ??_C@_1O@GBAEOCCH@?$AAP?$AAr?$AAe?$AAf?$AAi?$AAx?$AA?$AA@ 00000000640b2ac0     plugin.obj
 0002:00010ad8       ??_7?$_Ref_count@VArchive@@@std@@6B@ 00000000640b2ad8     plugin.obj
 0002:00010b00       ??_7?$_Ref_count@V?$list@UError@@V?$allocator@UError@@@std@@@std@@@std@@6B@ 00000000640b2b00     plugin.obj
 0002:00010b28       ??_7?$_Ref_count_del@XV<lambda_7e956bde6796eaf49aaf32ba9791a16f>@@@std@@6B@ 00000000640b2b28     plugin.obj
 0002:00010b50       ??_7_Ref_count_base@std@@6B@ 00000000640b2b50     plugin.obj
 0002:00010b78       ??_7PluginPanelItems@?1??extract@Plugin@@QEAAXXZ@6B@ 00000000640b2b78     plugin.obj
 0002:00010b90       ??_7PluginPanelItems@?1??get_files@Plugin@@QEAAXPEBUPluginPanelItem@@_JHPEAPEB_W_K@Z@6B@ 00000000640b2b90     plugin.obj
 0002:00010ba0       ??_C@_02LMMGGCAJ@?3?5?$AA@ 00000000640b2ba0     plugin.obj
 0002:00010ba8       c_far_guid                 00000000640b2ba8     plugin.obj
 0002:00010bb8       c_format_library_info_dialog_guid 00000000640b2bb8     plugin.obj
 0002:00010bc8       c_multi_select_dialog_guid 00000000640b2bc8     plugin.obj
 0002:00010bd8       c_update_params_saved_dialog_guid 00000000640b2bd8     plugin.obj
 0002:00010be8       c_generic_guid             00000000640b2be8     plugin.obj
 0002:00010bf8       c_save_profile_dialog_guid 00000000640b2bf8     plugin.obj
 0002:00010c08       c_create_dir_dialog_guid   00000000640b2c08     plugin.obj
 0002:00010c18       c_arccmd_menu_guid         00000000640b2c18     plugin.obj
 0002:00010c28       c_main_menu_guid           00000000640b2c28     plugin.obj
 0002:00010c38       c_format_menu_guid         00000000640b2c38     plugin.obj
 0002:00010c48       c_error_dialog_guid        00000000640b2c48     plugin.obj
 0002:00010c58       c_arc_path_eval_dialog_guid 00000000640b2c58     plugin.obj
 0002:00010c68       c_extract_params_saved_dialog_guid 00000000640b2c68     plugin.obj
 0002:00010c78       c_test_ok_dialog_guid      00000000640b2c78     plugin.obj
 0002:00010c88       c_delete_profile_dialog_guid 00000000640b2c88     plugin.obj
 0002:00010c98       c_error_log_dialog_guid    00000000640b2c98     plugin.obj
 0002:00010ca8       c_retry_ignore_dialog_guid 00000000640b2ca8     plugin.obj
 0002:00010cb8       c_interrupt_dialog_guid    00000000640b2cb8     plugin.obj
 0002:00010cc8       c_progress_dialog_guid     00000000640b2cc8     plugin.obj
 0002:00010cd8       c_overwrite_archive_dialog_guid 00000000640b2cd8     plugin.obj
 0002:00010ce8       c_delete_files_dialog_guid 00000000640b2ce8     plugin.obj
 0002:00010cf8       c_sfx_options_dialog_guid  00000000640b2cf8     plugin.obj
 0002:00010d08       c_attr_dialog_guid         00000000640b2d08     plugin.obj
 0002:00010d18       c_settings_dialog_guid     00000000640b2d18     plugin.obj
 0002:00010d28       c_update_dialog_guid       00000000640b2d28     plugin.obj
 0002:00010d38       c_extract_dialog_guid      00000000640b2d38     plugin.obj
 0002:00010d48       c_overwrite_dialog_guid    00000000640b2d48     plugin.obj
 0002:00010d58       c_password_dialog_guid     00000000640b2d58     plugin.obj
 0002:00010d68       c_plugin_config_guid       00000000640b2d68     plugin.obj
 0002:00010d78       c_plugin_menu_guid         00000000640b2d78     plugin.obj
 0002:00010d88       c_plugin_guid              00000000640b2d88     plugin.obj
 0002:00010da0       ??_7?$_Ref_count@VFileFilter@Far@@@std@@6B@ 00000000640b2da0     ui.obj
 0002:00010dc0       ??_C@_04LOAJBDKD@true?$AA@ 00000000640b2dc0     ui.obj
 0002:00010dc8       ??_C@_05LAPONLG@false?$AA@ 00000000640b2dc8     ui.obj
 0002:00010dd0       ??_C@_0BA@ELKIONDK@bad?5locale?5name?$AA@ 00000000640b2dd0     ui.obj
 0002:00010de0       ??_C@_00CNPNBAHC@?$AA@     00000000640b2de0     ui.obj
 0002:00010de8       ??_C@_08EPJLHIJG@bad?5cast?$AA@ 00000000640b2de8     ui.obj
 0002:00010df8       ??_C@_0BF@PHHKMMFD@ios_base?3?3badbit?5set?$AA@ 00000000640b2df8     ui.obj
 0002:00010e10       ??_C@_0BG@FMKFHCIL@ios_base?3?3failbit?5set?$AA@ 00000000640b2e10     ui.obj
 0002:00010e30       ??_7error_category@std@@6B@ 00000000640b2e30     ui.obj
 0002:00010e60       ??_C@_08LLGCOLLL@iostream?$AA@ 00000000640b2e60     ui.obj
 0002:00010e70       ??_C@_0BG@PADBLCHM@iostream?5stream?5error?$AA@ 00000000640b2e70     ui.obj
 0002:00010e90       ??_7_Iostream_error_category@std@@6B@ 00000000640b2e90     ui.obj
 0002:00010ec0       ??_C@_0BF@OOHOMBOF@ios_base?3?3eofbit?5set?$AA@ 00000000640b2ec0     ui.obj
 0002:00010ee0       ??_7failure@ios_base@std@@6B@ 00000000640b2ee0     ui.obj
 0002:00010ef8       ??_7system_error@std@@6B@  00000000640b2ef8     ui.obj
 0002:00010f10       ??_7_System_error@std@@6B@ 00000000640b2f10     ui.obj
 0002:00010f28       ??_7ios_base@std@@6B@      00000000640b2f28     ui.obj
 0002:00010f38       ??_7?$basic_ios@_WU?$char_traits@_W@std@@@std@@6B@ 00000000640b2f38     ui.obj
 0002:00010f48       ??_7?$basic_streambuf@_WU?$char_traits@_W@std@@@std@@6B@ 00000000640b2f48     ui.obj
 0002:00010fc8       ??_7?$basic_ostream@_WU?$char_traits@_W@std@@@std@@6B@ 00000000640b2fc8     ui.obj
 0002:00010fd8       ??_7?$basic_stringbuf@_WU?$char_traits@_W@std@@V?$allocator@_W@2@@std@@6B@ 00000000640b2fd8     ui.obj
 0002:00011050       ??_8?$basic_ostringstream@_WU?$char_traits@_W@std@@V?$allocator@_W@2@@std@@7B@ 00000000640b3050     ui.obj
 0002:00011060       ??_7?$basic_ostringstream@_WU?$char_traits@_W@std@@V?$allocator@_W@2@@std@@6B@ 00000000640b3060     ui.obj
 0002:00011070       ??_7AttrDialog@@6B@        00000000640b3070     ui.obj
 0002:00011080       ??_7SettingsDialog@@6B@    00000000640b3080     ui.obj
 0002:00011090       ??_7FormatLibraryInfoDialog@@6B@ 00000000640b3090     ui.obj
 0002:000110a0       ??_7MultiSelectDialog@@6B@ 00000000640b30a0     ui.obj
 0002:000110b0       ??_7UpdateDialog@@6B@      00000000640b30b0     ui.obj
 0002:000110c0       ??_7ExtractDialog@@6B@     00000000640b30c0     ui.obj
 0002:000110d0       ??_7OverwriteDialog@@6B@   00000000640b30d0     ui.obj
 0002:000110e0       ??_7PasswordDialog@@6B@    00000000640b30e0     ui.obj
 0002:00011128       ??_7ProgressMonitor@@6B@   00000000640b3128     ui.obj
 0002:00011138       ??_C@_0BC@EOODALEL@Unknown?5exception?$AA@ 00000000640b3138     ui.obj
 0002:0001114c       ??_C@_06NPJEFJLB@ui?4cpp?$AA@ 00000000640b314c     ui.obj
 0002:00011160       ??_C@_1JG@OMFJPMPF@?$AAg?$AAe?$AAt?$AA_?$AAa?$AAp?$AAp?$AA_?$AAo?$AAp?$AAt?$AAi?$AAo?$AAn?$AA?$CI?$AAF?$AAS?$AAS?$AAF?$AA_?$AAC?$AAO?$AAN?$AAF?$AAI?$AAR?$AAM?$AAA?$AAT?$AAI?$AAO?$AAN@ 00000000640b3160     ui.obj
 0002:000111f8       ??_C@_17DMMFPNIF@?$AA?$CF?$AA?$HN?$AA?5?$AA?$AA@ 00000000640b31f8     ui.obj
 0002:00011200       ??_C@_13GCIFAHHO@?$AA?$HL?$AA?$AA@ 00000000640b3200     ui.obj
 0002:00011204       ??_C@_15FOBPOKEL@?$AA?$FN?$AA?5?$AA?$AA@ 00000000640b3204     ui.obj
 0002:0001120c       ??_C@_13MCLHKIEA@?$AA?$FL?$AA?$AA@ 00000000640b320c     ui.obj
 0002:00011210       ??_C@_13NEIAEHFG@?$AA?$CC?$AA?$AA@ 00000000640b3210     ui.obj
 0002:00011218       ??_C@_1BA@DNNJDHAB@?$AAE?$AAx?$AAt?$AAr?$AAa?$AAc?$AAt?$AA?$AA@ 00000000640b3218     ui.obj
 0002:00011228       ??_C@_1CI@GPLIDJDI@?$AAa?$AAr?$AAc?$AAl?$AAi?$AAt?$AAe?$AA?4?$AAe?$AAx?$AAt?$AAr?$AAa?$AAc?$AAt?$AA_?$AAd?$AAi?$AAr?$AA?$AA@ 00000000640b3228     ui.obj
 0002:00011250       ??_C@_1GG@OEEJHDBB@?$AAs?$AAe?$AAn?$AAd?$AA_?$AAm?$AAe?$AAs?$AAs?$AAa?$AAg?$AAe?$AA?$CI?$AAD?$AAM?$AA_?$AAL?$AAI?$AAS?$AAT?$AAG?$AAE?$AAT?$AAI?$AAT?$AAE?$AAM?$AA?0?$AA?5?$AAl?$AAe?$AAv@ 00000000640b3250     ui.obj
 0002:000112b8       ??_C@_11LOCGONAA@?$AA?$AA@ 00000000640b32b8     ui.obj
 0002:000112b8       ?empty@?1???$null_to_empty@_W@@YAPEB_WPEB_W@Z@4_WB 00000000640b32b8     plugin.obj
 0002:000112c0       ??_C@_1O@PBKAOOPF@?$AAU?$AAp?$AAd?$AAa?$AAt?$AAe?$AA?$AA@ 00000000640b32c0     ui.obj
 0002:000112d0       ??_C@_1CC@JHNGBHPE@?$AAa?$AAr?$AAc?$AAl?$AAi?$AAt?$AAe?$AA?4?$AAa?$AAr?$AAc?$AA_?$AAp?$AAa?$AAt?$AAh?$AA?$AA@ 00000000640b32d0     ui.obj
 0002:000112f8       ??_C@_1CC@MEHHCPDF@?$AAa?$AAr?$AAc?$AAl?$AAi?$AAt?$AAe?$AA?4?$AAa?$AAd?$AAv?$AAa?$AAn?$AAc?$AAe?$AAd?$AA?$AA@ 00000000640b32f8     ui.obj
 0002:00011320       ??_C@_1CI@KIHLOCML@?$AAa?$AAr?$AAc?$AAl?$AAi?$AAt?$AAe?$AA?4?$AAv?$AAo?$AAl?$AAu?$AAm?$AAe?$AA_?$AAs?$AAi?$AAz?$AAe?$AA?$AA@ 00000000640b3320     ui.obj
 0002:00011348       ??_C@_1DM@DOHHEJNC@?$AAi?$AAt?$AAe?$AAm?$AA_?$AAc?$AAo?$AAl?$AAo?$AAr?$AAs?$AA?9?$AA?$DO?$AAC?$AAo?$AAl?$AAo?$AAr?$AAs?$AAC?$AAo?$AAu?$AAn?$AAt?$AA?5?$AA?$DN?$AA?$DN?$AA?5?$AA4?$AA?$AA@ 00000000640b3348     ui.obj
 0002:00011384       ??_C@_13DEFPDAGF@?$AA?0?$AA?$AA@ 00000000640b3384     ui.obj
 0002:00011388       ??_C@_1O@BJPKKLLM@?$AAC?$AAo?$AAn?$AAf?$AAi?$AAg?$AA?$AA@ 00000000640b3388     ui.obj
 0002:00011398       ??_C@_02BBAHNLBA@?$CFp?$AA@ 00000000640b3398     ui.obj
 0002:0001139c       ??_C@_02MDKMJEGG@eE?$AA@   00000000640b339c     ui.obj
 0002:000113a0       ??_C@_02OOPEBDOJ@pP?$AA@   00000000640b33a0     ui.obj
 0002:000113a4       ??_C@_15OKNMGNJN@?$AA?$AB?$AA?6?$AA?$AA@ 00000000640b33a4     extract.obj
 0002:000113b0       ??_C@_17MMMBOHJC@?$AA?5?$AA?$EA?$AA?5?$AA?$AA@ 00000000640b33b0     extract.obj
 0002:000113b8       ??_C@_17DFGDFKBN@?$AA?5?$AA?1?$AA?5?$AA?$AA@ 00000000640b33b8     extract.obj
 0002:000113c0       ??_C@_19IDMFBI@?$AA?$CJ?$AA?5?$AA?1?$AA?5?$AA?$AA@ 00000000640b33c0     extract.obj
 0002:000113d0       ??_C@_17HIKLPLBG@?$AA?5?$AA?9?$AA?5?$AA?$AA@ 00000000640b33d0     extract.obj
 0002:000113d8       ??_C@_13LLDNKHDC@?$AA?$CI?$AA?$AA@ 00000000640b33d8     extract.obj
 0002:000113e0       ??_C@_0M@ELMNDOCL@extract?4cpp?$AA@ 00000000640b33e0     extract.obj
 0002:000113f8       ??_7?$_Ref_count@V?$set@IU?$less@I@std@@V?$allocator@I@2@@std@@@std@@6B@ 00000000640b33f8     extract.obj
 0002:00011418       ??_C@_0N@FJHHFFAF@bad_weak_ptr?$AA@ 00000000640b3418     extract.obj
 0002:00011430       ??_7bad_weak_ptr@std@@6B@  00000000640b3430     extract.obj
 0002:00011448       ??_7?$_Ref_count@_N@std@@6B@ 00000000640b3448     extract.obj
 0002:00011470       ??_7?$_Ref_count@W4OverwriteAction@@@std@@6B@ 00000000640b3470     extract.obj
 0002:00011498       ??_7?$_Ref_count@VExtractProgress@@@std@@6B@ 00000000640b3498     extract.obj
 0002:000114c0       ??_7?$_Ref_count@VFileWriteCache@@@std@@6B@ 00000000640b34c0     extract.obj
 0002:000114e8       ??_7SetDirAttr@@6B@        00000000640b34e8     extract.obj
 0002:00011500       ??_7PrepareExtract@@6B@    00000000640b3500     extract.obj
 0002:00011518       ??_7ICryptoGetTextPassword@@6B@ 00000000640b3518     extract.obj
 0002:00011540       ??_7IArchiveExtractCallback@@6B@ 00000000640b3540     extract.obj
 0002:00011580       IID_ICryptoGetTextPassword 00000000640b3580     extract.obj
 0002:00011590       IID_IArchiveExtractCallback 00000000640b3590     extract.obj
 0002:000115a0       IID_IProgress              00000000640b35a0     extract.obj
 0002:000115b8       ??_7ArchiveExtractor@@6BComBase@@@ 00000000640b35b8     extract.obj
 0002:000115e0       ??_7ArchiveExtractor@@6BICryptoGetTextPassword@@@ 00000000640b35e0     extract.obj
 0002:00011608       ??_7ArchiveExtractor@@6BIArchiveExtractCallback@@@ 00000000640b3608     extract.obj
 0002:00011648       IID_ISequentialOutStream   00000000640b3648     extract.obj
 0002:00011660       ??_7CachedFileExtractStream@@6BComBase@@@ 00000000640b3660     extract.obj
 0002:00011688       ??_7CachedFileExtractStream@@6BISequentialOutStream@@@ 00000000640b3688     extract.obj
